
target/x86_64-gyul/debug/kernel:     file format elf64-x86-64


Disassembly of section .text:

0000000000102f00 <_ZN4core7convert3num18ptr_try_from_impls68_$LT$impl$u20$core..convert..TryFrom$LT$usize$GT$$u20$for$u20$u8$GT$8try_from17h1125d9f4d6760b9dE>:
  102f00:	48 83 ec 18          	sub    $0x18,%rsp
  102f04:	48 89 3c 24          	mov    %rdi,(%rsp)
  102f08:	48 89 7c 24 10       	mov    %rdi,0x10(%rsp)
  102f0d:	48 81 ff ff 00 00 00 	cmp    $0xff,%rdi
  102f14:	77 0f                	ja     102f25 <_ZN4core7convert3num18ptr_try_from_impls68_$LT$impl$u20$core..convert..TryFrom$LT$usize$GT$$u20$for$u20$u8$GT$8try_from17h1125d9f4d6760b9dE+0x25>
  102f16:	48 8b 04 24          	mov    (%rsp),%rax
  102f1a:	88 44 24 09          	mov    %al,0x9(%rsp)
  102f1e:	c6 44 24 08 00       	movb   $0x0,0x8(%rsp)
  102f23:	eb 05                	jmp    102f2a <_ZN4core7convert3num18ptr_try_from_impls68_$LT$impl$u20$core..convert..TryFrom$LT$usize$GT$$u20$for$u20$u8$GT$8try_from17h1125d9f4d6760b9dE+0x2a>
  102f25:	c6 44 24 08 01       	movb   $0x1,0x8(%rsp)
  102f2a:	8a 44 24 08          	mov    0x8(%rsp),%al
  102f2e:	8a 54 24 09          	mov    0x9(%rsp),%dl
  102f32:	48 83 c4 18          	add    $0x18,%rsp
  102f36:	c3                   	retq   
  102f37:	cc                   	int3   
  102f38:	cc                   	int3   
  102f39:	cc                   	int3   
  102f3a:	cc                   	int3   
  102f3b:	cc                   	int3   
  102f3c:	cc                   	int3   
  102f3d:	cc                   	int3   
  102f3e:	cc                   	int3   
  102f3f:	cc                   	int3   

0000000000102f40 <_start>:
  102f40:	48 81 ec 08 01 00 00 	sub    $0x108,%rsp
  102f47:	48 8d b4 24 10 01 00 	lea    0x110(%rsp),%rsi
  102f4e:	00 
  102f4f:	48 8b 06             	mov    (%rsi),%rax
  102f52:	48 8b 4e 08          	mov    0x8(%rsi),%rcx
  102f56:	48 8b 56 10          	mov    0x10(%rsi),%rdx
  102f5a:	48 8b 7e 18          	mov    0x18(%rsi),%rdi
  102f5e:	66 48 0f 6e c0       	movq   %rax,%xmm0
  102f63:	66 48 0f 6e d1       	movq   %rcx,%xmm2
  102f68:	66 48 0f 6e e2       	movq   %rdx,%xmm4
  102f6d:	66 48 0f 6e f7       	movq   %rdi,%xmm6
  102f72:	48 8d 7c 24 50       	lea    0x50(%rsp),%rdi
  102f77:	ba 28 00 00 00       	mov    $0x28,%edx
  102f7c:	e8 ef cc 00 00       	callq  10fc70 <memcpy>
  102f81:	48 8d 7c 24 28       	lea    0x28(%rsp),%rdi
  102f86:	48 8d 74 24 50       	lea    0x50(%rsp),%rsi
  102f8b:	e8 10 03 00 00       	callq  1032a0 <_ZN85_$LT$kernel..Screen$u20$as$u20$core..convert..From$LT$shared..FrameBufferInfo$GT$$GT$4from17h808e9bbb2944b639E>
  102f90:	48 8b 44 24 40       	mov    0x40(%rsp),%rax
  102f95:	48 c7 44 24 78 00 00 	movq   $0x0,0x78(%rsp)
  102f9c:	00 00 
  102f9e:	48 89 84 24 80 00 00 	mov    %rax,0x80(%rsp)
  102fa5:	00 
  102fa6:	48 8b 7c 24 78       	mov    0x78(%rsp),%rdi
  102fab:	48 8b b4 24 80 00 00 	mov    0x80(%rsp),%rsi
  102fb2:	00 
  102fb3:	e8 58 9e 00 00       	callq  10ce10 <_ZN63_$LT$I$u20$as$u20$core..iter..traits..collect..IntoIterator$GT$9into_iter17h3e6eed25d9a5d22cE>
  102fb8:	48 89 84 24 88 00 00 	mov    %rax,0x88(%rsp)
  102fbf:	00 
  102fc0:	48 89 94 24 90 00 00 	mov    %rdx,0x90(%rsp)
  102fc7:	00 
  102fc8:	48 8d bc 24 88 00 00 	lea    0x88(%rsp),%rdi
  102fcf:	00 
  102fd0:	e8 2b 9e 00 00       	callq  10ce00 <_ZN4core4iter5range101_$LT$impl$u20$core..iter..traits..iterator..Iterator$u20$for$u20$core..ops..range..Range$LT$A$GT$$GT$4next17h1e143a2b9ee3d11bE>
  102fd5:	48 89 94 24 a0 00 00 	mov    %rdx,0xa0(%rsp)
  102fdc:	00 
  102fdd:	48 89 84 24 98 00 00 	mov    %rax,0x98(%rsp)
  102fe4:	00 
  102fe5:	48 83 bc 24 98 00 00 	cmpq   $0x0,0x98(%rsp)
  102fec:	00 00 
  102fee:	75 07                	jne    102ff7 <_start+0xb7>
  102ff0:	e8 bb 01 00 00       	callq  1031b0 <_ZN6kernel4halt17h839f38ae9e0325e1E>
  102ff5:	0f 0b                	ud2    
  102ff7:	48 8b 84 24 a0 00 00 	mov    0xa0(%rsp),%rax
  102ffe:	00 
  102fff:	48 89 44 24 20       	mov    %rax,0x20(%rsp)
  103004:	48 89 84 24 f0 00 00 	mov    %rax,0xf0(%rsp)
  10300b:	00 
  10300c:	48 8b 44 24 48       	mov    0x48(%rsp),%rax
  103011:	48 c7 84 24 a8 00 00 	movq   $0x0,0xa8(%rsp)
  103018:	00 00 00 00 00 
  10301d:	48 89 84 24 b0 00 00 	mov    %rax,0xb0(%rsp)
  103024:	00 
  103025:	48 8b bc 24 a8 00 00 	mov    0xa8(%rsp),%rdi
  10302c:	00 
  10302d:	48 8b b4 24 b0 00 00 	mov    0xb0(%rsp),%rsi
  103034:	00 
  103035:	e8 d6 9d 00 00       	callq  10ce10 <_ZN63_$LT$I$u20$as$u20$core..iter..traits..collect..IntoIterator$GT$9into_iter17h3e6eed25d9a5d22cE>
  10303a:	48 89 84 24 b8 00 00 	mov    %rax,0xb8(%rsp)
  103041:	00 
  103042:	48 89 94 24 c0 00 00 	mov    %rdx,0xc0(%rsp)
  103049:	00 
  10304a:	48 8d bc 24 b8 00 00 	lea    0xb8(%rsp),%rdi
  103051:	00 
  103052:	e8 a9 9d 00 00       	callq  10ce00 <_ZN4core4iter5range101_$LT$impl$u20$core..iter..traits..iterator..Iterator$u20$for$u20$core..ops..range..Range$LT$A$GT$$GT$4next17h1e143a2b9ee3d11bE>
  103057:	48 89 94 24 d0 00 00 	mov    %rdx,0xd0(%rsp)
  10305e:	00 
  10305f:	48 89 84 24 c8 00 00 	mov    %rax,0xc8(%rsp)
  103066:	00 
  103067:	48 83 bc 24 c8 00 00 	cmpq   $0x0,0xc8(%rsp)
  10306e:	00 00 
  103070:	0f 84 52 ff ff ff    	je     102fc8 <_start+0x88>
  103076:	48 8b 44 24 20       	mov    0x20(%rsp),%rax
  10307b:	48 8b 8c 24 d0 00 00 	mov    0xd0(%rsp),%rcx
  103082:	00 
  103083:	48 89 4c 24 10       	mov    %rcx,0x10(%rsp)
  103088:	48 89 8c 24 f8 00 00 	mov    %rcx,0xf8(%rsp)
  10308f:	00 
  103090:	48 89 84 24 d8 00 00 	mov    %rax,0xd8(%rsp)
  103097:	00 
  103098:	48 89 8c 24 e0 00 00 	mov    %rcx,0xe0(%rsp)
  10309f:	00 
  1030a0:	0f b6 c0             	movzbl %al,%eax
  1030a3:	89 c7                	mov    %eax,%edi
  1030a5:	48 89 7c 24 08       	mov    %rdi,0x8(%rsp)
  1030aa:	e8 51 fe ff ff       	callq  102f00 <_ZN4core7convert3num18ptr_try_from_impls68_$LT$impl$u20$core..convert..TryFrom$LT$usize$GT$$u20$for$u20$u8$GT$8try_from17h1125d9f4d6760b9dE>
  1030af:	0f b6 f2             	movzbl %dl,%esi
  1030b2:	0f b6 f8             	movzbl %al,%edi
  1030b5:	83 e7 01             	and    $0x1,%edi
  1030b8:	48 8d 15 b1 e6 00 00 	lea    0xe6b1(%rip),%rdx        # 111770 <memcmp+0x1020>
  1030bf:	e8 ec 06 00 00       	callq  1037b0 <_ZN4core6result19Result$LT$T$C$E$GT$6unwrap17h227abe2bfe286cd5E>
  1030c4:	48 8b 7c 24 08       	mov    0x8(%rsp),%rdi
  1030c9:	88 44 24 1e          	mov    %al,0x1e(%rsp)
  1030cd:	e8 2e fe ff ff       	callq  102f00 <_ZN4core7convert3num18ptr_try_from_impls68_$LT$impl$u20$core..convert..TryFrom$LT$usize$GT$$u20$for$u20$u8$GT$8try_from17h1125d9f4d6760b9dE>
  1030d2:	0f b6 f2             	movzbl %dl,%esi
  1030d5:	0f b6 f8             	movzbl %al,%edi
  1030d8:	83 e7 01             	and    $0x1,%edi
  1030db:	48 8d 15 a6 e6 00 00 	lea    0xe6a6(%rip),%rdx        # 111788 <memcmp+0x1038>
  1030e2:	e8 c9 06 00 00       	callq  1037b0 <_ZN4core6result19Result$LT$T$C$E$GT$6unwrap17h227abe2bfe286cd5E>
  1030e7:	88 c1                	mov    %al,%cl
  1030e9:	48 8b 44 24 10       	mov    0x10(%rsp),%rax
  1030ee:	88 4c 24 1f          	mov    %cl,0x1f(%rsp)
  1030f2:	0f b6 c0             	movzbl %al,%eax
  1030f5:	89 c7                	mov    %eax,%edi
  1030f7:	e8 04 fe ff ff       	callq  102f00 <_ZN4core7convert3num18ptr_try_from_impls68_$LT$impl$u20$core..convert..TryFrom$LT$usize$GT$$u20$for$u20$u8$GT$8try_from17h1125d9f4d6760b9dE>
  1030fc:	0f b6 f2             	movzbl %dl,%esi
  1030ff:	0f b6 f8             	movzbl %al,%edi
  103102:	83 e7 01             	and    $0x1,%edi
  103105:	48 8d 15 94 e6 00 00 	lea    0xe694(%rip),%rdx        # 1117a0 <memcmp+0x1050>
  10310c:	e8 9f 06 00 00       	callq  1037b0 <_ZN4core6result19Result$LT$T$C$E$GT$6unwrap17h227abe2bfe286cd5E>
  103111:	8a 54 24 1e          	mov    0x1e(%rsp),%dl
  103115:	8a 4c 24 1f          	mov    0x1f(%rsp),%cl
  103119:	0f b6 fa             	movzbl %dl,%edi
  10311c:	0f b6 f1             	movzbl %cl,%esi
  10311f:	0f b6 d0             	movzbl %al,%edx
  103122:	e8 99 00 00 00       	callq  1031c0 <_ZN6kernel9ColorCode3rgb17h9e29c5c3893e2705E>
  103127:	66 89 c1             	mov    %ax,%cx
  10312a:	66 89 8c 24 04 01 00 	mov    %cx,0x104(%rsp)
  103131:	00 
  103132:	c1 e8 10             	shr    $0x10,%eax
  103135:	88 84 24 06 01 00 00 	mov    %al,0x106(%rsp)
  10313c:	8a 84 24 06 01 00 00 	mov    0x106(%rsp),%al
  103143:	88 84 24 ea 00 00 00 	mov    %al,0xea(%rsp)
  10314a:	66 8b 84 24 04 01 00 	mov    0x104(%rsp),%ax
  103151:	00 
  103152:	66 89 84 24 e8 00 00 	mov    %ax,0xe8(%rsp)
  103159:	00 
  10315a:	48 8b b4 24 d8 00 00 	mov    0xd8(%rsp),%rsi
  103161:	00 
  103162:	48 8b 94 24 e0 00 00 	mov    0xe0(%rsp),%rdx
  103169:	00 
  10316a:	0f b6 84 24 ea 00 00 	movzbl 0xea(%rsp),%eax
  103171:	00 
  103172:	c1 e0 10             	shl    $0x10,%eax
  103175:	0f b7 8c 24 e8 00 00 	movzwl 0xe8(%rsp),%ecx
  10317c:	00 
  10317d:	09 c1                	or     %eax,%ecx
  10317f:	48 8d 7c 24 28       	lea    0x28(%rsp),%rdi
  103184:	e8 f7 01 00 00       	callq  103380 <_ZN6kernel6Screen11write_pixel17hefc03e9c15849d44E>
  103189:	e9 bc fe ff ff       	jmpq   10304a <_start+0x10a>
  10318e:	cc                   	int3   
  10318f:	cc                   	int3   

0000000000103190 <rust_begin_unwind>:
  103190:	50                   	push   %rax
  103191:	48 89 3c 24          	mov    %rdi,(%rsp)
  103195:	49 c7 c3 ad de 00 00 	mov    $0xdead,%r11
  10319c:	e8 0f 00 00 00       	callq  1031b0 <_ZN6kernel4halt17h839f38ae9e0325e1E>
  1031a1:	0f 0b                	ud2    
  1031a3:	cc                   	int3   
  1031a4:	cc                   	int3   
  1031a5:	cc                   	int3   
  1031a6:	cc                   	int3   
  1031a7:	cc                   	int3   
  1031a8:	cc                   	int3   
  1031a9:	cc                   	int3   
  1031aa:	cc                   	int3   
  1031ab:	cc                   	int3   
  1031ac:	cc                   	int3   
  1031ad:	cc                   	int3   
  1031ae:	cc                   	int3   
  1031af:	cc                   	int3   

00000000001031b0 <_ZN6kernel4halt17h839f38ae9e0325e1E>:
  1031b0:	50                   	push   %rax
  1031b1:	eb 00                	jmp    1031b3 <_ZN6kernel4halt17h839f38ae9e0325e1E+0x3>
  1031b3:	f4                   	hlt    
  1031b4:	eb fd                	jmp    1031b3 <_ZN6kernel4halt17h839f38ae9e0325e1E+0x3>
  1031b6:	cc                   	int3   
  1031b7:	cc                   	int3   
  1031b8:	cc                   	int3   
  1031b9:	cc                   	int3   
  1031ba:	cc                   	int3   
  1031bb:	cc                   	int3   
  1031bc:	cc                   	int3   
  1031bd:	cc                   	int3   
  1031be:	cc                   	int3   
  1031bf:	cc                   	int3   

00000000001031c0 <_ZN6kernel9ColorCode3rgb17h9e29c5c3893e2705E>:
  1031c0:	50                   	push   %rax
  1031c1:	88 d0                	mov    %dl,%al
  1031c3:	40 88 f1             	mov    %sil,%cl
  1031c6:	40 88 fa             	mov    %dil,%dl
  1031c9:	88 54 24 05          	mov    %dl,0x5(%rsp)
  1031cd:	88 4c 24 06          	mov    %cl,0x6(%rsp)
  1031d1:	88 44 24 07          	mov    %al,0x7(%rsp)
  1031d5:	88 14 24             	mov    %dl,(%rsp)
  1031d8:	88 4c 24 01          	mov    %cl,0x1(%rsp)
  1031dc:	88 44 24 02          	mov    %al,0x2(%rsp)
  1031e0:	0f b6 4c 24 02       	movzbl 0x2(%rsp),%ecx
  1031e5:	c1 e1 10             	shl    $0x10,%ecx
  1031e8:	0f b7 04 24          	movzwl (%rsp),%eax
  1031ec:	09 c8                	or     %ecx,%eax
  1031ee:	59                   	pop    %rcx
  1031ef:	c3                   	retq   

00000000001031f0 <_ZN6kernel13rgb_formatter17h9ad7efbf06418c15E>:
  1031f0:	48 83 ec 10          	sub    $0x10,%rsp
  1031f4:	66 89 f8             	mov    %di,%ax
  1031f7:	66 89 44 24 08       	mov    %ax,0x8(%rsp)
  1031fc:	c1 ef 10             	shr    $0x10,%edi
  1031ff:	40 88 f8             	mov    %dil,%al
  103202:	88 44 24 0a          	mov    %al,0xa(%rsp)
  103206:	66 8b 44 24 08       	mov    0x8(%rsp),%ax
  10320b:	66 89 04 24          	mov    %ax,(%rsp)
  10320f:	8a 44 24 0a          	mov    0xa(%rsp),%al
  103213:	88 44 24 02          	mov    %al,0x2(%rsp)
  103217:	40 8a 34 24          	mov    (%rsp),%sil
  10321b:	8a 54 24 01          	mov    0x1(%rsp),%dl
  10321f:	8a 4c 24 02          	mov    0x2(%rsp),%cl
  103223:	8a 44 24 02          	mov    0x2(%rsp),%al
  103227:	40 88 74 24 0c       	mov    %sil,0xc(%rsp)
  10322c:	88 54 24 0d          	mov    %dl,0xd(%rsp)
  103230:	88 4c 24 0e          	mov    %cl,0xe(%rsp)
  103234:	88 44 24 0f          	mov    %al,0xf(%rsp)
  103238:	8b 44 24 0c          	mov    0xc(%rsp),%eax
  10323c:	48 83 c4 10          	add    $0x10,%rsp
  103240:	c3                   	retq   
  103241:	cc                   	int3   
  103242:	cc                   	int3   
  103243:	cc                   	int3   
  103244:	cc                   	int3   
  103245:	cc                   	int3   
  103246:	cc                   	int3   
  103247:	cc                   	int3   
  103248:	cc                   	int3   
  103249:	cc                   	int3   
  10324a:	cc                   	int3   
  10324b:	cc                   	int3   
  10324c:	cc                   	int3   
  10324d:	cc                   	int3   
  10324e:	cc                   	int3   
  10324f:	cc                   	int3   

0000000000103250 <_ZN6kernel13bgr_formatter17hcf3d41d1c4618399E>:
  103250:	48 83 ec 10          	sub    $0x10,%rsp
  103254:	66 89 f8             	mov    %di,%ax
  103257:	66 89 44 24 08       	mov    %ax,0x8(%rsp)
  10325c:	c1 ef 10             	shr    $0x10,%edi
  10325f:	40 88 f8             	mov    %dil,%al
  103262:	88 44 24 0a          	mov    %al,0xa(%rsp)
  103266:	66 8b 44 24 08       	mov    0x8(%rsp),%ax
  10326b:	66 89 04 24          	mov    %ax,(%rsp)
  10326f:	8a 44 24 0a          	mov    0xa(%rsp),%al
  103273:	88 44 24 02          	mov    %al,0x2(%rsp)
  103277:	40 8a 74 24 02       	mov    0x2(%rsp),%sil
  10327c:	8a 54 24 01          	mov    0x1(%rsp),%dl
  103280:	8a 0c 24             	mov    (%rsp),%cl
  103283:	8a 04 24             	mov    (%rsp),%al
  103286:	40 88 74 24 0c       	mov    %sil,0xc(%rsp)
  10328b:	88 54 24 0d          	mov    %dl,0xd(%rsp)
  10328f:	88 4c 24 0e          	mov    %cl,0xe(%rsp)
  103293:	88 44 24 0f          	mov    %al,0xf(%rsp)
  103297:	8b 44 24 0c          	mov    0xc(%rsp),%eax
  10329b:	48 83 c4 10          	add    $0x10,%rsp
  10329f:	c3                   	retq   

00000000001032a0 <_ZN85_$LT$kernel..Screen$u20$as$u20$core..convert..From$LT$shared..FrameBufferInfo$GT$$GT$4from17h808e9bbb2944b639E>:
  1032a0:	48 81 ec 88 00 00 00 	sub    $0x88,%rsp
  1032a7:	48 89 7c 24 10       	mov    %rdi,0x10(%rsp)
  1032ac:	48 89 7c 24 18       	mov    %rdi,0x18(%rsp)
  1032b1:	48 8b 06             	mov    (%rsi),%rax
  1032b4:	48 89 44 24 20       	mov    %rax,0x20(%rsp)
  1032b9:	48 8b 46 08          	mov    0x8(%rsi),%rax
  1032bd:	48 89 44 24 28       	mov    %rax,0x28(%rsp)
  1032c2:	48 8b 46 10          	mov    0x10(%rsi),%rax
  1032c6:	48 89 44 24 30       	mov    %rax,0x30(%rsp)
  1032cb:	48 8b 46 18          	mov    0x18(%rsi),%rax
  1032cf:	48 89 44 24 38       	mov    %rax,0x38(%rsp)
  1032d4:	8b 46 20             	mov    0x20(%rsi),%eax
  1032d7:	89 44 24 44          	mov    %eax,0x44(%rsp)
  1032db:	85 c0                	test   %eax,%eax
  1032dd:	74 48                	je     103327 <_ZN85_$LT$kernel..Screen$u20$as$u20$core..convert..From$LT$shared..FrameBufferInfo$GT$$GT$4from17h808e9bbb2944b639E+0x87>
  1032df:	eb 00                	jmp    1032e1 <_ZN85_$LT$kernel..Screen$u20$as$u20$core..convert..From$LT$shared..FrameBufferInfo$GT$$GT$4from17h808e9bbb2944b639E+0x41>
  1032e1:	8b 44 24 44          	mov    0x44(%rsp),%eax
  1032e5:	83 e8 01             	sub    $0x1,%eax
  1032e8:	74 4b                	je     103335 <_ZN85_$LT$kernel..Screen$u20$as$u20$core..convert..From$LT$shared..FrameBufferInfo$GT$$GT$4from17h808e9bbb2944b639E+0x95>
  1032ea:	eb 00                	jmp    1032ec <_ZN85_$LT$kernel..Screen$u20$as$u20$core..convert..From$LT$shared..FrameBufferInfo$GT$$GT$4from17h808e9bbb2944b639E+0x4c>
  1032ec:	48 8d 35 c5 e4 00 00 	lea    0xe4c5(%rip),%rsi        # 1117b8 <memcmp+0x1068>
  1032f3:	31 c0                	xor    %eax,%eax
  1032f5:	41 89 c0             	mov    %eax,%r8d
  1032f8:	48 8d 7c 24 50       	lea    0x50(%rsp),%rdi
  1032fd:	48 89 7c 24 08       	mov    %rdi,0x8(%rsp)
  103302:	ba 01 00 00 00       	mov    $0x1,%edx
  103307:	48 8d 8c 24 80 00 00 	lea    0x80(%rsp),%rcx
  10330e:	00 
  10330f:	e8 cc 02 00 00       	callq  1035e0 <_ZN4core3fmt9Arguments6new_v117hd93380ae514c3078E>
  103314:	48 8b 7c 24 08       	mov    0x8(%rsp),%rdi
  103319:	48 8d 35 a8 e4 00 00 	lea    0xe4a8(%rip),%rsi        # 1117c8 <memcmp+0x1078>
  103320:	e8 5b 20 00 00       	callq  105380 <_ZN4core9panicking9panic_fmt17hec0a0bac075b5c3fE>
  103325:	0f 0b                	ud2    
  103327:	48 8d 05 c2 fe ff ff 	lea    -0x13e(%rip),%rax        # 1031f0 <_ZN6kernel13rgb_formatter17h9ad7efbf06418c15E>
  10332e:	48 89 44 24 48       	mov    %rax,0x48(%rsp)
  103333:	eb 0c                	jmp    103341 <_ZN85_$LT$kernel..Screen$u20$as$u20$core..convert..From$LT$shared..FrameBufferInfo$GT$$GT$4from17h808e9bbb2944b639E+0xa1>
  103335:	48 8d 05 14 ff ff ff 	lea    -0xec(%rip),%rax        # 103250 <_ZN6kernel13bgr_formatter17hcf3d41d1c4618399E>
  10333c:	48 89 44 24 48       	mov    %rax,0x48(%rsp)
  103341:	48 8b 44 24 18       	mov    0x18(%rsp),%rax
  103346:	48 8b 4c 24 10       	mov    0x10(%rsp),%rcx
  10334b:	48 8b 54 24 38       	mov    0x38(%rsp),%rdx
  103350:	48 8b 74 24 30       	mov    0x30(%rsp),%rsi
  103355:	48 8b 7c 24 28       	mov    0x28(%rsp),%rdi
  10335a:	4c 8b 44 24 20       	mov    0x20(%rsp),%r8
  10335f:	4c 89 41 08          	mov    %r8,0x8(%rcx)
  103363:	48 89 79 10          	mov    %rdi,0x10(%rcx)
  103367:	48 89 71 18          	mov    %rsi,0x18(%rcx)
  10336b:	48 89 51 20          	mov    %rdx,0x20(%rcx)
  10336f:	48 8b 54 24 48       	mov    0x48(%rsp),%rdx
  103374:	48 89 11             	mov    %rdx,(%rcx)
  103377:	48 81 c4 88 00 00 00 	add    $0x88,%rsp
  10337e:	c3                   	retq   
  10337f:	cc                   	int3   

0000000000103380 <_ZN6kernel6Screen11write_pixel17hefc03e9c15849d44E>:
  103380:	48 81 ec e8 00 00 00 	sub    $0xe8,%rsp
  103387:	48 89 54 24 28       	mov    %rdx,0x28(%rsp)
  10338c:	48 89 74 24 18       	mov    %rsi,0x18(%rsp)
  103391:	48 89 7c 24 20       	mov    %rdi,0x20(%rsp)
  103396:	66 89 c8             	mov    %cx,%ax
  103399:	66 89 44 24 48       	mov    %ax,0x48(%rsp)
  10339e:	c1 e9 10             	shr    $0x10,%ecx
  1033a1:	88 c8                	mov    %cl,%al
  1033a3:	88 44 24 4a          	mov    %al,0x4a(%rsp)
  1033a7:	8a 44 24 4a          	mov    0x4a(%rsp),%al
  1033ab:	88 44 24 42          	mov    %al,0x42(%rsp)
  1033af:	66 8b 44 24 48       	mov    0x48(%rsp),%ax
  1033b4:	66 89 44 24 40       	mov    %ax,0x40(%rsp)
  1033b9:	48 89 7c 24 50       	mov    %rdi,0x50(%rsp)
  1033be:	48 89 74 24 58       	mov    %rsi,0x58(%rsp)
  1033c3:	48 89 54 24 60       	mov    %rdx,0x60(%rsp)
  1033c8:	48 89 74 24 68       	mov    %rsi,0x68(%rsp)
  1033cd:	48 89 54 24 70       	mov    %rdx,0x70(%rsp)
  1033d2:	48 8b 07             	mov    (%rdi),%rax
  1033d5:	8a 4c 24 42          	mov    0x42(%rsp),%cl
  1033d9:	88 4c 24 7a          	mov    %cl,0x7a(%rsp)
  1033dd:	66 8b 4c 24 40       	mov    0x40(%rsp),%cx
  1033e2:	66 89 4c 24 78       	mov    %cx,0x78(%rsp)
  1033e7:	0f b6 4c 24 7a       	movzbl 0x7a(%rsp),%ecx
  1033ec:	c1 e1 10             	shl    $0x10,%ecx
  1033ef:	0f b7 7c 24 78       	movzwl 0x78(%rsp),%edi
  1033f4:	09 cf                	or     %ecx,%edi
  1033f6:	ff d0                	callq  *%rax
  1033f8:	48 8b 7c 24 20       	mov    0x20(%rsp),%rdi
  1033fd:	48 8b 54 24 28       	mov    0x28(%rsp),%rdx
  103402:	89 44 24 7c          	mov    %eax,0x7c(%rsp)
  103406:	8b 44 24 7c          	mov    0x7c(%rsp),%eax
  10340a:	89 44 24 4c          	mov    %eax,0x4c(%rsp)
  10340e:	48 8b 47 08          	mov    0x8(%rdi),%rax
  103412:	48 89 44 24 30       	mov    %rax,0x30(%rsp)
  103417:	48 8b 47 10          	mov    0x10(%rdi),%rax
  10341b:	48 f7 e2             	mul    %rdx
  10341e:	48 89 44 24 38       	mov    %rax,0x38(%rsp)
  103423:	0f 90 c0             	seto   %al
  103426:	a8 01                	test   $0x1,%al
  103428:	75 1b                	jne    103445 <_ZN6kernel6Screen11write_pixel17hefc03e9c15849d44E+0xc5>
  10342a:	48 8b 4c 24 18       	mov    0x18(%rsp),%rcx
  10342f:	48 8b 44 24 38       	mov    0x38(%rsp),%rax
  103434:	48 01 c8             	add    %rcx,%rax
  103437:	48 89 44 24 10       	mov    %rax,0x10(%rsp)
  10343c:	0f 92 c0             	setb   %al
  10343f:	a8 01                	test   $0x1,%al
  103441:	75 3b                	jne    10347e <_ZN6kernel6Screen11write_pixel17hefc03e9c15849d44E+0xfe>
  103443:	eb 1a                	jmp    10345f <_ZN6kernel6Screen11write_pixel17hefc03e9c15849d44E+0xdf>
  103445:	48 8d 3d 64 cd ff ff 	lea    -0x329c(%rip),%rdi        # 1001b0 <str.0>
  10344c:	48 8d 15 8d e3 00 00 	lea    0xe38d(%rip),%rdx        # 1117e0 <memcmp+0x1090>
  103453:	be 21 00 00 00       	mov    $0x21,%esi
  103458:	e8 d3 1f 00 00       	callq  105430 <_ZN4core9panicking5panic17h4e18ef80ec7677b0E>
  10345d:	0f 0b                	ud2    
  10345f:	48 8b 44 24 10       	mov    0x10(%rsp),%rax
  103464:	b9 04 00 00 00       	mov    $0x4,%ecx
  103469:	48 f7 e1             	mul    %rcx
  10346c:	48 89 44 24 08       	mov    %rax,0x8(%rsp)
  103471:	0f 90 c0             	seto   %al
  103474:	a8 01                	test   $0x1,%al
  103476:	0f 85 d6 00 00 00    	jne    103552 <_ZN6kernel6Screen11write_pixel17hefc03e9c15849d44E+0x1d2>
  10347c:	eb 1a                	jmp    103498 <_ZN6kernel6Screen11write_pixel17hefc03e9c15849d44E+0x118>
  10347e:	48 8d 3d 5b cd ff ff 	lea    -0x32a5(%rip),%rdi        # 1001e0 <str.1>
  103485:	48 8d 15 6c e3 00 00 	lea    0xe36c(%rip),%rdx        # 1117f8 <memcmp+0x10a8>
  10348c:	be 1c 00 00 00       	mov    $0x1c,%esi
  103491:	e8 9a 1f 00 00       	callq  105430 <_ZN4core9panicking5panic17h4e18ef80ec7677b0E>
  103496:	0f 0b                	ud2    
  103498:	48 8b 44 24 08       	mov    0x8(%rsp),%rax
  10349d:	48 8b 7c 24 30       	mov    0x30(%rsp),%rdi
  1034a2:	48 89 bc 24 d8 00 00 	mov    %rdi,0xd8(%rsp)
  1034a9:	00 
  1034aa:	48 89 84 24 e0 00 00 	mov    %rax,0xe0(%rsp)
  1034b1:	00 
  1034b2:	48 01 c7             	add    %rax,%rdi
  1034b5:	48 89 3c 24          	mov    %rdi,(%rsp)
  1034b9:	48 89 bc 24 80 00 00 	mov    %rdi,0x80(%rsp)
  1034c0:	00 
  1034c1:	8a 44 24 4c          	mov    0x4c(%rsp),%al
  1034c5:	48 89 bc 24 a8 00 00 	mov    %rdi,0xa8(%rsp)
  1034cc:	00 
  1034cd:	88 84 24 b7 00 00 00 	mov    %al,0xb7(%rsp)
  1034d4:	0f b6 f0             	movzbl %al,%esi
  1034d7:	e8 94 00 00 00       	callq  103570 <_ZN4core3ptr14write_volatile17hd2bfd6883f1bea9aE>
  1034dc:	48 8b 3c 24          	mov    (%rsp),%rdi
  1034e0:	48 89 bc 24 c8 00 00 	mov    %rdi,0xc8(%rsp)
  1034e7:	00 
  1034e8:	48 c7 84 24 d0 00 00 	movq   $0x1,0xd0(%rsp)
  1034ef:	00 01 00 00 00 
  1034f4:	48 83 c7 01          	add    $0x1,%rdi
  1034f8:	8a 44 24 4d          	mov    0x4d(%rsp),%al
  1034fc:	48 89 bc 24 98 00 00 	mov    %rdi,0x98(%rsp)
  103503:	00 
  103504:	88 84 24 a7 00 00 00 	mov    %al,0xa7(%rsp)
  10350b:	0f b6 f0             	movzbl %al,%esi
  10350e:	e8 5d 00 00 00       	callq  103570 <_ZN4core3ptr14write_volatile17hd2bfd6883f1bea9aE>
  103513:	48 8b 3c 24          	mov    (%rsp),%rdi
  103517:	48 89 bc 24 b8 00 00 	mov    %rdi,0xb8(%rsp)
  10351e:	00 
  10351f:	48 c7 84 24 c0 00 00 	movq   $0x2,0xc0(%rsp)
  103526:	00 02 00 00 00 
  10352b:	48 83 c7 02          	add    $0x2,%rdi
  10352f:	8a 44 24 4e          	mov    0x4e(%rsp),%al
  103533:	48 89 bc 24 88 00 00 	mov    %rdi,0x88(%rsp)
  10353a:	00 
  10353b:	88 84 24 97 00 00 00 	mov    %al,0x97(%rsp)
  103542:	0f b6 f0             	movzbl %al,%esi
  103545:	e8 26 00 00 00       	callq  103570 <_ZN4core3ptr14write_volatile17hd2bfd6883f1bea9aE>
  10354a:	48 81 c4 e8 00 00 00 	add    $0xe8,%rsp
  103551:	c3                   	retq   
  103552:	48 8d 3d 57 cc ff ff 	lea    -0x33a9(%rip),%rdi        # 1001b0 <str.0>
  103559:	48 8d 15 b0 e2 00 00 	lea    0xe2b0(%rip),%rdx        # 111810 <memcmp+0x10c0>
  103560:	be 21 00 00 00       	mov    $0x21,%esi
  103565:	e8 c6 1e 00 00       	callq  105430 <_ZN4core9panicking5panic17h4e18ef80ec7677b0E>
  10356a:	0f 0b                	ud2    
  10356c:	cc                   	int3   
  10356d:	cc                   	int3   
  10356e:	cc                   	int3   
  10356f:	cc                   	int3   

0000000000103570 <_ZN4core3ptr14write_volatile17hd2bfd6883f1bea9aE>:
  103570:	48 83 ec 38          	sub    $0x38,%rsp
  103574:	48 89 7c 24 08       	mov    %rdi,0x8(%rsp)
  103579:	40 88 f0             	mov    %sil,%al
  10357c:	88 44 24 17          	mov    %al,0x17(%rsp)
  103580:	48 89 7c 24 20       	mov    %rdi,0x20(%rsp)
  103585:	88 44 24 2f          	mov    %al,0x2f(%rsp)
  103589:	b0 01                	mov    $0x1,%al
  10358b:	a8 01                	test   $0x1,%al
  10358d:	75 10                	jne    10359f <_ZN4core3ptr14write_volatile17hd2bfd6883f1bea9aE+0x2f>
  10358f:	48 8b 44 24 08       	mov    0x8(%rsp),%rax
  103594:	8a 4c 24 17          	mov    0x17(%rsp),%cl
  103598:	88 08                	mov    %cl,(%rax)
  10359a:	48 83 c4 38          	add    $0x38,%rsp
  10359e:	c3                   	retq   
  10359f:	48 8b 44 24 08       	mov    0x8(%rsp),%rax
  1035a4:	48 89 44 24 18       	mov    %rax,0x18(%rsp)
  1035a9:	48 8b 7c 24 18       	mov    0x18(%rsp),%rdi
  1035ae:	48 89 7c 24 30       	mov    %rdi,0x30(%rsp)
  1035b3:	e8 98 0a 00 00       	callq  104050 <_ZN4core10intrinsics23is_aligned_and_not_null17h9128a242cea00777E>
  1035b8:	34 ff                	xor    $0xff,%al
  1035ba:	a8 01                	test   $0x1,%al
  1035bc:	75 02                	jne    1035c0 <_ZN4core3ptr14write_volatile17hd2bfd6883f1bea9aE+0x50>
  1035be:	eb 13                	jmp    1035d3 <_ZN4core3ptr14write_volatile17hd2bfd6883f1bea9aE+0x63>
  1035c0:	48 8d 3d 35 cc ff ff 	lea    -0x33cb(%rip),%rdi        # 1001fc <str.1+0x1c>
  1035c7:	be 6f 00 00 00       	mov    $0x6f,%esi
  1035cc:	e8 af 1e 00 00       	callq  105480 <_ZN4core9panicking14panic_nounwind17hbf97f84b8fd59176E>
  1035d1:	0f 0b                	ud2    
  1035d3:	eb ba                	jmp    10358f <_ZN4core3ptr14write_volatile17hd2bfd6883f1bea9aE+0x1f>
  1035d5:	cc                   	int3   
  1035d6:	cc                   	int3   
  1035d7:	cc                   	int3   
  1035d8:	cc                   	int3   
  1035d9:	cc                   	int3   
  1035da:	cc                   	int3   
  1035db:	cc                   	int3   
  1035dc:	cc                   	int3   
  1035dd:	cc                   	int3   
  1035de:	cc                   	int3   
  1035df:	cc                   	int3   

00000000001035e0 <_ZN4core3fmt9Arguments6new_v117hd93380ae514c3078E>:
  1035e0:	48 81 ec a8 00 00 00 	sub    $0xa8,%rsp
  1035e7:	4c 89 44 24 10       	mov    %r8,0x10(%rsp)
  1035ec:	48 89 4c 24 18       	mov    %rcx,0x18(%rsp)
  1035f1:	48 89 54 24 20       	mov    %rdx,0x20(%rsp)
  1035f6:	48 89 74 24 28       	mov    %rsi,0x28(%rsp)
  1035fb:	48 89 7c 24 30       	mov    %rdi,0x30(%rsp)
  103600:	48 89 7c 24 38       	mov    %rdi,0x38(%rsp)
  103605:	48 89 b4 24 88 00 00 	mov    %rsi,0x88(%rsp)
  10360c:	00 
  10360d:	48 89 94 24 90 00 00 	mov    %rdx,0x90(%rsp)
  103614:	00 
  103615:	48 89 8c 24 98 00 00 	mov    %rcx,0x98(%rsp)
  10361c:	00 
  10361d:	4c 89 84 24 a0 00 00 	mov    %r8,0xa0(%rsp)
  103624:	00 
  103625:	4c 39 c2             	cmp    %r8,%rdx
  103628:	72 17                	jb     103641 <_ZN4core3fmt9Arguments6new_v117hd93380ae514c3078E+0x61>
  10362a:	48 8b 44 24 10       	mov    0x10(%rsp),%rax
  10362f:	48 83 c0 01          	add    $0x1,%rax
  103633:	48 89 44 24 08       	mov    %rax,0x8(%rsp)
  103638:	0f 92 c0             	setb   %al
  10363b:	a8 01                	test   $0x1,%al
  10363d:	75 21                	jne    103660 <_ZN4core3fmt9Arguments6new_v117hd93380ae514c3078E+0x80>
  10363f:	eb 07                	jmp    103648 <_ZN4core3fmt9Arguments6new_v117hd93380ae514c3078E+0x68>
  103641:	c6 44 24 47 01       	movb   $0x1,0x47(%rsp)
  103646:	eb 32                	jmp    10367a <_ZN4core3fmt9Arguments6new_v117hd93380ae514c3078E+0x9a>
  103648:	48 8b 44 24 20       	mov    0x20(%rsp),%rax
  10364d:	48 8b 4c 24 08       	mov    0x8(%rsp),%rcx
  103652:	48 39 c8             	cmp    %rcx,%rax
  103655:	0f 97 c0             	seta   %al
  103658:	24 01                	and    $0x1,%al
  10365a:	88 44 24 47          	mov    %al,0x47(%rsp)
  10365e:	eb 1a                	jmp    10367a <_ZN4core3fmt9Arguments6new_v117hd93380ae514c3078E+0x9a>
  103660:	48 8d 3d 79 cc ff ff 	lea    -0x3387(%rip),%rdi        # 1002e0 <str.0>
  103667:	48 8d 15 ba e1 00 00 	lea    0xe1ba(%rip),%rdx        # 111828 <memcmp+0x10d8>
  10366e:	be 1c 00 00 00       	mov    $0x1c,%esi
  103673:	e8 b8 1d 00 00       	callq  105430 <_ZN4core9panicking5panic17h4e18ef80ec7677b0E>
  103678:	0f 0b                	ud2    
  10367a:	f6 44 24 47 01       	testb  $0x1,0x47(%rsp)
  10367f:	75 53                	jne    1036d4 <_ZN4core3fmt9Arguments6new_v117hd93380ae514c3078E+0xf4>
  103681:	48 8b 44 24 38       	mov    0x38(%rsp),%rax
  103686:	48 8b 4c 24 30       	mov    0x30(%rsp),%rcx
  10368b:	48 8b 54 24 10       	mov    0x10(%rsp),%rdx
  103690:	48 8b 74 24 18       	mov    0x18(%rsp),%rsi
  103695:	48 8b 7c 24 20       	mov    0x20(%rsp),%rdi
  10369a:	4c 8b 44 24 28       	mov    0x28(%rsp),%r8
  10369f:	48 c7 44 24 78 00 00 	movq   $0x0,0x78(%rsp)
  1036a6:	00 00 
  1036a8:	4c 89 01             	mov    %r8,(%rcx)
  1036ab:	48 89 79 08          	mov    %rdi,0x8(%rcx)
  1036af:	4c 8b 44 24 78       	mov    0x78(%rsp),%r8
  1036b4:	48 8b bc 24 80 00 00 	mov    0x80(%rsp),%rdi
  1036bb:	00 
  1036bc:	4c 89 41 20          	mov    %r8,0x20(%rcx)
  1036c0:	48 89 79 28          	mov    %rdi,0x28(%rcx)
  1036c4:	48 89 71 10          	mov    %rsi,0x10(%rcx)
  1036c8:	48 89 51 18          	mov    %rdx,0x18(%rcx)
  1036cc:	48 81 c4 a8 00 00 00 	add    $0xa8,%rsp
  1036d3:	c3                   	retq   
  1036d4:	48 8d 35 65 e1 00 00 	lea    0xe165(%rip),%rsi        # 111840 <memcmp+0x10f0>
  1036db:	48 8d 7c 24 48       	lea    0x48(%rsp),%rdi
  1036e0:	48 89 3c 24          	mov    %rdi,(%rsp)
  1036e4:	ba 01 00 00 00       	mov    $0x1,%edx
  1036e9:	e8 12 00 00 00       	callq  103700 <_ZN4core3fmt9Arguments9new_const17hf03659150287facaE>
  1036ee:	48 8b 3c 24          	mov    (%rsp),%rdi
  1036f2:	48 8d 35 57 e1 00 00 	lea    0xe157(%rip),%rsi        # 111850 <memcmp+0x1100>
  1036f9:	e8 82 1c 00 00       	callq  105380 <_ZN4core9panicking9panic_fmt17hec0a0bac075b5c3fE>
  1036fe:	0f 0b                	ud2    

0000000000103700 <_ZN4core3fmt9Arguments9new_const17hf03659150287facaE>:
  103700:	48 83 ec 78          	sub    $0x78,%rsp
  103704:	48 89 54 24 08       	mov    %rdx,0x8(%rsp)
  103709:	48 89 74 24 10       	mov    %rsi,0x10(%rsp)
  10370e:	48 89 7c 24 18       	mov    %rdi,0x18(%rsp)
  103713:	48 89 7c 24 20       	mov    %rdi,0x20(%rsp)
  103718:	48 89 74 24 68       	mov    %rsi,0x68(%rsp)
  10371d:	48 89 54 24 70       	mov    %rdx,0x70(%rsp)
  103722:	48 83 fa 01          	cmp    $0x1,%rdx
  103726:	77 4e                	ja     103776 <_ZN4core3fmt9Arguments9new_const17hf03659150287facaE+0x76>
  103728:	48 8b 44 24 20       	mov    0x20(%rsp),%rax
  10372d:	48 8b 4c 24 18       	mov    0x18(%rsp),%rcx
  103732:	48 8b 54 24 08       	mov    0x8(%rsp),%rdx
  103737:	48 8b 74 24 10       	mov    0x10(%rsp),%rsi
  10373c:	48 c7 44 24 58 00 00 	movq   $0x0,0x58(%rsp)
  103743:	00 00 
  103745:	48 89 31             	mov    %rsi,(%rcx)
  103748:	48 89 51 08          	mov    %rdx,0x8(%rcx)
  10374c:	48 8b 74 24 58       	mov    0x58(%rsp),%rsi
  103751:	48 8b 54 24 60       	mov    0x60(%rsp),%rdx
  103756:	48 89 71 20          	mov    %rsi,0x20(%rcx)
  10375a:	48 89 51 28          	mov    %rdx,0x28(%rcx)
  10375e:	48 8d 15 a3 cb ff ff 	lea    -0x345d(%rip),%rdx        # 100308 <str.0+0x28>
  103765:	48 89 51 10          	mov    %rdx,0x10(%rcx)
  103769:	48 c7 41 18 00 00 00 	movq   $0x0,0x18(%rcx)
  103770:	00 
  103771:	48 83 c4 78          	add    $0x78,%rsp
  103775:	c3                   	retq   
  103776:	48 8d 35 c3 e0 00 00 	lea    0xe0c3(%rip),%rsi        # 111840 <memcmp+0x10f0>
  10377d:	48 8d 7c 24 28       	lea    0x28(%rsp),%rdi
  103782:	48 89 3c 24          	mov    %rdi,(%rsp)
  103786:	ba 01 00 00 00       	mov    $0x1,%edx
  10378b:	e8 70 ff ff ff       	callq  103700 <_ZN4core3fmt9Arguments9new_const17hf03659150287facaE>
  103790:	48 8b 3c 24          	mov    (%rsp),%rdi
  103794:	48 8d 35 cd e0 00 00 	lea    0xe0cd(%rip),%rsi        # 111868 <memcmp+0x1118>
  10379b:	e8 e0 1b 00 00       	callq  105380 <_ZN4core9panicking9panic_fmt17hec0a0bac075b5c3fE>
  1037a0:	0f 0b                	ud2    
  1037a2:	cc                   	int3   
  1037a3:	cc                   	int3   
  1037a4:	cc                   	int3   
  1037a5:	cc                   	int3   
  1037a6:	cc                   	int3   
  1037a7:	cc                   	int3   
  1037a8:	cc                   	int3   
  1037a9:	cc                   	int3   
  1037aa:	cc                   	int3   
  1037ab:	cc                   	int3   
  1037ac:	cc                   	int3   
  1037ad:	cc                   	int3   
  1037ae:	cc                   	int3   
  1037af:	cc                   	int3   

00000000001037b0 <_ZN4core6result19Result$LT$T$C$E$GT$6unwrap17h227abe2bfe286cd5E>:
  1037b0:	48 83 ec 18          	sub    $0x18,%rsp
  1037b4:	48 89 14 24          	mov    %rdx,(%rsp)
  1037b8:	40 88 f0             	mov    %sil,%al
  1037bb:	40 88 f9             	mov    %dil,%cl
  1037be:	80 e1 01             	and    $0x1,%cl
  1037c1:	88 4c 24 08          	mov    %cl,0x8(%rsp)
  1037c5:	88 44 24 09          	mov    %al,0x9(%rsp)
  1037c9:	8a 44 24 08          	mov    0x8(%rsp),%al
  1037cd:	24 01                	and    $0x1,%al
  1037cf:	0f b6 c0             	movzbl %al,%eax
  1037d2:	48 83 f8 00          	cmp    $0x0,%rax
  1037d6:	75 0d                	jne    1037e5 <_ZN4core6result19Result$LT$T$C$E$GT$6unwrap17h227abe2bfe286cd5E+0x35>
  1037d8:	8a 44 24 09          	mov    0x9(%rsp),%al
  1037dc:	88 44 24 17          	mov    %al,0x17(%rsp)
  1037e0:	48 83 c4 18          	add    $0x18,%rsp
  1037e4:	c3                   	retq   
  1037e5:	4c 8b 04 24          	mov    (%rsp),%r8
  1037e9:	48 8d 3d 18 cb ff ff 	lea    -0x34e8(%rip),%rdi        # 100308 <str.0+0x28>
  1037f0:	48 8d 0d 89 e0 00 00 	lea    0xe089(%rip),%rcx        # 111880 <memcmp+0x1130>
  1037f7:	be 2b 00 00 00       	mov    $0x2b,%esi
  1037fc:	48 8d 54 24 10       	lea    0x10(%rsp),%rdx
  103801:	e8 5a 83 00 00       	callq  10bb60 <_ZN4core6result13unwrap_failed17h349ba80840e4aa07E>
  103806:	0f 0b                	ud2    
  103808:	cc                   	int3   
  103809:	cc                   	int3   
  10380a:	cc                   	int3   
  10380b:	cc                   	int3   
  10380c:	cc                   	int3   
  10380d:	cc                   	int3   
  10380e:	cc                   	int3   
  10380f:	cc                   	int3   

0000000000103810 <_ZN4core3ptr54drop_in_place$LT$core..num..error..TryFromIntError$GT$17h32a88889ddb02ef4E>:
  103810:	50                   	push   %rax
  103811:	48 89 3c 24          	mov    %rdi,(%rsp)
  103815:	58                   	pop    %rax
  103816:	c3                   	retq   
  103817:	cc                   	int3   
  103818:	cc                   	int3   
  103819:	cc                   	int3   
  10381a:	cc                   	int3   
  10381b:	cc                   	int3   
  10381c:	cc                   	int3   
  10381d:	cc                   	int3   
  10381e:	cc                   	int3   
  10381f:	cc                   	int3   

0000000000103820 <_ZN4core3num20_$LT$impl$u20$u8$GT$21is_utf8_char_boundary17h47183227e4a38da0E>:
  103820:	48 83 ec 01          	sub    $0x1,%rsp
  103824:	40 88 f8             	mov    %dil,%al
  103827:	88 04 24             	mov    %al,(%rsp)
  10382a:	3c c0                	cmp    $0xc0,%al
  10382c:	0f 9d c0             	setge  %al
  10382f:	24 01                	and    $0x1,%al
  103831:	0f b6 c0             	movzbl %al,%eax
  103834:	48 83 c4 01          	add    $0x1,%rsp
  103838:	c3                   	retq   
  103839:	cc                   	int3   
  10383a:	cc                   	int3   
  10383b:	cc                   	int3   
  10383c:	cc                   	int3   
  10383d:	cc                   	int3   
  10383e:	cc                   	int3   
  10383f:	cc                   	int3   

0000000000103840 <_ZN4core3num23_$LT$impl$u20$usize$GT$11checked_mul17hb5f6855dc68435e3E>:
  103840:	48 83 ec 68          	sub    $0x68,%rsp
  103844:	48 89 f8             	mov    %rdi,%rax
  103847:	48 89 44 24 18       	mov    %rax,0x18(%rsp)
  10384c:	48 89 74 24 20       	mov    %rsi,0x20(%rsp)
  103851:	48 89 44 24 48       	mov    %rax,0x48(%rsp)
  103856:	48 89 74 24 50       	mov    %rsi,0x50(%rsp)
  10385b:	48 f7 e6             	mul    %rsi
  10385e:	48 89 44 24 58       	mov    %rax,0x58(%rsp)
  103863:	0f 90 44 24 67       	seto   0x67(%rsp)
  103868:	48 89 44 24 38       	mov    %rax,0x38(%rsp)
  10386d:	0f 90 44 24 40       	seto   0x40(%rsp)
  103872:	48 8b 4c 24 38       	mov    0x38(%rsp),%rcx
  103877:	48 89 0c 24          	mov    %rcx,(%rsp)
  10387b:	8a 44 24 40          	mov    0x40(%rsp),%al
  10387f:	48 89 4c 24 28       	mov    %rcx,0x28(%rsp)
  103884:	88 c1                	mov    %al,%cl
  103886:	80 e1 01             	and    $0x1,%cl
  103889:	88 4c 24 36          	mov    %cl,0x36(%rsp)
  10388d:	24 01                	and    $0x1,%al
  10388f:	88 44 24 37          	mov    %al,0x37(%rsp)
  103893:	f6 44 24 37 01       	testb  $0x1,0x37(%rsp)
  103898:	75 14                	jne    1038ae <_ZN4core3num23_$LT$impl$u20$usize$GT$11checked_mul17hb5f6855dc68435e3E+0x6e>
  10389a:	48 8b 04 24          	mov    (%rsp),%rax
  10389e:	48 89 44 24 10       	mov    %rax,0x10(%rsp)
  1038a3:	48 c7 44 24 08 01 00 	movq   $0x1,0x8(%rsp)
  1038aa:	00 00 
  1038ac:	eb 09                	jmp    1038b7 <_ZN4core3num23_$LT$impl$u20$usize$GT$11checked_mul17hb5f6855dc68435e3E+0x77>
  1038ae:	48 c7 44 24 08 00 00 	movq   $0x0,0x8(%rsp)
  1038b5:	00 00 
  1038b7:	48 8b 44 24 08       	mov    0x8(%rsp),%rax
  1038bc:	48 8b 54 24 10       	mov    0x10(%rsp),%rdx
  1038c1:	48 83 c4 68          	add    $0x68,%rsp
  1038c5:	c3                   	retq   
  1038c6:	cc                   	int3   
  1038c7:	cc                   	int3   
  1038c8:	cc                   	int3   
  1038c9:	cc                   	int3   
  1038ca:	cc                   	int3   
  1038cb:	cc                   	int3   
  1038cc:	cc                   	int3   
  1038cd:	cc                   	int3   
  1038ce:	cc                   	int3   
  1038cf:	cc                   	int3   

00000000001038d0 <_ZN4core3fmt3num12GenericRadix7fmt_int17h77f47e7ea3cedfb3E>:
  1038d0:	48 81 ec d8 01 00 00 	sub    $0x1d8,%rsp
  1038d7:	48 89 54 24 30       	mov    %rdx,0x30(%rsp)
  1038dc:	89 74 24 40          	mov    %esi,0x40(%rsp)
  1038e0:	48 89 bc 24 18 01 00 	mov    %rdi,0x118(%rsp)
  1038e7:	00 
  1038e8:	48 89 94 24 20 01 00 	mov    %rdx,0x120(%rsp)
  1038ef:	00 
  1038f0:	e8 3b 04 00 00       	callq  103d30 <_ZN50_$LT$u32$u20$as$u20$core..fmt..num..DisplayInt$GT$4zero17h44818ed78a2871efE>
  1038f5:	89 44 24 44          	mov    %eax,0x44(%rsp)
  1038f9:	48 8d 44 24 40       	lea    0x40(%rsp),%rax
  1038fe:	48 89 84 24 c8 01 00 	mov    %rax,0x1c8(%rsp)
  103905:	00 
  103906:	48 8d 44 24 44       	lea    0x44(%rsp),%rax
  10390b:	48 89 84 24 d0 01 00 	mov    %rax,0x1d0(%rsp)
  103912:	00 
  103913:	8b 44 24 40          	mov    0x40(%rsp),%eax
  103917:	3b 44 24 44          	cmp    0x44(%rsp),%eax
  10391b:	0f 93 c0             	setae  %al
  10391e:	88 44 24 3b          	mov    %al,0x3b(%rsp)
  103922:	24 01                	and    $0x1,%al
  103924:	88 84 24 2b 01 00 00 	mov    %al,0x12b(%rsp)
  10392b:	8a 84 24 67 01 00 00 	mov    0x167(%rsp),%al
  103932:	48 8d 7c 24 48       	lea    0x48(%rsp),%rdi
  103937:	ba 80 00 00 00       	mov    $0x80,%edx
  10393c:	0f b6 f0             	movzbl %al,%esi
  10393f:	e8 5c c4 00 00       	callq  10fda0 <memset>
  103944:	48 c7 84 24 c8 00 00 	movq   $0x80,0xc8(%rsp)
  10394b:	00 80 00 00 00 
  103950:	bf 10 00 00 00       	mov    $0x10,%edi
  103955:	e8 e6 03 00 00       	callq  103d40 <_ZN50_$LT$u32$u20$as$u20$core..fmt..num..DisplayInt$GT$7from_u817hae5311cb8893c605E>
  10395a:	89 c1                	mov    %eax,%ecx
  10395c:	8a 44 24 3b          	mov    0x3b(%rsp),%al
  103960:	89 4c 24 3c          	mov    %ecx,0x3c(%rsp)
  103964:	89 8c 24 2c 01 00 00 	mov    %ecx,0x12c(%rsp)
  10396b:	a8 01                	test   $0x1,%al
  10396d:	75 37                	jne    1039a6 <_ZN4core3fmt3num12GenericRadix7fmt_int17h77f47e7ea3cedfb3E+0xd6>
  10396f:	48 8d 7c 24 48       	lea    0x48(%rsp),%rdi
  103974:	be 80 00 00 00       	mov    $0x80,%esi
  103979:	e8 f2 83 00 00       	callq  10bd70 <_ZN4core5slice29_$LT$impl$u20$$u5b$T$u5d$$GT$8iter_mut17hcab54c45a280279fE>
  10397e:	48 89 c7             	mov    %rax,%rdi
  103981:	48 89 d6             	mov    %rdx,%rsi
  103984:	e8 57 85 00 00       	callq  10bee0 <_ZN4core4iter6traits8iterator8Iterator3rev17h792918b195c76a1eE>
  103989:	48 89 c7             	mov    %rax,%rdi
  10398c:	48 89 d6             	mov    %rdx,%rsi
  10398f:	e8 ac 1e 00 00       	callq  105840 <_ZN63_$LT$I$u20$as$u20$core..iter..traits..collect..IntoIterator$GT$9into_iter17h9e7d4ba54e22b838E>
  103994:	48 89 84 24 f0 00 00 	mov    %rax,0xf0(%rsp)
  10399b:	00 
  10399c:	48 89 94 24 f8 00 00 	mov    %rdx,0xf8(%rsp)
  1039a3:	00 
  1039a4:	eb 3a                	jmp    1039e0 <_ZN4core3fmt3num12GenericRadix7fmt_int17h77f47e7ea3cedfb3E+0x110>
  1039a6:	48 8d 7c 24 48       	lea    0x48(%rsp),%rdi
  1039ab:	be 80 00 00 00       	mov    $0x80,%esi
  1039b0:	e8 bb 83 00 00       	callq  10bd70 <_ZN4core5slice29_$LT$impl$u20$$u5b$T$u5d$$GT$8iter_mut17hcab54c45a280279fE>
  1039b5:	48 89 c7             	mov    %rax,%rdi
  1039b8:	48 89 d6             	mov    %rdx,%rsi
  1039bb:	e8 20 85 00 00       	callq  10bee0 <_ZN4core4iter6traits8iterator8Iterator3rev17h792918b195c76a1eE>
  1039c0:	48 89 c7             	mov    %rax,%rdi
  1039c3:	48 89 d6             	mov    %rdx,%rsi
  1039c6:	e8 75 1e 00 00       	callq  105840 <_ZN63_$LT$I$u20$as$u20$core..iter..traits..collect..IntoIterator$GT$9into_iter17h9e7d4ba54e22b838E>
  1039cb:	48 89 84 24 d0 00 00 	mov    %rax,0xd0(%rsp)
  1039d2:	00 
  1039d3:	48 89 94 24 d8 00 00 	mov    %rdx,0xd8(%rsp)
  1039da:	00 
  1039db:	e9 fe 01 00 00       	jmpq   103bde <_ZN4core3fmt3num12GenericRadix7fmt_int17h77f47e7ea3cedfb3E+0x30e>
  1039e0:	48 8d bc 24 f0 00 00 	lea    0xf0(%rsp),%rdi
  1039e7:	00 
  1039e8:	e8 43 1e 00 00       	callq  105830 <_ZN98_$LT$core..iter..adapters..rev..Rev$LT$I$GT$$u20$as$u20$core..iter..traits..iterator..Iterator$GT$4next17h73070c631427c1c7E>
  1039ed:	48 89 84 24 00 01 00 	mov    %rax,0x100(%rsp)
  1039f4:	00 
  1039f5:	48 8b 94 24 00 01 00 	mov    0x100(%rsp),%rdx
  1039fc:	00 
  1039fd:	b8 01 00 00 00       	mov    $0x1,%eax
  103a02:	31 c9                	xor    %ecx,%ecx
  103a04:	48 83 fa 00          	cmp    $0x0,%rdx
  103a08:	48 0f 44 c1          	cmove  %rcx,%rax
  103a0c:	48 83 f8 00          	cmp    $0x0,%rax
  103a10:	0f 85 b2 00 00 00    	jne    103ac8 <_ZN4core3fmt3num12GenericRadix7fmt_int17h77f47e7ea3cedfb3E+0x1f8>
  103a16:	48 8b 84 24 c8 00 00 	mov    0xc8(%rsp),%rax
  103a1d:	00 
  103a1e:	48 89 84 24 10 01 00 	mov    %rax,0x110(%rsp)
  103a25:	00 
  103a26:	48 8b b4 24 10 01 00 	mov    0x110(%rsp),%rsi
  103a2d:	00 
  103a2e:	48 8d 7c 24 48       	lea    0x48(%rsp),%rdi
  103a33:	48 8d 15 96 de 00 00 	lea    0xde96(%rip),%rdx        # 1118d0 <memcmp+0x1180>
  103a3a:	e8 61 7b 00 00       	callq  10b5a0 <_ZN4core5array85_$LT$impl$u20$core..ops..index..Index$LT$I$GT$$u20$for$u20$$u5b$T$u3b$$u20$N$u5d$$GT$5index17h616b54275f16d887E>
  103a3f:	48 89 c7             	mov    %rax,%rdi
  103a42:	48 89 d6             	mov    %rdx,%rsi
  103a45:	48 89 bc 24 40 01 00 	mov    %rdi,0x140(%rsp)
  103a4c:	00 
  103a4d:	48 89 b4 24 48 01 00 	mov    %rsi,0x148(%rsp)
  103a54:	00 
  103a55:	48 89 bc 24 a8 01 00 	mov    %rdi,0x1a8(%rsp)
  103a5c:	00 
  103a5d:	48 89 b4 24 b0 01 00 	mov    %rsi,0x1b0(%rsp)
  103a64:	00 
  103a65:	48 89 bc 24 b8 01 00 	mov    %rdi,0x1b8(%rsp)
  103a6c:	00 
  103a6d:	48 89 b4 24 c0 01 00 	mov    %rsi,0x1c0(%rsp)
  103a74:	00 
  103a75:	e8 26 6a 00 00       	callq  10a4a0 <_ZN4core5slice3raw14from_raw_parts17h5a4c48e0db5e3da5E>
  103a7a:	48 89 c7             	mov    %rax,%rdi
  103a7d:	48 89 d6             	mov    %rdx,%rsi
  103a80:	e8 bb 5b 00 00       	callq  109640 <_ZN4core3str8converts19from_utf8_unchecked17haad3881056278f70E>
  103a85:	48 8b 7c 24 30       	mov    0x30(%rsp),%rdi
  103a8a:	49 89 c0             	mov    %rax,%r8
  103a8d:	8a 44 24 3b          	mov    0x3b(%rsp),%al
  103a91:	49 89 d1             	mov    %rdx,%r9
  103a94:	4c 89 84 24 50 01 00 	mov    %r8,0x150(%rsp)
  103a9b:	00 
  103a9c:	4c 89 8c 24 58 01 00 	mov    %r9,0x158(%rsp)
  103aa3:	00 
  103aa4:	0f b6 f0             	movzbl %al,%esi
  103aa7:	83 e6 01             	and    $0x1,%esi
  103aaa:	48 8d 15 20 c9 ff ff 	lea    -0x36e0(%rip),%rdx        # 1003d1 <str.0+0x21>
  103ab1:	b9 02 00 00 00       	mov    $0x2,%ecx
  103ab6:	e8 e5 44 00 00       	callq  107fa0 <_ZN4core3fmt9Formatter12pad_integral17hdb57515702e30363E>
  103abb:	24 01                	and    $0x1,%al
  103abd:	0f b6 c0             	movzbl %al,%eax
  103ac0:	48 81 c4 d8 01 00 00 	add    $0x1d8,%rsp
  103ac7:	c3                   	retq   
  103ac8:	8b 74 24 3c          	mov    0x3c(%rsp),%esi
  103acc:	48 8b 84 24 00 01 00 	mov    0x100(%rsp),%rax
  103ad3:	00 
  103ad4:	48 89 44 24 20       	mov    %rax,0x20(%rsp)
  103ad9:	48 89 84 24 30 01 00 	mov    %rax,0x130(%rsp)
  103ae0:	00 
  103ae1:	8b 44 24 44          	mov    0x44(%rsp),%eax
  103ae5:	89 44 24 1c          	mov    %eax,0x1c(%rsp)
  103ae9:	8b 7c 24 40          	mov    0x40(%rsp),%edi
  103aed:	e8 0e 1c 00 00       	callq  105700 <_ZN45_$LT$u32$u20$as$u20$core..ops..arith..Rem$GT$3rem17h2a20ee2d81e88ffeE>
  103af2:	8b 7c 24 1c          	mov    0x1c(%rsp),%edi
  103af6:	89 c6                	mov    %eax,%esi
  103af8:	e8 73 1b 00 00       	callq  105670 <_ZN45_$LT$u32$u20$as$u20$core..ops..arith..Sub$GT$3sub17h4dd339a361368dd0E>
  103afd:	8b 74 24 3c          	mov    0x3c(%rsp),%esi
  103b01:	89 84 24 0c 01 00 00 	mov    %eax,0x10c(%rsp)
  103b08:	8b 7c 24 40          	mov    0x40(%rsp),%edi
  103b0c:	e8 9f 1b 00 00       	callq  1056b0 <_ZN45_$LT$u32$u20$as$u20$core..ops..arith..Div$GT$3div17hfec528789fc0eac3E>
  103b11:	89 44 24 40          	mov    %eax,0x40(%rsp)
  103b15:	48 8d bc 24 0c 01 00 	lea    0x10c(%rsp),%rdi
  103b1c:	00 
  103b1d:	e8 3e 02 00 00       	callq  103d60 <_ZN50_$LT$u32$u20$as$u20$core..fmt..num..DisplayInt$GT$5to_u817h35093638b34f1cc2E>
  103b22:	0f b6 f8             	movzbl %al,%edi
  103b25:	e8 56 02 00 00       	callq  103d80 <_ZN73_$LT$core..fmt..num..UpperHex$u20$as$u20$core..fmt..num..GenericRadix$GT$5digit17he0c10d81d07f737cE>
  103b2a:	88 c1                	mov    %al,%cl
  103b2c:	48 8b 44 24 20       	mov    0x20(%rsp),%rax
  103b31:	48 89 84 24 78 01 00 	mov    %rax,0x178(%rsp)
  103b38:	00 
  103b39:	88 8c 24 83 01 00 00 	mov    %cl,0x183(%rsp)
  103b40:	88 8c 24 85 01 00 00 	mov    %cl,0x185(%rsp)
  103b47:	88 8c 24 87 01 00 00 	mov    %cl,0x187(%rsp)
  103b4e:	88 8c 24 86 01 00 00 	mov    %cl,0x186(%rsp)
  103b55:	8a 8c 24 86 01 00 00 	mov    0x186(%rsp),%cl
  103b5c:	88 8c 24 84 01 00 00 	mov    %cl,0x184(%rsp)
  103b63:	8a 8c 24 84 01 00 00 	mov    0x184(%rsp),%cl
  103b6a:	88 08                	mov    %cl,(%rax)
  103b6c:	48 89 84 24 88 01 00 	mov    %rax,0x188(%rsp)
  103b73:	00 
  103b74:	48 89 84 24 90 01 00 	mov    %rax,0x190(%rsp)
  103b7b:	00 
  103b7c:	48 8b 84 24 c8 00 00 	mov    0xc8(%rsp),%rax
  103b83:	00 
  103b84:	48 89 c1             	mov    %rax,%rcx
  103b87:	48 83 e9 01          	sub    $0x1,%rcx
  103b8b:	48 89 4c 24 28       	mov    %rcx,0x28(%rsp)
  103b90:	48 83 f8 01          	cmp    $0x1,%rax
  103b94:	0f 92 c0             	setb   %al
  103b97:	a8 01                	test   $0x1,%al
  103b99:	75 29                	jne    103bc4 <_ZN4core3fmt3num12GenericRadix7fmt_int17h77f47e7ea3cedfb3E+0x2f4>
  103b9b:	48 8b 44 24 28       	mov    0x28(%rsp),%rax
  103ba0:	48 89 84 24 c8 00 00 	mov    %rax,0xc8(%rsp)
  103ba7:	00 
  103ba8:	48 8d 7c 24 40       	lea    0x40(%rsp),%rdi
  103bad:	48 8d 74 24 44       	lea    0x44(%rsp),%rsi
  103bb2:	e8 09 17 00 00       	callq  1052c0 <_ZN4core3cmp5impls54_$LT$impl$u20$core..cmp..PartialEq$u20$for$u20$u32$GT$2eq17h2b4ce7943cedff3dE>
  103bb7:	a8 01                	test   $0x1,%al
  103bb9:	0f 85 57 fe ff ff    	jne    103a16 <_ZN4core3fmt3num12GenericRadix7fmt_int17h77f47e7ea3cedfb3E+0x146>
  103bbf:	e9 1c fe ff ff       	jmpq   1039e0 <_ZN4core3fmt3num12GenericRadix7fmt_int17h77f47e7ea3cedfb3E+0x110>
  103bc4:	48 8d 3d e5 c7 ff ff 	lea    -0x381b(%rip),%rdi        # 1003b0 <str.0>
  103bcb:	48 8d 15 ce dc 00 00 	lea    0xdcce(%rip),%rdx        # 1118a0 <memcmp+0x1150>
  103bd2:	be 21 00 00 00       	mov    $0x21,%esi
  103bd7:	e8 54 18 00 00       	callq  105430 <_ZN4core9panicking5panic17h4e18ef80ec7677b0E>
  103bdc:	0f 0b                	ud2    
  103bde:	48 8d bc 24 d0 00 00 	lea    0xd0(%rsp),%rdi
  103be5:	00 
  103be6:	e8 45 1c 00 00       	callq  105830 <_ZN98_$LT$core..iter..adapters..rev..Rev$LT$I$GT$$u20$as$u20$core..iter..traits..iterator..Iterator$GT$4next17h73070c631427c1c7E>
  103beb:	48 89 84 24 e0 00 00 	mov    %rax,0xe0(%rsp)
  103bf2:	00 
  103bf3:	48 8b 94 24 e0 00 00 	mov    0xe0(%rsp),%rdx
  103bfa:	00 
  103bfb:	b8 01 00 00 00       	mov    $0x1,%eax
  103c00:	31 c9                	xor    %ecx,%ecx
  103c02:	48 83 fa 00          	cmp    $0x0,%rdx
  103c06:	48 0f 44 c1          	cmove  %rcx,%rax
  103c0a:	48 83 f8 00          	cmp    $0x0,%rax
  103c0e:	0f 84 02 fe ff ff    	je     103a16 <_ZN4core3fmt3num12GenericRadix7fmt_int17h77f47e7ea3cedfb3E+0x146>
  103c14:	8b 74 24 3c          	mov    0x3c(%rsp),%esi
  103c18:	48 8b 84 24 e0 00 00 	mov    0xe0(%rsp),%rax
  103c1f:	00 
  103c20:	48 89 44 24 08       	mov    %rax,0x8(%rsp)
  103c25:	48 89 84 24 38 01 00 	mov    %rax,0x138(%rsp)
  103c2c:	00 
  103c2d:	8b 7c 24 40          	mov    0x40(%rsp),%edi
  103c31:	e8 ca 1a 00 00       	callq  105700 <_ZN45_$LT$u32$u20$as$u20$core..ops..arith..Rem$GT$3rem17h2a20ee2d81e88ffeE>
  103c36:	8b 74 24 3c          	mov    0x3c(%rsp),%esi
  103c3a:	89 84 24 ec 00 00 00 	mov    %eax,0xec(%rsp)
  103c41:	8b 7c 24 40          	mov    0x40(%rsp),%edi
  103c45:	e8 66 1a 00 00       	callq  1056b0 <_ZN45_$LT$u32$u20$as$u20$core..ops..arith..Div$GT$3div17hfec528789fc0eac3E>
  103c4a:	89 44 24 40          	mov    %eax,0x40(%rsp)
  103c4e:	48 8d bc 24 ec 00 00 	lea    0xec(%rsp),%rdi
  103c55:	00 
  103c56:	e8 05 01 00 00       	callq  103d60 <_ZN50_$LT$u32$u20$as$u20$core..fmt..num..DisplayInt$GT$5to_u817h35093638b34f1cc2E>
  103c5b:	0f b6 f8             	movzbl %al,%edi
  103c5e:	e8 1d 01 00 00       	callq  103d80 <_ZN73_$LT$core..fmt..num..UpperHex$u20$as$u20$core..fmt..num..GenericRadix$GT$5digit17he0c10d81d07f737cE>
  103c63:	88 c1                	mov    %al,%cl
  103c65:	48 8b 44 24 08       	mov    0x8(%rsp),%rax
  103c6a:	48 89 84 24 68 01 00 	mov    %rax,0x168(%rsp)
  103c71:	00 
  103c72:	88 8c 24 73 01 00 00 	mov    %cl,0x173(%rsp)
  103c79:	88 8c 24 75 01 00 00 	mov    %cl,0x175(%rsp)
  103c80:	88 8c 24 77 01 00 00 	mov    %cl,0x177(%rsp)
  103c87:	88 8c 24 76 01 00 00 	mov    %cl,0x176(%rsp)
  103c8e:	8a 8c 24 76 01 00 00 	mov    0x176(%rsp),%cl
  103c95:	88 8c 24 74 01 00 00 	mov    %cl,0x174(%rsp)
  103c9c:	8a 8c 24 74 01 00 00 	mov    0x174(%rsp),%cl
  103ca3:	88 08                	mov    %cl,(%rax)
  103ca5:	48 89 84 24 98 01 00 	mov    %rax,0x198(%rsp)
  103cac:	00 
  103cad:	48 89 84 24 a0 01 00 	mov    %rax,0x1a0(%rsp)
  103cb4:	00 
  103cb5:	48 8b 84 24 c8 00 00 	mov    0xc8(%rsp),%rax
  103cbc:	00 
  103cbd:	48 89 c1             	mov    %rax,%rcx
  103cc0:	48 83 e9 01          	sub    $0x1,%rcx
  103cc4:	48 89 4c 24 10       	mov    %rcx,0x10(%rsp)
  103cc9:	48 83 f8 01          	cmp    $0x1,%rax
  103ccd:	0f 92 c0             	setb   %al
  103cd0:	a8 01                	test   $0x1,%al
  103cd2:	75 29                	jne    103cfd <_ZN4core3fmt3num12GenericRadix7fmt_int17h77f47e7ea3cedfb3E+0x42d>
  103cd4:	48 8b 44 24 10       	mov    0x10(%rsp),%rax
  103cd9:	48 89 84 24 c8 00 00 	mov    %rax,0xc8(%rsp)
  103ce0:	00 
  103ce1:	48 8d 7c 24 40       	lea    0x40(%rsp),%rdi
  103ce6:	48 8d 74 24 44       	lea    0x44(%rsp),%rsi
  103ceb:	e8 d0 15 00 00       	callq  1052c0 <_ZN4core3cmp5impls54_$LT$impl$u20$core..cmp..PartialEq$u20$for$u20$u32$GT$2eq17h2b4ce7943cedff3dE>
  103cf0:	a8 01                	test   $0x1,%al
  103cf2:	0f 85 1e fd ff ff    	jne    103a16 <_ZN4core3fmt3num12GenericRadix7fmt_int17h77f47e7ea3cedfb3E+0x146>
  103cf8:	e9 e1 fe ff ff       	jmpq   103bde <_ZN4core3fmt3num12GenericRadix7fmt_int17h77f47e7ea3cedfb3E+0x30e>
  103cfd:	48 8d 3d ac c6 ff ff 	lea    -0x3954(%rip),%rdi        # 1003b0 <str.0>
  103d04:	48 8d 15 ad db 00 00 	lea    0xdbad(%rip),%rdx        # 1118b8 <memcmp+0x1168>
  103d0b:	be 21 00 00 00       	mov    $0x21,%esi
  103d10:	e8 1b 17 00 00       	callq  105430 <_ZN4core9panicking5panic17h4e18ef80ec7677b0E>
  103d15:	0f 0b                	ud2    
  103d17:	cc                   	int3   
  103d18:	cc                   	int3   
  103d19:	cc                   	int3   
  103d1a:	cc                   	int3   
  103d1b:	cc                   	int3   
  103d1c:	cc                   	int3   
  103d1d:	cc                   	int3   
  103d1e:	cc                   	int3   
  103d1f:	cc                   	int3   

0000000000103d20 <_ZN49_$LT$u8$u20$as$u20$core..fmt..num..DisplayInt$GT$6to_u6417hde041c514d4affc0E>:
  103d20:	50                   	push   %rax
  103d21:	48 89 3c 24          	mov    %rdi,(%rsp)
  103d25:	0f b6 07             	movzbl (%rdi),%eax
  103d28:	59                   	pop    %rcx
  103d29:	c3                   	retq   
  103d2a:	cc                   	int3   
  103d2b:	cc                   	int3   
  103d2c:	cc                   	int3   
  103d2d:	cc                   	int3   
  103d2e:	cc                   	int3   
  103d2f:	cc                   	int3   

0000000000103d30 <_ZN50_$LT$u32$u20$as$u20$core..fmt..num..DisplayInt$GT$4zero17h44818ed78a2871efE>:
  103d30:	31 c0                	xor    %eax,%eax
  103d32:	c3                   	retq   
  103d33:	cc                   	int3   
  103d34:	cc                   	int3   
  103d35:	cc                   	int3   
  103d36:	cc                   	int3   
  103d37:	cc                   	int3   
  103d38:	cc                   	int3   
  103d39:	cc                   	int3   
  103d3a:	cc                   	int3   
  103d3b:	cc                   	int3   
  103d3c:	cc                   	int3   
  103d3d:	cc                   	int3   
  103d3e:	cc                   	int3   
  103d3f:	cc                   	int3   

0000000000103d40 <_ZN50_$LT$u32$u20$as$u20$core..fmt..num..DisplayInt$GT$7from_u817hae5311cb8893c605E>:
  103d40:	48 83 ec 01          	sub    $0x1,%rsp
  103d44:	40 88 f8             	mov    %dil,%al
  103d47:	88 04 24             	mov    %al,(%rsp)
  103d4a:	0f b6 c0             	movzbl %al,%eax
  103d4d:	48 83 c4 01          	add    $0x1,%rsp
  103d51:	c3                   	retq   
  103d52:	cc                   	int3   
  103d53:	cc                   	int3   
  103d54:	cc                   	int3   
  103d55:	cc                   	int3   
  103d56:	cc                   	int3   
  103d57:	cc                   	int3   
  103d58:	cc                   	int3   
  103d59:	cc                   	int3   
  103d5a:	cc                   	int3   
  103d5b:	cc                   	int3   
  103d5c:	cc                   	int3   
  103d5d:	cc                   	int3   
  103d5e:	cc                   	int3   
  103d5f:	cc                   	int3   

0000000000103d60 <_ZN50_$LT$u32$u20$as$u20$core..fmt..num..DisplayInt$GT$5to_u817h35093638b34f1cc2E>:
  103d60:	50                   	push   %rax
  103d61:	48 89 3c 24          	mov    %rdi,(%rsp)
  103d65:	8b 07                	mov    (%rdi),%eax
  103d67:	59                   	pop    %rcx
  103d68:	c3                   	retq   
  103d69:	cc                   	int3   
  103d6a:	cc                   	int3   
  103d6b:	cc                   	int3   
  103d6c:	cc                   	int3   
  103d6d:	cc                   	int3   
  103d6e:	cc                   	int3   
  103d6f:	cc                   	int3   

0000000000103d70 <_ZN52_$LT$usize$u20$as$u20$core..fmt..num..DisplayInt$GT$6to_u6417hee796eb647b5af3cE>:
  103d70:	50                   	push   %rax
  103d71:	48 89 3c 24          	mov    %rdi,(%rsp)
  103d75:	48 8b 07             	mov    (%rdi),%rax
  103d78:	59                   	pop    %rcx
  103d79:	c3                   	retq   
  103d7a:	cc                   	int3   
  103d7b:	cc                   	int3   
  103d7c:	cc                   	int3   
  103d7d:	cc                   	int3   
  103d7e:	cc                   	int3   
  103d7f:	cc                   	int3   

0000000000103d80 <_ZN73_$LT$core..fmt..num..UpperHex$u20$as$u20$core..fmt..num..GenericRadix$GT$5digit17he0c10d81d07f737cE>:
  103d80:	48 81 ec c8 00 00 00 	sub    $0xc8,%rsp
  103d87:	40 88 f9             	mov    %dil,%cl
  103d8a:	88 4c 24 1d          	mov    %cl,0x1d(%rsp)
  103d8e:	88 4c 24 77          	mov    %cl,0x77(%rsp)
  103d92:	31 c0                	xor    %eax,%eax
  103d94:	38 c8                	cmp    %cl,%al
  103d96:	76 10                	jbe    103da8 <_ZN73_$LT$core..fmt..num..UpperHex$u20$as$u20$core..fmt..num..GenericRadix$GT$5digit17he0c10d81d07f737cE+0x28>
  103d98:	8a 4c 24 1d          	mov    0x1d(%rsp),%cl
  103d9c:	b0 0a                	mov    $0xa,%al
  103d9e:	38 c8                	cmp    %cl,%al
  103da0:	0f 86 f7 00 00 00    	jbe    103e9d <_ZN73_$LT$core..fmt..num..UpperHex$u20$as$u20$core..fmt..num..GenericRadix$GT$5digit17he0c10d81d07f737cE+0x11d>
  103da6:	eb 22                	jmp    103dca <_ZN73_$LT$core..fmt..num..UpperHex$u20$as$u20$core..fmt..num..GenericRadix$GT$5digit17he0c10d81d07f737cE+0x4a>
  103da8:	8a 44 24 1d          	mov    0x1d(%rsp),%al
  103dac:	3c 09                	cmp    $0x9,%al
  103dae:	77 e8                	ja     103d98 <_ZN73_$LT$core..fmt..num..UpperHex$u20$as$u20$core..fmt..num..GenericRadix$GT$5digit17he0c10d81d07f737cE+0x18>
  103db0:	8a 44 24 1d          	mov    0x1d(%rsp),%al
  103db4:	04 30                	add    $0x30,%al
  103db6:	88 44 24 1c          	mov    %al,0x1c(%rsp)
  103dba:	0f 92 c0             	setb   %al
  103dbd:	a8 01                	test   $0x1,%al
  103dbf:	0f 85 61 01 00 00    	jne    103f26 <_ZN73_$LT$core..fmt..num..UpperHex$u20$as$u20$core..fmt..num..GenericRadix$GT$5digit17he0c10d81d07f737cE+0x1a6>
  103dc5:	e9 52 01 00 00       	jmpq   103f1c <_ZN73_$LT$core..fmt..num..UpperHex$u20$as$u20$core..fmt..num..GenericRadix$GT$5digit17he0c10d81d07f737cE+0x19c>
  103dca:	8a 44 24 1d          	mov    0x1d(%rsp),%al
  103dce:	88 44 24 1f          	mov    %al,0x1f(%rsp)
  103dd2:	48 8d 0d 01 c7 ff ff 	lea    -0x38ff(%rip),%rcx        # 1004da <str.3+0x3a>
  103dd9:	48 89 8c 24 a0 00 00 	mov    %rcx,0xa0(%rsp)
  103de0:	00 
  103de1:	48 89 8c 24 b8 00 00 	mov    %rcx,0xb8(%rsp)
  103de8:	00 
  103de9:	48 8b 05 a8 e7 00 00 	mov    0xe7a8(%rip),%rax        # 112598 <_ZN4core3fmt2rt12USIZE_MARKER17h1b31419084dfd5e3E+0xba0>
  103df0:	48 89 84 24 c0 00 00 	mov    %rax,0xc0(%rsp)
  103df7:	00 
  103df8:	48 89 8c 24 a8 00 00 	mov    %rcx,0xa8(%rsp)
  103dff:	00 
  103e00:	48 89 84 24 b0 00 00 	mov    %rax,0xb0(%rsp)
  103e07:	00 
  103e08:	48 8b b4 24 a8 00 00 	mov    0xa8(%rsp),%rsi
  103e0f:	00 
  103e10:	48 8b 94 24 b0 00 00 	mov    0xb0(%rsp),%rdx
  103e17:	00 
  103e18:	48 8d 4c 24 1f       	lea    0x1f(%rsp),%rcx
  103e1d:	48 89 4c 24 78       	mov    %rcx,0x78(%rsp)
  103e22:	48 89 8c 24 90 00 00 	mov    %rcx,0x90(%rsp)
  103e29:	00 
  103e2a:	48 89 84 24 98 00 00 	mov    %rax,0x98(%rsp)
  103e31:	00 
  103e32:	48 89 8c 24 80 00 00 	mov    %rcx,0x80(%rsp)
  103e39:	00 
  103e3a:	48 89 84 24 88 00 00 	mov    %rax,0x88(%rsp)
  103e41:	00 
  103e42:	48 8b 8c 24 80 00 00 	mov    0x80(%rsp),%rcx
  103e49:	00 
  103e4a:	48 8b 84 24 88 00 00 	mov    0x88(%rsp),%rax
  103e51:	00 
  103e52:	48 89 74 24 50       	mov    %rsi,0x50(%rsp)
  103e57:	48 89 54 24 58       	mov    %rdx,0x58(%rsp)
  103e5c:	48 89 4c 24 60       	mov    %rcx,0x60(%rsp)
  103e61:	48 89 44 24 68       	mov    %rax,0x68(%rsp)
  103e66:	48 8d 35 83 da 00 00 	lea    0xda83(%rip),%rsi        # 1118f0 <_ZN4core3fmt3num14DEC_DIGITS_LUT17h57948bb6cc754759E+0x8>
  103e6d:	48 8d 7c 24 20       	lea    0x20(%rsp),%rdi
  103e72:	48 89 7c 24 10       	mov    %rdi,0x10(%rsp)
  103e77:	48 8d 4c 24 50       	lea    0x50(%rsp),%rcx
  103e7c:	41 b8 02 00 00 00    	mov    $0x2,%r8d
  103e82:	4c 89 c2             	mov    %r8,%rdx
  103e85:	e8 96 36 00 00       	callq  107520 <_ZN4core3fmt9Arguments6new_v117hf5fe601b2a956546E>
  103e8a:	48 8b 7c 24 10       	mov    0x10(%rsp),%rdi
  103e8f:	48 8d 35 7a da 00 00 	lea    0xda7a(%rip),%rsi        # 111910 <_ZN4core3fmt3num14DEC_DIGITS_LUT17h57948bb6cc754759E+0x28>
  103e96:	e8 e5 14 00 00       	callq  105380 <_ZN4core9panicking9panic_fmt17hec0a0bac075b5c3fE>
  103e9b:	0f 0b                	ud2    
  103e9d:	8a 44 24 1d          	mov    0x1d(%rsp),%al
  103ea1:	3c 0f                	cmp    $0xf,%al
  103ea3:	0f 87 21 ff ff ff    	ja     103dca <_ZN73_$LT$core..fmt..num..UpperHex$u20$as$u20$core..fmt..num..GenericRadix$GT$5digit17he0c10d81d07f737cE+0x4a>
  103ea9:	8a 44 24 1d          	mov    0x1d(%rsp),%al
  103ead:	88 c1                	mov    %al,%cl
  103eaf:	80 e9 0a             	sub    $0xa,%cl
  103eb2:	88 4c 24 0f          	mov    %cl,0xf(%rsp)
  103eb6:	3c 0a                	cmp    $0xa,%al
  103eb8:	0f 92 c0             	setb   %al
  103ebb:	a8 01                	test   $0x1,%al
  103ebd:	75 13                	jne    103ed2 <_ZN73_$LT$core..fmt..num..UpperHex$u20$as$u20$core..fmt..num..GenericRadix$GT$5digit17he0c10d81d07f737cE+0x152>
  103ebf:	8a 44 24 0f          	mov    0xf(%rsp),%al
  103ec3:	04 41                	add    $0x41,%al
  103ec5:	88 44 24 0e          	mov    %al,0xe(%rsp)
  103ec9:	0f 92 c0             	setb   %al
  103ecc:	a8 01                	test   $0x1,%al
  103ece:	75 26                	jne    103ef6 <_ZN73_$LT$core..fmt..num..UpperHex$u20$as$u20$core..fmt..num..GenericRadix$GT$5digit17he0c10d81d07f737cE+0x176>
  103ed0:	eb 1a                	jmp    103eec <_ZN73_$LT$core..fmt..num..UpperHex$u20$as$u20$core..fmt..num..GenericRadix$GT$5digit17he0c10d81d07f737cE+0x16c>
  103ed2:	48 8d 3d d7 c4 ff ff 	lea    -0x3b29(%rip),%rdi        # 1003b0 <str.0>
  103ed9:	48 8d 15 48 da 00 00 	lea    0xda48(%rip),%rdx        # 111928 <_ZN4core3fmt3num14DEC_DIGITS_LUT17h57948bb6cc754759E+0x40>
  103ee0:	be 21 00 00 00       	mov    $0x21,%esi
  103ee5:	e8 46 15 00 00       	callq  105430 <_ZN4core9panicking5panic17h4e18ef80ec7677b0E>
  103eea:	0f 0b                	ud2    
  103eec:	8a 44 24 0e          	mov    0xe(%rsp),%al
  103ef0:	88 44 24 1e          	mov    %al,0x1e(%rsp)
  103ef4:	eb 1a                	jmp    103f10 <_ZN73_$LT$core..fmt..num..UpperHex$u20$as$u20$core..fmt..num..GenericRadix$GT$5digit17he0c10d81d07f737cE+0x190>
  103ef6:	48 8d 3d a3 c5 ff ff 	lea    -0x3a5d(%rip),%rdi        # 1004a0 <str.3>
  103efd:	48 8d 15 3c da 00 00 	lea    0xda3c(%rip),%rdx        # 111940 <_ZN4core3fmt3num14DEC_DIGITS_LUT17h57948bb6cc754759E+0x58>
  103f04:	be 1c 00 00 00       	mov    $0x1c,%esi
  103f09:	e8 22 15 00 00       	callq  105430 <_ZN4core9panicking5panic17h4e18ef80ec7677b0E>
  103f0e:	0f 0b                	ud2    
  103f10:	8a 44 24 1e          	mov    0x1e(%rsp),%al
  103f14:	48 81 c4 c8 00 00 00 	add    $0xc8,%rsp
  103f1b:	c3                   	retq   
  103f1c:	8a 44 24 1c          	mov    0x1c(%rsp),%al
  103f20:	88 44 24 1e          	mov    %al,0x1e(%rsp)
  103f24:	eb ea                	jmp    103f10 <_ZN73_$LT$core..fmt..num..UpperHex$u20$as$u20$core..fmt..num..GenericRadix$GT$5digit17he0c10d81d07f737cE+0x190>
  103f26:	48 8d 3d 73 c5 ff ff 	lea    -0x3a8d(%rip),%rdi        # 1004a0 <str.3>
  103f2d:	48 8d 15 24 da 00 00 	lea    0xda24(%rip),%rdx        # 111958 <_ZN4core3fmt3num14DEC_DIGITS_LUT17h57948bb6cc754759E+0x70>
  103f34:	be 1c 00 00 00       	mov    $0x1c,%esi
  103f39:	e8 f2 14 00 00       	callq  105430 <_ZN4core9panicking5panic17h4e18ef80ec7677b0E>
  103f3e:	0f 0b                	ud2    

0000000000103f40 <_ZN4core3fmt3num53_$LT$impl$u20$core..fmt..UpperHex$u20$for$u20$u32$GT$3fmt17h5f8ba2d30499fdbeE>:
  103f40:	48 83 ec 18          	sub    $0x18,%rsp
  103f44:	48 89 f2             	mov    %rsi,%rdx
  103f47:	48 89 7c 24 08       	mov    %rdi,0x8(%rsp)
  103f4c:	48 89 54 24 10       	mov    %rdx,0x10(%rsp)
  103f51:	8b 37                	mov    (%rdi),%esi
  103f53:	48 8d 3d 62 c5 ff ff 	lea    -0x3a9e(%rip),%rdi        # 1004bc <str.3+0x1c>
  103f5a:	e8 71 f9 ff ff       	callq  1038d0 <_ZN4core3fmt3num12GenericRadix7fmt_int17h77f47e7ea3cedfb3E>
  103f5f:	24 01                	and    $0x1,%al
  103f61:	0f b6 c0             	movzbl %al,%eax
  103f64:	48 83 c4 18          	add    $0x18,%rsp
  103f68:	c3                   	retq   
  103f69:	cc                   	int3   
  103f6a:	cc                   	int3   
  103f6b:	cc                   	int3   
  103f6c:	cc                   	int3   
  103f6d:	cc                   	int3   
  103f6e:	cc                   	int3   
  103f6f:	cc                   	int3   

0000000000103f70 <_ZN4core4hint21unreachable_unchecked17he0154c08f1602db1E>:
  103f70:	50                   	push   %rax
  103f71:	b0 01                	mov    $0x1,%al
  103f73:	a8 01                	test   $0x1,%al
  103f75:	75 04                	jne    103f7b <_ZN4core4hint21unreachable_unchecked17he0154c08f1602db1E+0xb>
  103f77:	eb 00                	jmp    103f79 <_ZN4core4hint21unreachable_unchecked17he0154c08f1602db1E+0x9>
  103f79:	0f 0b                	ud2    
  103f7b:	48 8d 3d 91 c8 ff ff 	lea    -0x376f(%rip),%rdi        # 100813 <str.2+0x2e3>
  103f82:	be 52 00 00 00       	mov    $0x52,%esi
  103f87:	e8 f4 14 00 00       	callq  105480 <_ZN4core9panicking14panic_nounwind17hbf97f84b8fd59176E>
  103f8c:	0f 0b                	ud2    
  103f8e:	cc                   	int3   
  103f8f:	cc                   	int3   

0000000000103f90 <_ZN4core10intrinsics23is_aligned_and_not_null17h3a28c5c5e3d8cd03E>:
  103f90:	48 83 ec 18          	sub    $0x18,%rsp
  103f94:	48 89 3c 24          	mov    %rdi,(%rsp)
  103f98:	48 89 7c 24 10       	mov    %rdi,0x10(%rsp)
  103f9d:	e8 2e 03 00 00       	callq  1042d0 <_ZN4core3ptr9const_ptr33_$LT$impl$u20$$BP$const$u20$T$GT$7is_null17hc45a5de02ee055e0E>
  103fa2:	34 ff                	xor    $0xff,%al
  103fa4:	a8 01                	test   $0x1,%al
  103fa6:	75 07                	jne    103faf <_ZN4core10intrinsics23is_aligned_and_not_null17h3a28c5c5e3d8cd03E+0x1f>
  103fa8:	c6 44 24 0f 00       	movb   $0x0,0xf(%rsp)
  103fad:	eb 0f                	jmp    103fbe <_ZN4core10intrinsics23is_aligned_and_not_null17h3a28c5c5e3d8cd03E+0x2e>
  103faf:	48 8b 3c 24          	mov    (%rsp),%rdi
  103fb3:	e8 a8 03 00 00       	callq  104360 <_ZN4core3ptr9const_ptr33_$LT$impl$u20$$BP$const$u20$T$GT$10is_aligned17h93e301a0dbe40cffE>
  103fb8:	24 01                	and    $0x1,%al
  103fba:	88 44 24 0f          	mov    %al,0xf(%rsp)
  103fbe:	8a 44 24 0f          	mov    0xf(%rsp),%al
  103fc2:	24 01                	and    $0x1,%al
  103fc4:	0f b6 c0             	movzbl %al,%eax
  103fc7:	48 83 c4 18          	add    $0x18,%rsp
  103fcb:	c3                   	retq   
  103fcc:	cc                   	int3   
  103fcd:	cc                   	int3   
  103fce:	cc                   	int3   
  103fcf:	cc                   	int3   

0000000000103fd0 <_ZN4core10intrinsics23is_aligned_and_not_null17h422372c65f5e568fE>:
  103fd0:	48 83 ec 18          	sub    $0x18,%rsp
  103fd4:	48 89 3c 24          	mov    %rdi,(%rsp)
  103fd8:	48 89 7c 24 10       	mov    %rdi,0x10(%rsp)
  103fdd:	e8 8e 6d 00 00       	callq  10ad70 <_ZN4core3ptr9const_ptr33_$LT$impl$u20$$BP$const$u20$T$GT$7is_null17h7a7e980da443e981E>
  103fe2:	34 ff                	xor    $0xff,%al
  103fe4:	a8 01                	test   $0x1,%al
  103fe6:	75 07                	jne    103fef <_ZN4core10intrinsics23is_aligned_and_not_null17h422372c65f5e568fE+0x1f>
  103fe8:	c6 44 24 0f 00       	movb   $0x0,0xf(%rsp)
  103fed:	eb 0f                	jmp    103ffe <_ZN4core10intrinsics23is_aligned_and_not_null17h422372c65f5e568fE+0x2e>
  103fef:	48 8b 3c 24          	mov    (%rsp),%rdi
  103ff3:	e8 c8 6f 00 00       	callq  10afc0 <_ZN4core3ptr9const_ptr33_$LT$impl$u20$$BP$const$u20$T$GT$10is_aligned17h500858e2205cc81fE>
  103ff8:	24 01                	and    $0x1,%al
  103ffa:	88 44 24 0f          	mov    %al,0xf(%rsp)
  103ffe:	8a 44 24 0f          	mov    0xf(%rsp),%al
  104002:	24 01                	and    $0x1,%al
  104004:	0f b6 c0             	movzbl %al,%eax
  104007:	48 83 c4 18          	add    $0x18,%rsp
  10400b:	c3                   	retq   
  10400c:	cc                   	int3   
  10400d:	cc                   	int3   
  10400e:	cc                   	int3   
  10400f:	cc                   	int3   

0000000000104010 <_ZN4core10intrinsics23is_aligned_and_not_null17h7cdedc7f2f5723f0E>:
  104010:	48 83 ec 18          	sub    $0x18,%rsp
  104014:	48 89 3c 24          	mov    %rdi,(%rsp)
  104018:	48 89 7c 24 10       	mov    %rdi,0x10(%rsp)
  10401d:	e8 ee 6c 00 00       	callq  10ad10 <_ZN4core3ptr9const_ptr33_$LT$impl$u20$$BP$const$u20$T$GT$7is_null17h54f597440576eb2eE>
  104022:	34 ff                	xor    $0xff,%al
  104024:	a8 01                	test   $0x1,%al
  104026:	75 07                	jne    10402f <_ZN4core10intrinsics23is_aligned_and_not_null17h7cdedc7f2f5723f0E+0x1f>
  104028:	c6 44 24 0f 00       	movb   $0x0,0xf(%rsp)
  10402d:	eb 0f                	jmp    10403e <_ZN4core10intrinsics23is_aligned_and_not_null17h7cdedc7f2f5723f0E+0x2e>
  10402f:	48 8b 3c 24          	mov    (%rsp),%rdi
  104033:	e8 a8 6f 00 00       	callq  10afe0 <_ZN4core3ptr9const_ptr33_$LT$impl$u20$$BP$const$u20$T$GT$10is_aligned17hc2d86f71c69810abE>
  104038:	24 01                	and    $0x1,%al
  10403a:	88 44 24 0f          	mov    %al,0xf(%rsp)
  10403e:	8a 44 24 0f          	mov    0xf(%rsp),%al
  104042:	24 01                	and    $0x1,%al
  104044:	0f b6 c0             	movzbl %al,%eax
  104047:	48 83 c4 18          	add    $0x18,%rsp
  10404b:	c3                   	retq   
  10404c:	cc                   	int3   
  10404d:	cc                   	int3   
  10404e:	cc                   	int3   
  10404f:	cc                   	int3   

0000000000104050 <_ZN4core10intrinsics23is_aligned_and_not_null17h9128a242cea00777E>:
  104050:	48 83 ec 18          	sub    $0x18,%rsp
  104054:	48 89 3c 24          	mov    %rdi,(%rsp)
  104058:	48 89 7c 24 10       	mov    %rdi,0x10(%rsp)
  10405d:	e8 3e 6d 00 00       	callq  10ada0 <_ZN4core3ptr9const_ptr33_$LT$impl$u20$$BP$const$u20$T$GT$7is_null17hcc6849e03d468a61E>
  104062:	34 ff                	xor    $0xff,%al
  104064:	a8 01                	test   $0x1,%al
  104066:	75 07                	jne    10406f <_ZN4core10intrinsics23is_aligned_and_not_null17h9128a242cea00777E+0x1f>
  104068:	c6 44 24 0f 00       	movb   $0x0,0xf(%rsp)
  10406d:	eb 0f                	jmp    10407e <_ZN4core10intrinsics23is_aligned_and_not_null17h9128a242cea00777E+0x2e>
  10406f:	48 8b 3c 24          	mov    (%rsp),%rdi
  104073:	e8 88 6f 00 00       	callq  10b000 <_ZN4core3ptr9const_ptr33_$LT$impl$u20$$BP$const$u20$T$GT$10is_aligned17hc718acdac8228f89E>
  104078:	24 01                	and    $0x1,%al
  10407a:	88 44 24 0f          	mov    %al,0xf(%rsp)
  10407e:	8a 44 24 0f          	mov    0xf(%rsp),%al
  104082:	24 01                	and    $0x1,%al
  104084:	0f b6 c0             	movzbl %al,%eax
  104087:	48 83 c4 18          	add    $0x18,%rsp
  10408b:	c3                   	retq   
  10408c:	cc                   	int3   
  10408d:	cc                   	int3   
  10408e:	cc                   	int3   
  10408f:	cc                   	int3   

0000000000104090 <_ZN4core10intrinsics23is_aligned_and_not_null17hd1ffa36aedd8df89E>:
  104090:	48 83 ec 18          	sub    $0x18,%rsp
  104094:	48 89 3c 24          	mov    %rdi,(%rsp)
  104098:	48 89 7c 24 10       	mov    %rdi,0x10(%rsp)
  10409d:	e8 9e 6c 00 00       	callq  10ad40 <_ZN4core3ptr9const_ptr33_$LT$impl$u20$$BP$const$u20$T$GT$7is_null17h6dea5e0d9a48698eE>
  1040a2:	34 ff                	xor    $0xff,%al
  1040a4:	a8 01                	test   $0x1,%al
  1040a6:	75 07                	jne    1040af <_ZN4core10intrinsics23is_aligned_and_not_null17hd1ffa36aedd8df89E+0x1f>
  1040a8:	c6 44 24 0f 00       	movb   $0x0,0xf(%rsp)
  1040ad:	eb 0f                	jmp    1040be <_ZN4core10intrinsics23is_aligned_and_not_null17hd1ffa36aedd8df89E+0x2e>
  1040af:	48 8b 3c 24          	mov    (%rsp),%rdi
  1040b3:	e8 68 6f 00 00       	callq  10b020 <_ZN4core3ptr9const_ptr33_$LT$impl$u20$$BP$const$u20$T$GT$10is_aligned17hde799338ef86532dE>
  1040b8:	24 01                	and    $0x1,%al
  1040ba:	88 44 24 0f          	mov    %al,0xf(%rsp)
  1040be:	8a 44 24 0f          	mov    0xf(%rsp),%al
  1040c2:	24 01                	and    $0x1,%al
  1040c4:	0f b6 c0             	movzbl %al,%eax
  1040c7:	48 83 c4 18          	add    $0x18,%rsp
  1040cb:	c3                   	retq   
  1040cc:	cc                   	int3   
  1040cd:	cc                   	int3   
  1040ce:	cc                   	int3   
  1040cf:	cc                   	int3   

00000000001040d0 <_ZN4core10intrinsics24is_valid_allocation_size17h038fce2ade8e20b2E>:
  1040d0:	48 83 ec 10          	sub    $0x10,%rsp
  1040d4:	48 b8 ff ff ff ff ff 	movabs $0xfffffffffffffff,%rax
  1040db:	ff ff 0f 
  1040de:	48 89 04 24          	mov    %rax,(%rsp)
  1040e2:	48 89 7c 24 08       	mov    %rdi,0x8(%rsp)
  1040e7:	48 b8 ff ff ff ff ff 	movabs $0xfffffffffffffff,%rax
  1040ee:	ff ff 0f 
  1040f1:	48 39 c7             	cmp    %rax,%rdi
  1040f4:	0f 96 c0             	setbe  %al
  1040f7:	24 01                	and    $0x1,%al
  1040f9:	0f b6 c0             	movzbl %al,%eax
  1040fc:	48 83 c4 10          	add    $0x10,%rsp
  104100:	c3                   	retq   
  104101:	cc                   	int3   
  104102:	cc                   	int3   
  104103:	cc                   	int3   
  104104:	cc                   	int3   
  104105:	cc                   	int3   
  104106:	cc                   	int3   
  104107:	cc                   	int3   
  104108:	cc                   	int3   
  104109:	cc                   	int3   
  10410a:	cc                   	int3   
  10410b:	cc                   	int3   
  10410c:	cc                   	int3   
  10410d:	cc                   	int3   
  10410e:	cc                   	int3   
  10410f:	cc                   	int3   

0000000000104110 <_ZN4core10intrinsics24is_valid_allocation_size17h63e6e46b28b7017fE>:
  104110:	48 83 ec 10          	sub    $0x10,%rsp
  104114:	48 b8 ff ff ff ff ff 	movabs $0x3ffffffffffffff,%rax
  10411b:	ff ff 03 
  10411e:	48 89 04 24          	mov    %rax,(%rsp)
  104122:	48 89 7c 24 08       	mov    %rdi,0x8(%rsp)
  104127:	48 b8 ff ff ff ff ff 	movabs $0x3ffffffffffffff,%rax
  10412e:	ff ff 03 
  104131:	48 39 c7             	cmp    %rax,%rdi
  104134:	0f 96 c0             	setbe  %al
  104137:	24 01                	and    $0x1,%al
  104139:	0f b6 c0             	movzbl %al,%eax
  10413c:	48 83 c4 10          	add    $0x10,%rsp
  104140:	c3                   	retq   
  104141:	cc                   	int3   
  104142:	cc                   	int3   
  104143:	cc                   	int3   
  104144:	cc                   	int3   
  104145:	cc                   	int3   
  104146:	cc                   	int3   
  104147:	cc                   	int3   
  104148:	cc                   	int3   
  104149:	cc                   	int3   
  10414a:	cc                   	int3   
  10414b:	cc                   	int3   
  10414c:	cc                   	int3   
  10414d:	cc                   	int3   
  10414e:	cc                   	int3   
  10414f:	cc                   	int3   

0000000000104150 <_ZN4core10intrinsics24is_valid_allocation_size17ha80651ced8f0e9ccE>:
  104150:	48 83 ec 10          	sub    $0x10,%rsp
  104154:	48 b8 ff ff ff ff ff 	movabs $0x7fffffffffffffff,%rax
  10415b:	ff ff 7f 
  10415e:	48 89 04 24          	mov    %rax,(%rsp)
  104162:	48 89 7c 24 08       	mov    %rdi,0x8(%rsp)
  104167:	48 b8 ff ff ff ff ff 	movabs $0x7fffffffffffffff,%rax
  10416e:	ff ff 7f 
  104171:	48 39 c7             	cmp    %rax,%rdi
  104174:	0f 96 c0             	setbe  %al
  104177:	24 01                	and    $0x1,%al
  104179:	0f b6 c0             	movzbl %al,%eax
  10417c:	48 83 c4 10          	add    $0x10,%rsp
  104180:	c3                   	retq   
  104181:	cc                   	int3   
  104182:	cc                   	int3   
  104183:	cc                   	int3   
  104184:	cc                   	int3   
  104185:	cc                   	int3   
  104186:	cc                   	int3   
  104187:	cc                   	int3   
  104188:	cc                   	int3   
  104189:	cc                   	int3   
  10418a:	cc                   	int3   
  10418b:	cc                   	int3   
  10418c:	cc                   	int3   
  10418d:	cc                   	int3   
  10418e:	cc                   	int3   
  10418f:	cc                   	int3   

0000000000104190 <_ZN4core10intrinsics17is_nonoverlapping17h6163b0011d9cc9c4E>:
  104190:	48 81 ec 88 00 00 00 	sub    $0x88,%rsp
  104197:	48 89 54 24 10       	mov    %rdx,0x10(%rsp)
  10419c:	48 89 f0             	mov    %rsi,%rax
  10419f:	48 8b 74 24 10       	mov    0x10(%rsp),%rsi
  1041a4:	48 89 44 24 18       	mov    %rax,0x18(%rsp)
  1041a9:	48 89 7c 24 20       	mov    %rdi,0x20(%rsp)
  1041ae:	48 89 7c 24 38       	mov    %rdi,0x38(%rsp)
  1041b3:	48 89 44 24 40       	mov    %rax,0x40(%rsp)
  1041b8:	48 89 74 24 48       	mov    %rsi,0x48(%rsp)
  1041bd:	48 89 7c 24 78       	mov    %rdi,0x78(%rsp)
  1041c2:	48 89 bc 24 80 00 00 	mov    %rdi,0x80(%rsp)
  1041c9:	00 
  1041ca:	48 89 7c 24 50       	mov    %rdi,0x50(%rsp)
  1041cf:	48 89 44 24 68       	mov    %rax,0x68(%rsp)
  1041d4:	48 89 44 24 70       	mov    %rax,0x70(%rsp)
  1041d9:	48 89 44 24 58       	mov    %rax,0x58(%rsp)
  1041de:	bf 01 00 00 00       	mov    $0x1,%edi
  1041e3:	e8 58 f6 ff ff       	callq  103840 <_ZN4core3num23_$LT$impl$u20$usize$GT$11checked_mul17hb5f6855dc68435e3E>
  1041e8:	48 89 c7             	mov    %rax,%rdi
  1041eb:	48 89 d6             	mov    %rdx,%rsi
  1041ee:	48 8d 15 5c c3 ff ff 	lea    -0x3ca4(%rip),%rdx        # 100551 <str.2+0x21>
  1041f5:	b9 3d 00 00 00       	mov    $0x3d,%ecx
  1041fa:	4c 8d 05 6f d7 00 00 	lea    0xd76f(%rip),%r8        # 111970 <_ZN4core3fmt3num14DEC_DIGITS_LUT17h57948bb6cc754759E+0x88>
  104201:	e8 ea 58 00 00       	callq  109af0 <_ZN4core6option15Option$LT$T$GT$6expect17h6715039b95b378a5E>
  104206:	48 8b 74 24 18       	mov    0x18(%rsp),%rsi
  10420b:	48 8b 7c 24 20       	mov    0x20(%rsp),%rdi
  104210:	48 89 44 24 28       	mov    %rax,0x28(%rsp)
  104215:	48 89 44 24 60       	mov    %rax,0x60(%rsp)
  10421a:	48 39 f7             	cmp    %rsi,%rdi
  10421d:	77 21                	ja     104240 <_ZN4core10intrinsics17is_nonoverlapping17h6163b0011d9cc9c4E+0xb0>
  10421f:	48 8b 44 24 18       	mov    0x18(%rsp),%rax
  104224:	48 8b 4c 24 20       	mov    0x20(%rsp),%rcx
  104229:	48 89 c2             	mov    %rax,%rdx
  10422c:	48 29 ca             	sub    %rcx,%rdx
  10422f:	48 89 54 24 08       	mov    %rdx,0x8(%rsp)
  104234:	48 39 c8             	cmp    %rcx,%rax
  104237:	0f 92 c0             	setb   %al
  10423a:	a8 01                	test   $0x1,%al
  10423c:	75 2e                	jne    10426c <_ZN4core10intrinsics17is_nonoverlapping17h6163b0011d9cc9c4E+0xdc>
  10423e:	eb 20                	jmp    104260 <_ZN4core10intrinsics17is_nonoverlapping17h6163b0011d9cc9c4E+0xd0>
  104240:	48 8b 44 24 20       	mov    0x20(%rsp),%rax
  104245:	48 8b 4c 24 18       	mov    0x18(%rsp),%rcx
  10424a:	48 89 c2             	mov    %rax,%rdx
  10424d:	48 29 ca             	sub    %rcx,%rdx
  104250:	48 89 14 24          	mov    %rdx,(%rsp)
  104254:	48 39 c8             	cmp    %rcx,%rax
  104257:	0f 92 c0             	setb   %al
  10425a:	a8 01                	test   $0x1,%al
  10425c:	75 4d                	jne    1042ab <_ZN4core10intrinsics17is_nonoverlapping17h6163b0011d9cc9c4E+0x11b>
  10425e:	eb 40                	jmp    1042a0 <_ZN4core10intrinsics17is_nonoverlapping17h6163b0011d9cc9c4E+0x110>
  104260:	48 8b 44 24 08       	mov    0x8(%rsp),%rax
  104265:	48 89 44 24 30       	mov    %rax,0x30(%rsp)
  10426a:	eb 1a                	jmp    104286 <_ZN4core10intrinsics17is_nonoverlapping17h6163b0011d9cc9c4E+0xf6>
  10426c:	48 8d 3d 8d c2 ff ff 	lea    -0x3d73(%rip),%rdi        # 100500 <str.1>
  104273:	48 8d 15 0e d7 00 00 	lea    0xd70e(%rip),%rdx        # 111988 <_ZN4core3fmt3num14DEC_DIGITS_LUT17h57948bb6cc754759E+0xa0>
  10427a:	be 21 00 00 00       	mov    $0x21,%esi
  10427f:	e8 ac 11 00 00       	callq  105430 <_ZN4core9panicking5panic17h4e18ef80ec7677b0E>
  104284:	0f 0b                	ud2    
  104286:	48 8b 44 24 28       	mov    0x28(%rsp),%rax
  10428b:	48 39 44 24 30       	cmp    %rax,0x30(%rsp)
  104290:	0f 93 c0             	setae  %al
  104293:	24 01                	and    $0x1,%al
  104295:	0f b6 c0             	movzbl %al,%eax
  104298:	48 81 c4 88 00 00 00 	add    $0x88,%rsp
  10429f:	c3                   	retq   
  1042a0:	48 8b 04 24          	mov    (%rsp),%rax
  1042a4:	48 89 44 24 30       	mov    %rax,0x30(%rsp)
  1042a9:	eb db                	jmp    104286 <_ZN4core10intrinsics17is_nonoverlapping17h6163b0011d9cc9c4E+0xf6>
  1042ab:	48 8d 3d 4e c2 ff ff 	lea    -0x3db2(%rip),%rdi        # 100500 <str.1>
  1042b2:	48 8d 15 e7 d6 00 00 	lea    0xd6e7(%rip),%rdx        # 1119a0 <_ZN4core3fmt3num14DEC_DIGITS_LUT17h57948bb6cc754759E+0xb8>
  1042b9:	be 21 00 00 00       	mov    $0x21,%esi
  1042be:	e8 6d 11 00 00       	callq  105430 <_ZN4core9panicking5panic17h4e18ef80ec7677b0E>
  1042c3:	0f 0b                	ud2    
  1042c5:	cc                   	int3   
  1042c6:	cc                   	int3   
  1042c7:	cc                   	int3   
  1042c8:	cc                   	int3   
  1042c9:	cc                   	int3   
  1042ca:	cc                   	int3   
  1042cb:	cc                   	int3   
  1042cc:	cc                   	int3   
  1042cd:	cc                   	int3   
  1042ce:	cc                   	int3   
  1042cf:	cc                   	int3   

00000000001042d0 <_ZN4core3ptr9const_ptr33_$LT$impl$u20$$BP$const$u20$T$GT$7is_null17hc45a5de02ee055e0E>:
  1042d0:	48 83 ec 18          	sub    $0x18,%rsp
  1042d4:	48 89 7c 24 10       	mov    %rdi,0x10(%rsp)
  1042d9:	48 89 7c 24 08       	mov    %rdi,0x8(%rsp)
  1042de:	48 8b 7c 24 08       	mov    0x8(%rsp),%rdi
  1042e3:	e8 e8 6a 00 00       	callq  10add0 <_ZN4core3ptr9const_ptr33_$LT$impl$u20$$BP$const$u20$T$GT$7is_null12runtime_impl17hd60492d86b291f28E>
  1042e8:	24 01                	and    $0x1,%al
  1042ea:	0f b6 c0             	movzbl %al,%eax
  1042ed:	48 83 c4 18          	add    $0x18,%rsp
  1042f1:	c3                   	retq   
  1042f2:	cc                   	int3   
  1042f3:	cc                   	int3   
  1042f4:	cc                   	int3   
  1042f5:	cc                   	int3   
  1042f6:	cc                   	int3   
  1042f7:	cc                   	int3   
  1042f8:	cc                   	int3   
  1042f9:	cc                   	int3   
  1042fa:	cc                   	int3   
  1042fb:	cc                   	int3   
  1042fc:	cc                   	int3   
  1042fd:	cc                   	int3   
  1042fe:	cc                   	int3   
  1042ff:	cc                   	int3   

0000000000104300 <_ZN4core3ptr9const_ptr33_$LT$impl$u20$$BP$const$u20$T$GT$7is_null17he078fccb73f674c5E>:
  104300:	48 83 ec 18          	sub    $0x18,%rsp
  104304:	48 89 7c 24 10       	mov    %rdi,0x10(%rsp)
  104309:	48 89 7c 24 08       	mov    %rdi,0x8(%rsp)
  10430e:	48 8b 7c 24 08       	mov    0x8(%rsp),%rdi
  104313:	e8 b8 6a 00 00       	callq  10add0 <_ZN4core3ptr9const_ptr33_$LT$impl$u20$$BP$const$u20$T$GT$7is_null12runtime_impl17hd60492d86b291f28E>
  104318:	24 01                	and    $0x1,%al
  10431a:	0f b6 c0             	movzbl %al,%eax
  10431d:	48 83 c4 18          	add    $0x18,%rsp
  104321:	c3                   	retq   
  104322:	cc                   	int3   
  104323:	cc                   	int3   
  104324:	cc                   	int3   
  104325:	cc                   	int3   
  104326:	cc                   	int3   
  104327:	cc                   	int3   
  104328:	cc                   	int3   
  104329:	cc                   	int3   
  10432a:	cc                   	int3   
  10432b:	cc                   	int3   
  10432c:	cc                   	int3   
  10432d:	cc                   	int3   
  10432e:	cc                   	int3   
  10432f:	cc                   	int3   

0000000000104330 <_ZN4core3ptr9const_ptr33_$LT$impl$u20$$BP$const$u20$T$GT$7is_null17hea1259b1b25dec97E>:
  104330:	48 83 ec 18          	sub    $0x18,%rsp
  104334:	48 89 7c 24 10       	mov    %rdi,0x10(%rsp)
  104339:	48 89 7c 24 08       	mov    %rdi,0x8(%rsp)
  10433e:	48 8b 7c 24 08       	mov    0x8(%rsp),%rdi
  104343:	e8 88 6a 00 00       	callq  10add0 <_ZN4core3ptr9const_ptr33_$LT$impl$u20$$BP$const$u20$T$GT$7is_null12runtime_impl17hd60492d86b291f28E>
  104348:	24 01                	and    $0x1,%al
  10434a:	0f b6 c0             	movzbl %al,%eax
  10434d:	48 83 c4 18          	add    $0x18,%rsp
  104351:	c3                   	retq   
  104352:	cc                   	int3   
  104353:	cc                   	int3   
  104354:	cc                   	int3   
  104355:	cc                   	int3   
  104356:	cc                   	int3   
  104357:	cc                   	int3   
  104358:	cc                   	int3   
  104359:	cc                   	int3   
  10435a:	cc                   	int3   
  10435b:	cc                   	int3   
  10435c:	cc                   	int3   
  10435d:	cc                   	int3   
  10435e:	cc                   	int3   
  10435f:	cc                   	int3   

0000000000104360 <_ZN4core3ptr9const_ptr33_$LT$impl$u20$$BP$const$u20$T$GT$10is_aligned17h93e301a0dbe40cffE>:
  104360:	50                   	push   %rax
  104361:	48 89 3c 24          	mov    %rdi,(%rsp)
  104365:	be 01 00 00 00       	mov    $0x1,%esi
  10436a:	e8 11 00 00 00       	callq  104380 <_ZN4core3ptr9const_ptr33_$LT$impl$u20$$BP$const$u20$T$GT$13is_aligned_to17h678457fc2cdfbe43E>
  10436f:	24 01                	and    $0x1,%al
  104371:	0f b6 c0             	movzbl %al,%eax
  104374:	59                   	pop    %rcx
  104375:	c3                   	retq   
  104376:	cc                   	int3   
  104377:	cc                   	int3   
  104378:	cc                   	int3   
  104379:	cc                   	int3   
  10437a:	cc                   	int3   
  10437b:	cc                   	int3   
  10437c:	cc                   	int3   
  10437d:	cc                   	int3   
  10437e:	cc                   	int3   
  10437f:	cc                   	int3   

0000000000104380 <_ZN4core3ptr9const_ptr33_$LT$impl$u20$$BP$const$u20$T$GT$13is_aligned_to17h678457fc2cdfbe43E>:
  104380:	48 81 ec 88 00 00 00 	sub    $0x88,%rsp
  104387:	48 89 f1             	mov    %rsi,%rcx
  10438a:	48 89 4c 24 08       	mov    %rcx,0x8(%rsp)
  10438f:	48 89 7c 24 10       	mov    %rdi,0x10(%rsp)
  104394:	48 89 7c 24 58       	mov    %rdi,0x58(%rsp)
  104399:	48 89 4c 24 60       	mov    %rcx,0x60(%rsp)
  10439e:	48 89 4c 24 70       	mov    %rcx,0x70(%rsp)
  1043a3:	48 89 4c 24 78       	mov    %rcx,0x78(%rsp)
  1043a8:	48 89 c8             	mov    %rcx,%rax
  1043ab:	48 d1 e8             	shr    %rax
  1043ae:	48 ba 55 55 55 55 55 	movabs $0x5555555555555555,%rdx
  1043b5:	55 55 55 
  1043b8:	48 21 d0             	and    %rdx,%rax
  1043bb:	48 29 c1             	sub    %rax,%rcx
  1043be:	48 ba 33 33 33 33 33 	movabs $0x3333333333333333,%rdx
  1043c5:	33 33 33 
  1043c8:	48 89 c8             	mov    %rcx,%rax
  1043cb:	48 21 d0             	and    %rdx,%rax
  1043ce:	48 c1 e9 02          	shr    $0x2,%rcx
  1043d2:	48 21 d1             	and    %rdx,%rcx
  1043d5:	48 01 c8             	add    %rcx,%rax
  1043d8:	48 89 c1             	mov    %rax,%rcx
  1043db:	48 c1 e9 04          	shr    $0x4,%rcx
  1043df:	48 01 c8             	add    %rcx,%rax
  1043e2:	48 b9 0f 0f 0f 0f 0f 	movabs $0xf0f0f0f0f0f0f0f,%rcx
  1043e9:	0f 0f 0f 
  1043ec:	48 21 c8             	and    %rcx,%rax
  1043ef:	48 b9 01 01 01 01 01 	movabs $0x101010101010101,%rcx
  1043f6:	01 01 01 
  1043f9:	48 0f af c1          	imul   %rcx,%rax
  1043fd:	48 c1 e8 38          	shr    $0x38,%rax
  104401:	48 89 84 24 80 00 00 	mov    %rax,0x80(%rsp)
  104408:	00 
  104409:	48 8b 84 24 80 00 00 	mov    0x80(%rsp),%rax
  104410:	00 
  104411:	83 f8 01             	cmp    $0x1,%eax
  104414:	0f 94 c0             	sete   %al
  104417:	34 ff                	xor    $0xff,%al
  104419:	a8 01                	test   $0x1,%al
  10441b:	75 35                	jne    104452 <_ZN4core3ptr9const_ptr33_$LT$impl$u20$$BP$const$u20$T$GT$13is_aligned_to17h678457fc2cdfbe43E+0xd2>
  10441d:	48 8b 44 24 08       	mov    0x8(%rsp),%rax
  104422:	48 8b 4c 24 10       	mov    0x10(%rsp),%rcx
  104427:	48 89 4c 24 68       	mov    %rcx,0x68(%rsp)
  10442c:	48 89 4c 24 48       	mov    %rcx,0x48(%rsp)
  104431:	48 89 44 24 50       	mov    %rax,0x50(%rsp)
  104436:	48 8b 7c 24 48       	mov    0x48(%rsp),%rdi
  10443b:	48 8b 74 24 50       	mov    0x50(%rsp),%rsi
  104440:	e8 fb 6f 00 00       	callq  10b440 <_ZN4core3ptr9const_ptr33_$LT$impl$u20$$BP$const$u20$T$GT$13is_aligned_to12runtime_impl17hf9d2dfeac1574f91E>
  104445:	24 01                	and    $0x1,%al
  104447:	0f b6 c0             	movzbl %al,%eax
  10444a:	48 81 c4 88 00 00 00 	add    $0x88,%rsp
  104451:	c3                   	retq   
  104452:	48 8d 35 5f d5 00 00 	lea    0xd55f(%rip),%rsi        # 1119b8 <_ZN4core3fmt3num14DEC_DIGITS_LUT17h57948bb6cc754759E+0xd0>
  104459:	48 8d 7c 24 18       	lea    0x18(%rsp),%rdi
  10445e:	48 89 3c 24          	mov    %rdi,(%rsp)
  104462:	ba 01 00 00 00       	mov    $0x1,%edx
  104467:	e8 04 30 00 00       	callq  107470 <_ZN4core3fmt9Arguments9new_const17hd728abf84ff8d077E>
  10446c:	48 8b 3c 24          	mov    (%rsp),%rdi
  104470:	48 8d 35 51 d5 00 00 	lea    0xd551(%rip),%rsi        # 1119c8 <_ZN4core3fmt3num14DEC_DIGITS_LUT17h57948bb6cc754759E+0xe0>
  104477:	e8 04 0f 00 00       	callq  105380 <_ZN4core9panicking9panic_fmt17hec0a0bac075b5c3fE>
  10447c:	0f 0b                	ud2    
  10447e:	cc                   	int3   
  10447f:	cc                   	int3   

0000000000104480 <_ZN4core3ptr9const_ptr43_$LT$impl$u20$$BP$const$u20$$u5b$T$u5d$$GT$3len17h89a0db460d286445E>:
  104480:	48 83 ec 18          	sub    $0x18,%rsp
  104484:	48 89 7c 24 08       	mov    %rdi,0x8(%rsp)
  104489:	48 89 74 24 10       	mov    %rsi,0x10(%rsp)
  10448e:	e8 9d 1f 00 00       	callq  106430 <_ZN4core3ptr8metadata8metadata17h250248f624d95d22E>
  104493:	48 83 c4 18          	add    $0x18,%rsp
  104497:	c3                   	retq   
  104498:	cc                   	int3   
  104499:	cc                   	int3   
  10449a:	cc                   	int3   
  10449b:	cc                   	int3   
  10449c:	cc                   	int3   
  10449d:	cc                   	int3   
  10449e:	cc                   	int3   
  10449f:	cc                   	int3   

00000000001044a0 <_ZN4core3ptr9const_ptr43_$LT$impl$u20$$BP$const$u20$$u5b$T$u5d$$GT$6as_ptr17h3ee07bd535457ddcE>:
  1044a0:	48 83 ec 10          	sub    $0x10,%rsp
  1044a4:	48 89 f8             	mov    %rdi,%rax
  1044a7:	48 89 04 24          	mov    %rax,(%rsp)
  1044ab:	48 89 74 24 08       	mov    %rsi,0x8(%rsp)
  1044b0:	48 83 c4 10          	add    $0x10,%rsp
  1044b4:	c3                   	retq   
  1044b5:	cc                   	int3   
  1044b6:	cc                   	int3   
  1044b7:	cc                   	int3   
  1044b8:	cc                   	int3   
  1044b9:	cc                   	int3   
  1044ba:	cc                   	int3   
  1044bb:	cc                   	int3   
  1044bc:	cc                   	int3   
  1044bd:	cc                   	int3   
  1044be:	cc                   	int3   
  1044bf:	cc                   	int3   

00000000001044c0 <_ZN4core3ptr7mut_ptr31_$LT$impl$u20$$BP$mut$u20$T$GT$7is_null17h8c109605ec70bb98E>:
  1044c0:	48 83 ec 18          	sub    $0x18,%rsp
  1044c4:	48 89 7c 24 10       	mov    %rdi,0x10(%rsp)
  1044c9:	48 89 7c 24 08       	mov    %rdi,0x8(%rsp)
  1044ce:	48 8b 7c 24 08       	mov    0x8(%rsp),%rdi
  1044d3:	e8 e8 21 00 00       	callq  1066c0 <_ZN4core3ptr7mut_ptr31_$LT$impl$u20$$BP$mut$u20$T$GT$7is_null12runtime_impl17h6355b2739011991bE>
  1044d8:	24 01                	and    $0x1,%al
  1044da:	0f b6 c0             	movzbl %al,%eax
  1044dd:	48 83 c4 18          	add    $0x18,%rsp
  1044e1:	c3                   	retq   
  1044e2:	cc                   	int3   
  1044e3:	cc                   	int3   
  1044e4:	cc                   	int3   
  1044e5:	cc                   	int3   
  1044e6:	cc                   	int3   
  1044e7:	cc                   	int3   
  1044e8:	cc                   	int3   
  1044e9:	cc                   	int3   
  1044ea:	cc                   	int3   
  1044eb:	cc                   	int3   
  1044ec:	cc                   	int3   
  1044ed:	cc                   	int3   
  1044ee:	cc                   	int3   
  1044ef:	cc                   	int3   

00000000001044f0 <_ZN4core3ptr7mut_ptr31_$LT$impl$u20$$BP$mut$u20$T$GT$7is_null17hc58c3d30244f470eE>:
  1044f0:	48 83 ec 18          	sub    $0x18,%rsp
  1044f4:	48 89 7c 24 10       	mov    %rdi,0x10(%rsp)
  1044f9:	48 89 7c 24 08       	mov    %rdi,0x8(%rsp)
  1044fe:	48 8b 7c 24 08       	mov    0x8(%rsp),%rdi
  104503:	e8 b8 21 00 00       	callq  1066c0 <_ZN4core3ptr7mut_ptr31_$LT$impl$u20$$BP$mut$u20$T$GT$7is_null12runtime_impl17h6355b2739011991bE>
  104508:	24 01                	and    $0x1,%al
  10450a:	0f b6 c0             	movzbl %al,%eax
  10450d:	48 83 c4 18          	add    $0x18,%rsp
  104511:	c3                   	retq   
  104512:	cc                   	int3   
  104513:	cc                   	int3   
  104514:	cc                   	int3   
  104515:	cc                   	int3   
  104516:	cc                   	int3   
  104517:	cc                   	int3   
  104518:	cc                   	int3   
  104519:	cc                   	int3   
  10451a:	cc                   	int3   
  10451b:	cc                   	int3   
  10451c:	cc                   	int3   
  10451d:	cc                   	int3   
  10451e:	cc                   	int3   
  10451f:	cc                   	int3   

0000000000104520 <_ZN4core3cmp5impls69_$LT$impl$u20$core..cmp..PartialEq$LT$$RF$B$GT$$u20$for$u20$$RF$A$GT$2eq17h14efcd62636148a5E>:
  104520:	48 83 ec 18          	sub    $0x18,%rsp
  104524:	48 89 f0             	mov    %rsi,%rax
  104527:	48 89 f9             	mov    %rdi,%rcx
  10452a:	48 89 4c 24 08       	mov    %rcx,0x8(%rsp)
  10452f:	48 89 44 24 10       	mov    %rax,0x10(%rsp)
  104534:	48 8b 39             	mov    (%rcx),%rdi
  104537:	48 8b 71 08          	mov    0x8(%rcx),%rsi
  10453b:	48 8b 10             	mov    (%rax),%rdx
  10453e:	48 8b 48 08          	mov    0x8(%rax),%rcx
  104542:	e8 e9 23 00 00       	callq  106930 <_ZN4core5slice3cmp81_$LT$impl$u20$core..cmp..PartialEq$LT$$u5b$B$u5d$$GT$$u20$for$u20$$u5b$A$u5d$$GT$2eq17h91e6338f740c8d21E>
  104547:	24 01                	and    $0x1,%al
  104549:	0f b6 c0             	movzbl %al,%eax
  10454c:	48 83 c4 18          	add    $0x18,%rsp
  104550:	c3                   	retq   
  104551:	cc                   	int3   
  104552:	cc                   	int3   
  104553:	cc                   	int3   
  104554:	cc                   	int3   
  104555:	cc                   	int3   
  104556:	cc                   	int3   
  104557:	cc                   	int3   
  104558:	cc                   	int3   
  104559:	cc                   	int3   
  10455a:	cc                   	int3   
  10455b:	cc                   	int3   
  10455c:	cc                   	int3   
  10455d:	cc                   	int3   
  10455e:	cc                   	int3   
  10455f:	cc                   	int3   

0000000000104560 <_ZN63_$LT$I$u20$as$u20$core..iter..traits..collect..IntoIterator$GT$9into_iter17h8ed5441dbce50cb6E>:
  104560:	50                   	push   %rax
  104561:	48 89 f8             	mov    %rdi,%rax
  104564:	48 89 04 24          	mov    %rax,(%rsp)
  104568:	ba 48 00 00 00       	mov    $0x48,%edx
  10456d:	e8 fe b6 00 00       	callq  10fc70 <memcpy>
  104572:	48 8b 04 24          	mov    (%rsp),%rax
  104576:	59                   	pop    %rcx
  104577:	c3                   	retq   
  104578:	cc                   	int3   
  104579:	cc                   	int3   
  10457a:	cc                   	int3   
  10457b:	cc                   	int3   
  10457c:	cc                   	int3   
  10457d:	cc                   	int3   
  10457e:	cc                   	int3   
  10457f:	cc                   	int3   

0000000000104580 <_ZN4core4iter6traits8iterator8Iterator10advance_by17h6a14f430e8081657E>:
  104580:	48 81 ec 88 00 00 00 	sub    $0x88,%rsp
  104587:	48 89 74 24 18       	mov    %rsi,0x18(%rsp)
  10458c:	48 89 7c 24 20       	mov    %rdi,0x20(%rsp)
  104591:	48 89 7c 24 70       	mov    %rdi,0x70(%rsp)
  104596:	48 89 74 24 78       	mov    %rsi,0x78(%rsp)
  10459b:	48 c7 44 24 30 00 00 	movq   $0x0,0x30(%rsp)
  1045a2:	00 00 
  1045a4:	48 89 74 24 38       	mov    %rsi,0x38(%rsp)
  1045a9:	48 8b 7c 24 30       	mov    0x30(%rsp),%rdi
  1045ae:	48 8b 74 24 38       	mov    0x38(%rsp),%rsi
  1045b3:	e8 58 88 00 00       	callq  10ce10 <_ZN63_$LT$I$u20$as$u20$core..iter..traits..collect..IntoIterator$GT$9into_iter17h3e6eed25d9a5d22cE>
  1045b8:	48 89 44 24 40       	mov    %rax,0x40(%rsp)
  1045bd:	48 89 54 24 48       	mov    %rdx,0x48(%rsp)
  1045c2:	48 8d 7c 24 40       	lea    0x40(%rsp),%rdi
  1045c7:	e8 34 88 00 00       	callq  10ce00 <_ZN4core4iter5range101_$LT$impl$u20$core..iter..traits..iterator..Iterator$u20$for$u20$core..ops..range..Range$LT$A$GT$$GT$4next17h1e143a2b9ee3d11bE>
  1045cc:	48 89 54 24 58       	mov    %rdx,0x58(%rsp)
  1045d1:	48 89 44 24 50       	mov    %rax,0x50(%rsp)
  1045d6:	48 83 7c 24 50 00    	cmpq   $0x0,0x50(%rsp)
  1045dc:	75 0b                	jne    1045e9 <_ZN4core4iter6traits8iterator8Iterator10advance_by17h6a14f430e8081657E+0x69>
  1045de:	48 c7 44 24 28 00 00 	movq   $0x0,0x28(%rsp)
  1045e5:	00 00 
  1045e7:	eb 35                	jmp    10461e <_ZN4core4iter6traits8iterator8Iterator10advance_by17h6a14f430e8081657E+0x9e>
  1045e9:	48 8b 7c 24 20       	mov    0x20(%rsp),%rdi
  1045ee:	48 8b 44 24 58       	mov    0x58(%rsp),%rax
  1045f3:	48 89 44 24 10       	mov    %rax,0x10(%rsp)
  1045f8:	48 89 84 24 80 00 00 	mov    %rax,0x80(%rsp)
  1045ff:	00 
  104600:	e8 3b 09 00 00       	callq  104f40 <_ZN87_$LT$core..str..iter..CharIndices$u20$as$u20$core..iter..traits..iterator..Iterator$GT$4next17hc727fe77ad674e5bE>
  104605:	89 54 24 68          	mov    %edx,0x68(%rsp)
  104609:	48 89 44 24 60       	mov    %rax,0x60(%rsp)
  10460e:	48 8d 7c 24 60       	lea    0x60(%rsp),%rdi
  104613:	e8 48 54 00 00       	callq  109a60 <_ZN4core6option15Option$LT$T$GT$7is_none17h822b411a70578d05E>
  104618:	a8 01                	test   $0x1,%al
  10461a:	75 0f                	jne    10462b <_ZN4core4iter6traits8iterator8Iterator10advance_by17h6a14f430e8081657E+0xab>
  10461c:	eb a4                	jmp    1045c2 <_ZN4core4iter6traits8iterator8Iterator10advance_by17h6a14f430e8081657E+0x42>
  10461e:	48 8b 44 24 28       	mov    0x28(%rsp),%rax
  104623:	48 81 c4 88 00 00 00 	add    $0x88,%rsp
  10462a:	c3                   	retq   
  10462b:	48 8b 44 24 18       	mov    0x18(%rsp),%rax
  104630:	48 8b 4c 24 10       	mov    0x10(%rsp),%rcx
  104635:	48 89 c2             	mov    %rax,%rdx
  104638:	48 29 ca             	sub    %rcx,%rdx
  10463b:	48 89 54 24 08       	mov    %rdx,0x8(%rsp)
  104640:	48 39 c8             	cmp    %rcx,%rax
  104643:	0f 92 c0             	setb   %al
  104646:	a8 01                	test   $0x1,%al
  104648:	75 11                	jne    10465b <_ZN4core4iter6traits8iterator8Iterator10advance_by17h6a14f430e8081657E+0xdb>
  10464a:	48 8b 7c 24 08       	mov    0x8(%rsp),%rdi
  10464f:	e8 3c 77 00 00       	callq  10bd90 <_ZN4core3num7nonzero12NonZeroUsize13new_unchecked17h861ef8fffb94374cE>
  104654:	48 89 44 24 28       	mov    %rax,0x28(%rsp)
  104659:	eb c3                	jmp    10461e <_ZN4core4iter6traits8iterator8Iterator10advance_by17h6a14f430e8081657E+0x9e>
  10465b:	48 8d 3d 9e be ff ff 	lea    -0x4162(%rip),%rdi        # 100500 <str.1>
  104662:	48 8d 15 77 d3 00 00 	lea    0xd377(%rip),%rdx        # 1119e0 <_ZN4core3fmt3num14DEC_DIGITS_LUT17h57948bb6cc754759E+0xf8>
  104669:	be 21 00 00 00       	mov    $0x21,%esi
  10466e:	e8 bd 0d 00 00       	callq  105430 <_ZN4core9panicking5panic17h4e18ef80ec7677b0E>
  104673:	0f 0b                	ud2    
  104675:	cc                   	int3   
  104676:	cc                   	int3   
  104677:	cc                   	int3   
  104678:	cc                   	int3   
  104679:	cc                   	int3   
  10467a:	cc                   	int3   
  10467b:	cc                   	int3   
  10467c:	cc                   	int3   
  10467d:	cc                   	int3   
  10467e:	cc                   	int3   
  10467f:	cc                   	int3   

0000000000104680 <_ZN4core4iter6traits8iterator8Iterator3nth17h8bc8d5b5ea80a7d2E>:
  104680:	48 83 ec 48          	sub    $0x48,%rsp
  104684:	48 89 7c 24 08       	mov    %rdi,0x8(%rsp)
  104689:	48 89 7c 24 38       	mov    %rdi,0x38(%rsp)
  10468e:	48 89 74 24 40       	mov    %rsi,0x40(%rsp)
  104693:	e8 e8 fe ff ff       	callq  104580 <_ZN4core4iter6traits8iterator8Iterator10advance_by17h6a14f430e8081657E>
  104698:	48 89 c7             	mov    %rax,%rdi
  10469b:	e8 80 73 00 00       	callq  10ba20 <_ZN4core6result19Result$LT$T$C$E$GT$2ok17h0d48fc95b3d78164E>
  1046a0:	0f b6 f8             	movzbl %al,%edi
  1046a3:	83 e7 01             	and    $0x1,%edi
  1046a6:	e8 55 57 00 00       	callq  109e00 <_ZN75_$LT$core..option..Option$LT$T$GT$$u20$as$u20$core..ops..try_trait..Try$GT$6branch17h26fbbccdd3459f58E>
  1046ab:	24 01                	and    $0x1,%al
  1046ad:	88 44 24 37          	mov    %al,0x37(%rsp)
  1046b1:	8a 44 24 37          	mov    0x37(%rsp),%al
  1046b5:	24 01                	and    $0x1,%al
  1046b7:	0f b6 c0             	movzbl %al,%eax
  1046ba:	48 83 f8 00          	cmp    $0x0,%rax
  1046be:	75 15                	jne    1046d5 <_ZN4core4iter6traits8iterator8Iterator3nth17h8bc8d5b5ea80a7d2E+0x55>
  1046c0:	48 8b 7c 24 08       	mov    0x8(%rsp),%rdi
  1046c5:	e8 76 08 00 00       	callq  104f40 <_ZN87_$LT$core..str..iter..CharIndices$u20$as$u20$core..iter..traits..iterator..Iterator$GT$4next17hc727fe77ad674e5bE>
  1046ca:	89 54 24 28          	mov    %edx,0x28(%rsp)
  1046ce:	48 89 44 24 20       	mov    %rax,0x20(%rsp)
  1046d3:	eb 0e                	jmp    1046e3 <_ZN4core4iter6traits8iterator8Iterator3nth17h8bc8d5b5ea80a7d2E+0x63>
  1046d5:	e8 f6 58 00 00       	callq  109fd0 <_ZN84_$LT$core..option..Option$LT$T$GT$$u20$as$u20$core..ops..try_trait..FromResidual$GT$13from_residual17hc23bb36d3ad036f9E>
  1046da:	89 54 24 28          	mov    %edx,0x28(%rsp)
  1046de:	48 89 44 24 20       	mov    %rax,0x20(%rsp)
  1046e3:	48 8b 44 24 20       	mov    0x20(%rsp),%rax
  1046e8:	8b 54 24 28          	mov    0x28(%rsp),%edx
  1046ec:	48 83 c4 48          	add    $0x48,%rsp
  1046f0:	c3                   	retq   
  1046f1:	cc                   	int3   
  1046f2:	cc                   	int3   
  1046f3:	cc                   	int3   
  1046f4:	cc                   	int3   
  1046f5:	cc                   	int3   
  1046f6:	cc                   	int3   
  1046f7:	cc                   	int3   
  1046f8:	cc                   	int3   
  1046f9:	cc                   	int3   
  1046fa:	cc                   	int3   
  1046fb:	cc                   	int3   
  1046fc:	cc                   	int3   
  1046fd:	cc                   	int3   
  1046fe:	cc                   	int3   
  1046ff:	cc                   	int3   

0000000000104700 <_ZN4core3fmt2rt12USIZE_MARKER28_$u7b$$u7b$closure$u7d$$u7d$17h8357a0ab275438d1E>:
  104700:	48 83 ec 28          	sub    $0x28,%rsp
  104704:	48 89 34 24          	mov    %rsi,(%rsp)
  104708:	48 89 f8             	mov    %rdi,%rax
  10470b:	48 8b 3c 24          	mov    (%rsp),%rdi
  10470f:	48 89 44 24 08       	mov    %rax,0x8(%rsp)
  104714:	48 89 7c 24 10       	mov    %rdi,0x10(%rsp)
  104719:	48 89 54 24 18       	mov    %rdx,0x18(%rsp)
  10471e:	e8 4d 99 00 00       	callq  10e070 <_ZN4core3ptr13read_volatile17hc73e74980a061f8bE>
  104723:	48 89 44 24 20       	mov    %rax,0x20(%rsp)
  104728:	eb fe                	jmp    104728 <_ZN4core3fmt2rt12USIZE_MARKER28_$u7b$$u7b$closure$u7d$$u7d$17h8357a0ab275438d1E+0x28>
  10472a:	cc                   	int3   
  10472b:	cc                   	int3   
  10472c:	cc                   	int3   
  10472d:	cc                   	int3   
  10472e:	cc                   	int3   
  10472f:	cc                   	int3   

0000000000104730 <_ZN4core5slice6memchr18contains_zero_byte17h885306af62db6718E>:
  104730:	48 83 ec 18          	sub    $0x18,%rsp
  104734:	48 89 3c 24          	mov    %rdi,(%rsp)
  104738:	48 89 7c 24 08       	mov    %rdi,0x8(%rsp)
  10473d:	48 b8 01 01 01 01 01 	movabs $0x101010101010101,%rax
  104744:	01 01 01 
  104747:	48 89 44 24 10       	mov    %rax,0x10(%rsp)
  10474c:	48 b9 01 01 01 01 01 	movabs $0x101010101010101,%rcx
  104753:	01 01 01 
  104756:	48 89 f8             	mov    %rdi,%rax
  104759:	48 29 c8             	sub    %rcx,%rax
  10475c:	48 83 f7 ff          	xor    $0xffffffffffffffff,%rdi
  104760:	48 21 f8             	and    %rdi,%rax
  104763:	48 b9 80 80 80 80 80 	movabs $0x8080808080808080,%rcx
  10476a:	80 80 80 
  10476d:	48 21 c8             	and    %rcx,%rax
  104770:	48 83 f8 00          	cmp    $0x0,%rax
  104774:	0f 95 c0             	setne  %al
  104777:	24 01                	and    $0x1,%al
  104779:	0f b6 c0             	movzbl %al,%eax
  10477c:	48 83 c4 18          	add    $0x18,%rsp
  104780:	c3                   	retq   
  104781:	cc                   	int3   
  104782:	cc                   	int3   
  104783:	cc                   	int3   
  104784:	cc                   	int3   
  104785:	cc                   	int3   
  104786:	cc                   	int3   
  104787:	cc                   	int3   
  104788:	cc                   	int3   
  104789:	cc                   	int3   
  10478a:	cc                   	int3   
  10478b:	cc                   	int3   
  10478c:	cc                   	int3   
  10478d:	cc                   	int3   
  10478e:	cc                   	int3   
  10478f:	cc                   	int3   

0000000000104790 <_ZN4core5slice6memchr11repeat_byte17h37df309321bafb52E>:
  104790:	48 83 ec 18          	sub    $0x18,%rsp
  104794:	40 88 f8             	mov    %dil,%al
  104797:	88 44 24 17          	mov    %al,0x17(%rsp)
  10479b:	0f b6 c0             	movzbl %al,%eax
  10479e:	48 b9 01 01 01 01 01 	movabs $0x101010101010101,%rcx
  1047a5:	01 01 01 
  1047a8:	48 f7 e1             	mul    %rcx
  1047ab:	48 89 44 24 08       	mov    %rax,0x8(%rsp)
  1047b0:	0f 90 c0             	seto   %al
  1047b3:	a8 01                	test   $0x1,%al
  1047b5:	75 0a                	jne    1047c1 <_ZN4core5slice6memchr11repeat_byte17h37df309321bafb52E+0x31>
  1047b7:	48 8b 44 24 08       	mov    0x8(%rsp),%rax
  1047bc:	48 83 c4 18          	add    $0x18,%rsp
  1047c0:	c3                   	retq   
  1047c1:	48 8d 3d 68 bd ff ff 	lea    -0x4298(%rip),%rdi        # 100530 <str.2>
  1047c8:	48 8d 15 31 d2 00 00 	lea    0xd231(%rip),%rdx        # 111a00 <_ZN4core3fmt2rt12USIZE_MARKER17h1b31419084dfd5e3E+0x8>
  1047cf:	be 21 00 00 00       	mov    $0x21,%esi
  1047d4:	e8 57 0c 00 00       	callq  105430 <_ZN4core9panicking5panic17h4e18ef80ec7677b0E>
  1047d9:	0f 0b                	ud2    
  1047db:	cc                   	int3   
  1047dc:	cc                   	int3   
  1047dd:	cc                   	int3   
  1047de:	cc                   	int3   
  1047df:	cc                   	int3   

00000000001047e0 <_ZN4core5slice6memchr6memchr17h6ef4b0ef55d5f14bE>:
  1047e0:	48 83 ec 48          	sub    $0x48,%rsp
  1047e4:	48 89 14 24          	mov    %rdx,(%rsp)
  1047e8:	48 89 74 24 08       	mov    %rsi,0x8(%rsp)
  1047ed:	40 88 f8             	mov    %dil,%al
  1047f0:	88 44 24 17          	mov    %al,0x17(%rsp)
  1047f4:	88 44 24 37          	mov    %al,0x37(%rsp)
  1047f8:	48 89 74 24 38       	mov    %rsi,0x38(%rsp)
  1047fd:	48 89 54 24 40       	mov    %rdx,0x40(%rsp)
  104802:	b8 02 00 00 00       	mov    $0x2,%eax
  104807:	b9 08 00 00 00       	mov    $0x8,%ecx
  10480c:	48 f7 e1             	mul    %rcx
  10480f:	48 89 44 24 18       	mov    %rax,0x18(%rsp)
  104814:	0f 90 c0             	seto   %al
  104817:	a8 01                	test   $0x1,%al
  104819:	75 10                	jne    10482b <_ZN4core5slice6memchr6memchr17h6ef4b0ef55d5f14bE+0x4b>
  10481b:	48 8b 04 24          	mov    (%rsp),%rax
  10481f:	48 8b 4c 24 18       	mov    0x18(%rsp),%rcx
  104824:	48 39 c8             	cmp    %rcx,%rax
  104827:	72 3d                	jb     104866 <_ZN4core5slice6memchr6memchr17h6ef4b0ef55d5f14bE+0x86>
  104829:	eb 1a                	jmp    104845 <_ZN4core5slice6memchr6memchr17h6ef4b0ef55d5f14bE+0x65>
  10482b:	48 8d 3d fe bc ff ff 	lea    -0x4302(%rip),%rdi        # 100530 <str.2>
  104832:	48 8d 15 df d1 00 00 	lea    0xd1df(%rip),%rdx        # 111a18 <_ZN4core3fmt2rt12USIZE_MARKER17h1b31419084dfd5e3E+0x20>
  104839:	be 21 00 00 00       	mov    $0x21,%esi
  10483e:	e8 ed 0b 00 00       	callq  105430 <_ZN4core9panicking5panic17h4e18ef80ec7677b0E>
  104843:	0f 0b                	ud2    
  104845:	48 8b 14 24          	mov    (%rsp),%rdx
  104849:	48 8b 74 24 08       	mov    0x8(%rsp),%rsi
  10484e:	8a 44 24 17          	mov    0x17(%rsp),%al
  104852:	0f b6 f8             	movzbl %al,%edi
  104855:	e8 36 01 00 00       	callq  104990 <_ZN4core5slice6memchr14memchr_aligned17h9753996186022336E>
  10485a:	48 89 54 24 28       	mov    %rdx,0x28(%rsp)
  10485f:	48 89 44 24 20       	mov    %rax,0x20(%rsp)
  104864:	eb 1f                	jmp    104885 <_ZN4core5slice6memchr6memchr17h6ef4b0ef55d5f14bE+0xa5>
  104866:	48 8b 14 24          	mov    (%rsp),%rdx
  10486a:	48 8b 74 24 08       	mov    0x8(%rsp),%rsi
  10486f:	8a 44 24 17          	mov    0x17(%rsp),%al
  104873:	0f b6 f8             	movzbl %al,%edi
  104876:	e8 25 00 00 00       	callq  1048a0 <_ZN4core5slice6memchr12memchr_naive17hc293f3b9586ed292E>
  10487b:	48 89 54 24 28       	mov    %rdx,0x28(%rsp)
  104880:	48 89 44 24 20       	mov    %rax,0x20(%rsp)
  104885:	48 8b 44 24 20       	mov    0x20(%rsp),%rax
  10488a:	48 8b 54 24 28       	mov    0x28(%rsp),%rdx
  10488f:	48 83 c4 48          	add    $0x48,%rsp
  104893:	c3                   	retq   
  104894:	cc                   	int3   
  104895:	cc                   	int3   
  104896:	cc                   	int3   
  104897:	cc                   	int3   
  104898:	cc                   	int3   
  104899:	cc                   	int3   
  10489a:	cc                   	int3   
  10489b:	cc                   	int3   
  10489c:	cc                   	int3   
  10489d:	cc                   	int3   
  10489e:	cc                   	int3   
  10489f:	cc                   	int3   

00000000001048a0 <_ZN4core5slice6memchr12memchr_naive17hc293f3b9586ed292E>:
  1048a0:	48 83 ec 58          	sub    $0x58,%rsp
  1048a4:	48 89 54 24 10       	mov    %rdx,0x10(%rsp)
  1048a9:	48 89 74 24 18       	mov    %rsi,0x18(%rsp)
  1048ae:	40 88 f8             	mov    %dil,%al
  1048b1:	88 44 24 27          	mov    %al,0x27(%rsp)
  1048b5:	88 44 24 47          	mov    %al,0x47(%rsp)
  1048b9:	48 89 74 24 48       	mov    %rsi,0x48(%rsp)
  1048be:	48 89 54 24 50       	mov    %rdx,0x50(%rsp)
  1048c3:	48 c7 44 24 38 00 00 	movq   $0x0,0x38(%rsp)
  1048ca:	00 00 
  1048cc:	48 8b 44 24 10       	mov    0x10(%rsp),%rax
  1048d1:	48 39 44 24 38       	cmp    %rax,0x38(%rsp)
  1048d6:	72 0b                	jb     1048e3 <_ZN4core5slice6memchr12memchr_naive17hc293f3b9586ed292E+0x43>
  1048d8:	48 c7 44 24 28 00 00 	movq   $0x0,0x28(%rsp)
  1048df:	00 00 
  1048e1:	eb 1b                	jmp    1048fe <_ZN4core5slice6memchr12memchr_naive17hc293f3b9586ed292E+0x5e>
  1048e3:	48 8b 4c 24 10       	mov    0x10(%rsp),%rcx
  1048e8:	48 8b 44 24 38       	mov    0x38(%rsp),%rax
  1048ed:	48 89 44 24 08       	mov    %rax,0x8(%rsp)
  1048f2:	48 39 c8             	cmp    %rcx,%rax
  1048f5:	0f 92 c0             	setb   %al
  1048f8:	a8 01                	test   $0x1,%al
  1048fa:	75 11                	jne    10490d <_ZN4core5slice6memchr12memchr_naive17hc293f3b9586ed292E+0x6d>
  1048fc:	eb 24                	jmp    104922 <_ZN4core5slice6memchr12memchr_naive17hc293f3b9586ed292E+0x82>
  1048fe:	48 8b 44 24 28       	mov    0x28(%rsp),%rax
  104903:	48 8b 54 24 30       	mov    0x30(%rsp),%rdx
  104908:	48 83 c4 58          	add    $0x58,%rsp
  10490c:	c3                   	retq   
  10490d:	48 8b 44 24 18       	mov    0x18(%rsp),%rax
  104912:	48 8b 4c 24 08       	mov    0x8(%rsp),%rcx
  104917:	8a 54 24 27          	mov    0x27(%rsp),%dl
  10491b:	38 14 08             	cmp    %dl,(%rax,%rcx,1)
  10491e:	74 30                	je     104950 <_ZN4core5slice6memchr12memchr_naive17hc293f3b9586ed292E+0xb0>
  104920:	eb 18                	jmp    10493a <_ZN4core5slice6memchr12memchr_naive17hc293f3b9586ed292E+0x9a>
  104922:	48 8b 74 24 10       	mov    0x10(%rsp),%rsi
  104927:	48 8b 7c 24 08       	mov    0x8(%rsp),%rdi
  10492c:	48 8d 15 fd d0 00 00 	lea    0xd0fd(%rip),%rdx        # 111a30 <_ZN4core3fmt2rt12USIZE_MARKER17h1b31419084dfd5e3E+0x38>
  104933:	e8 48 0c 00 00       	callq  105580 <_ZN4core9panicking18panic_bounds_check17h9c2d2bb408d89b4aE>
  104938:	0f 0b                	ud2    
  10493a:	48 8b 44 24 38       	mov    0x38(%rsp),%rax
  10493f:	48 83 c0 01          	add    $0x1,%rax
  104943:	48 89 04 24          	mov    %rax,(%rsp)
  104947:	0f 92 c0             	setb   %al
  10494a:	a8 01                	test   $0x1,%al
  10494c:	75 25                	jne    104973 <_ZN4core5slice6memchr12memchr_naive17hc293f3b9586ed292E+0xd3>
  10494e:	eb 15                	jmp    104965 <_ZN4core5slice6memchr12memchr_naive17hc293f3b9586ed292E+0xc5>
  104950:	48 8b 44 24 38       	mov    0x38(%rsp),%rax
  104955:	48 89 44 24 30       	mov    %rax,0x30(%rsp)
  10495a:	48 c7 44 24 28 01 00 	movq   $0x1,0x28(%rsp)
  104961:	00 00 
  104963:	eb 99                	jmp    1048fe <_ZN4core5slice6memchr12memchr_naive17hc293f3b9586ed292E+0x5e>
  104965:	48 8b 04 24          	mov    (%rsp),%rax
  104969:	48 89 44 24 38       	mov    %rax,0x38(%rsp)
  10496e:	e9 59 ff ff ff       	jmpq   1048cc <_ZN4core5slice6memchr12memchr_naive17hc293f3b9586ed292E+0x2c>
  104973:	48 8d 3d 66 bb ff ff 	lea    -0x449a(%rip),%rdi        # 1004e0 <str.0>
  10497a:	48 8d 15 c7 d0 00 00 	lea    0xd0c7(%rip),%rdx        # 111a48 <_ZN4core3fmt2rt12USIZE_MARKER17h1b31419084dfd5e3E+0x50>
  104981:	be 1c 00 00 00       	mov    $0x1c,%esi
  104986:	e8 a5 0a 00 00       	callq  105430 <_ZN4core9panicking5panic17h4e18ef80ec7677b0E>
  10498b:	0f 0b                	ud2    
  10498d:	cc                   	int3   
  10498e:	cc                   	int3   
  10498f:	cc                   	int3   

0000000000104990 <_ZN4core5slice6memchr14memchr_aligned17h9753996186022336E>:
  104990:	48 81 ec a8 01 00 00 	sub    $0x1a8,%rsp
  104997:	48 89 54 24 70       	mov    %rdx,0x70(%rsp)
  10499c:	48 89 74 24 78       	mov    %rsi,0x78(%rsp)
  1049a1:	89 f8                	mov    %edi,%eax
  1049a3:	48 8b 7c 24 78       	mov    0x78(%rsp),%rdi
  1049a8:	88 84 24 87 00 00 00 	mov    %al,0x87(%rsp)
  1049af:	88 84 24 d7 00 00 00 	mov    %al,0xd7(%rsp)
  1049b6:	48 89 bc 24 d8 00 00 	mov    %rdi,0xd8(%rsp)
  1049bd:	00 
  1049be:	48 89 94 24 e0 00 00 	mov    %rdx,0xe0(%rsp)
  1049c5:	00 
  1049c6:	48 89 94 24 e8 00 00 	mov    %rdx,0xe8(%rsp)
  1049cd:	00 
  1049ce:	48 89 bc 24 98 01 00 	mov    %rdi,0x198(%rsp)
  1049d5:	00 
  1049d6:	48 89 94 24 a0 01 00 	mov    %rdx,0x1a0(%rsp)
  1049dd:	00 
  1049de:	48 89 bc 24 f0 00 00 	mov    %rdi,0xf0(%rsp)
  1049e5:	00 
  1049e6:	be 08 00 00 00       	mov    $0x8,%esi
  1049eb:	e8 f0 64 00 00       	callq  10aee0 <_ZN4core3ptr9const_ptr33_$LT$impl$u20$$BP$const$u20$T$GT$12align_offset17hd8f1385960426044E>
  1049f0:	48 89 84 24 98 00 00 	mov    %rax,0x98(%rsp)
  1049f7:	00 
  1049f8:	48 83 bc 24 98 00 00 	cmpq   $0x0,0x98(%rsp)
  1049ff:	00 00 
  104a01:	77 21                	ja     104a24 <_ZN4core5slice6memchr14memchr_aligned17h9753996186022336E+0x94>
  104a03:	8a 84 24 87 00 00 00 	mov    0x87(%rsp),%al
  104a0a:	0f b6 f8             	movzbl %al,%edi
  104a0d:	e8 7e fd ff ff       	callq  104790 <_ZN4core5slice6memchr11repeat_byte17h37df309321bafb52E>
  104a12:	48 89 44 24 68       	mov    %rax,0x68(%rsp)
  104a17:	48 89 84 24 10 01 00 	mov    %rax,0x110(%rsp)
  104a1e:	00 
  104a1f:	e9 e2 00 00 00       	jmpq   104b06 <_ZN4core5slice6memchr14memchr_aligned17h9753996186022336E+0x176>
  104a24:	48 8b 44 24 70       	mov    0x70(%rsp),%rax
  104a29:	48 39 84 24 98 00 00 	cmp    %rax,0x98(%rsp)
  104a30:	00 
  104a31:	72 0f                	jb     104a42 <_ZN4core5slice6memchr14memchr_aligned17h9753996186022336E+0xb2>
  104a33:	48 8b 44 24 70       	mov    0x70(%rsp),%rax
  104a38:	48 89 84 24 a0 00 00 	mov    %rax,0xa0(%rsp)
  104a3f:	00 
  104a40:	eb 10                	jmp    104a52 <_ZN4core5slice6memchr14memchr_aligned17h9753996186022336E+0xc2>
  104a42:	48 8b 84 24 98 00 00 	mov    0x98(%rsp),%rax
  104a49:	00 
  104a4a:	48 89 84 24 a0 00 00 	mov    %rax,0xa0(%rsp)
  104a51:	00 
  104a52:	48 8b 7c 24 78       	mov    0x78(%rsp),%rdi
  104a57:	48 8b 44 24 70       	mov    0x70(%rsp),%rax
  104a5c:	48 8b 8c 24 a0 00 00 	mov    0xa0(%rsp),%rcx
  104a63:	00 
  104a64:	48 89 8c 24 98 00 00 	mov    %rcx,0x98(%rsp)
  104a6b:	00 
  104a6c:	48 89 bc 24 88 01 00 	mov    %rdi,0x188(%rsp)
  104a73:	00 
  104a74:	48 89 84 24 90 01 00 	mov    %rax,0x190(%rsp)
  104a7b:	00 
  104a7c:	48 8b b4 24 98 00 00 	mov    0x98(%rsp),%rsi
  104a83:	00 
  104a84:	e8 17 5a 00 00       	callq  10a4a0 <_ZN4core5slice3raw14from_raw_parts17h5a4c48e0db5e3da5E>
  104a89:	48 89 c6             	mov    %rax,%rsi
  104a8c:	8a 84 24 87 00 00 00 	mov    0x87(%rsp),%al
  104a93:	48 89 b4 24 f8 00 00 	mov    %rsi,0xf8(%rsp)
  104a9a:	00 
  104a9b:	48 89 94 24 00 01 00 	mov    %rdx,0x100(%rsp)
  104aa2:	00 
  104aa3:	0f b6 f8             	movzbl %al,%edi
  104aa6:	e8 f5 fd ff ff       	callq  1048a0 <_ZN4core5slice6memchr12memchr_naive17hc293f3b9586ed292E>
  104aab:	48 89 94 24 b0 00 00 	mov    %rdx,0xb0(%rsp)
  104ab2:	00 
  104ab3:	48 89 84 24 a8 00 00 	mov    %rax,0xa8(%rsp)
  104aba:	00 
  104abb:	48 83 bc 24 a8 00 00 	cmpq   $0x1,0xa8(%rsp)
  104ac2:	00 01 
  104ac4:	0f 85 39 ff ff ff    	jne    104a03 <_ZN4core5slice6memchr14memchr_aligned17h9753996186022336E+0x73>
  104aca:	48 8b 84 24 b0 00 00 	mov    0xb0(%rsp),%rax
  104ad1:	00 
  104ad2:	48 89 84 24 08 01 00 	mov    %rax,0x108(%rsp)
  104ad9:	00 
  104ada:	48 89 84 24 90 00 00 	mov    %rax,0x90(%rsp)
  104ae1:	00 
  104ae2:	48 c7 84 24 88 00 00 	movq   $0x1,0x88(%rsp)
  104ae9:	00 01 00 00 00 
  104aee:	48 8b 84 24 88 00 00 	mov    0x88(%rsp),%rax
  104af5:	00 
  104af6:	48 8b 94 24 90 00 00 	mov    0x90(%rsp),%rdx
  104afd:	00 
  104afe:	48 81 c4 a8 01 00 00 	add    $0x1a8,%rsp
  104b05:	c3                   	retq   
  104b06:	48 8b 84 24 98 00 00 	mov    0x98(%rsp),%rax
  104b0d:	00 
  104b0e:	48 89 44 24 58       	mov    %rax,0x58(%rsp)
  104b13:	b8 02 00 00 00       	mov    $0x2,%eax
  104b18:	b9 08 00 00 00       	mov    $0x8,%ecx
  104b1d:	48 f7 e1             	mul    %rcx
  104b20:	48 89 44 24 60       	mov    %rax,0x60(%rsp)
  104b25:	0f 90 c0             	seto   %al
  104b28:	a8 01                	test   $0x1,%al
  104b2a:	75 21                	jne    104b4d <_ZN4core5slice6memchr14memchr_aligned17h9753996186022336E+0x1bd>
  104b2c:	48 8b 44 24 70       	mov    0x70(%rsp),%rax
  104b31:	48 8b 4c 24 60       	mov    0x60(%rsp),%rcx
  104b36:	48 89 c2             	mov    %rax,%rdx
  104b39:	48 29 ca             	sub    %rcx,%rdx
  104b3c:	48 89 54 24 50       	mov    %rdx,0x50(%rsp)
  104b41:	48 39 c8             	cmp    %rcx,%rax
  104b44:	0f 92 c0             	setb   %al
  104b47:	a8 01                	test   $0x1,%al
  104b49:	75 2d                	jne    104b78 <_ZN4core5slice6memchr14memchr_aligned17h9753996186022336E+0x1e8>
  104b4b:	eb 1a                	jmp    104b67 <_ZN4core5slice6memchr14memchr_aligned17h9753996186022336E+0x1d7>
  104b4d:	48 8d 3d dc b9 ff ff 	lea    -0x4624(%rip),%rdi        # 100530 <str.2>
  104b54:	48 8d 15 05 cf 00 00 	lea    0xcf05(%rip),%rdx        # 111a60 <_ZN4core3fmt2rt12USIZE_MARKER17h1b31419084dfd5e3E+0x68>
  104b5b:	be 21 00 00 00       	mov    $0x21,%esi
  104b60:	e8 cb 08 00 00       	callq  105430 <_ZN4core9panicking5panic17h4e18ef80ec7677b0E>
  104b65:	0f 0b                	ud2    
  104b67:	48 8b 44 24 58       	mov    0x58(%rsp),%rax
  104b6c:	48 8b 4c 24 50       	mov    0x50(%rsp),%rcx
  104b71:	48 39 c8             	cmp    %rcx,%rax
  104b74:	76 7c                	jbe    104bf2 <_ZN4core5slice6memchr14memchr_aligned17h9753996186022336E+0x262>
  104b76:	eb 1a                	jmp    104b92 <_ZN4core5slice6memchr14memchr_aligned17h9753996186022336E+0x202>
  104b78:	48 8d 3d 81 b9 ff ff 	lea    -0x467f(%rip),%rdi        # 100500 <str.1>
  104b7f:	48 8d 15 f2 ce 00 00 	lea    0xcef2(%rip),%rdx        # 111a78 <_ZN4core3fmt2rt12USIZE_MARKER17h1b31419084dfd5e3E+0x80>
  104b86:	be 21 00 00 00       	mov    $0x21,%esi
  104b8b:	e8 a0 08 00 00       	callq  105430 <_ZN4core9panicking5panic17h4e18ef80ec7677b0E>
  104b90:	0f 0b                	ud2    
  104b92:	48 8b 44 24 70       	mov    0x70(%rsp),%rax
  104b97:	48 8b 4c 24 78       	mov    0x78(%rsp),%rcx
  104b9c:	48 89 8c 24 78 01 00 	mov    %rcx,0x178(%rsp)
  104ba3:	00 
  104ba4:	48 89 84 24 80 01 00 	mov    %rax,0x180(%rsp)
  104bab:	00 
  104bac:	48 8b 94 24 98 00 00 	mov    0x98(%rsp),%rdx
  104bb3:	00 
  104bb4:	48 89 8c 24 48 01 00 	mov    %rcx,0x148(%rsp)
  104bbb:	00 
  104bbc:	48 89 94 24 50 01 00 	mov    %rdx,0x150(%rsp)
  104bc3:	00 
  104bc4:	48 01 d1             	add    %rdx,%rcx
  104bc7:	48 89 4c 24 40       	mov    %rcx,0x40(%rsp)
  104bcc:	48 8b 8c 24 98 00 00 	mov    0x98(%rsp),%rcx
  104bd3:	00 
  104bd4:	48 89 c2             	mov    %rax,%rdx
  104bd7:	48 29 ca             	sub    %rcx,%rdx
  104bda:	48 89 54 24 48       	mov    %rdx,0x48(%rsp)
  104bdf:	48 39 c8             	cmp    %rcx,%rax
  104be2:	0f 92 c0             	setb   %al
  104be5:	a8 01                	test   $0x1,%al
  104be7:	0f 85 cb 01 00 00    	jne    104db8 <_ZN4core5slice6memchr14memchr_aligned17h9753996186022336E+0x428>
  104bed:	e9 78 01 00 00       	jmpq   104d6a <_ZN4core5slice6memchr14memchr_aligned17h9753996186022336E+0x3da>
  104bf2:	48 8b 44 24 78       	mov    0x78(%rsp),%rax
  104bf7:	48 8b 8c 24 98 00 00 	mov    0x98(%rsp),%rcx
  104bfe:	00 
  104bff:	48 89 84 24 68 01 00 	mov    %rax,0x168(%rsp)
  104c06:	00 
  104c07:	48 89 8c 24 70 01 00 	mov    %rcx,0x170(%rsp)
  104c0e:	00 
  104c0f:	48 8b 04 08          	mov    (%rax,%rcx,1),%rax
  104c13:	48 89 44 24 30       	mov    %rax,0x30(%rsp)
  104c18:	48 89 84 24 18 01 00 	mov    %rax,0x118(%rsp)
  104c1f:	00 
  104c20:	48 8b 84 24 98 00 00 	mov    0x98(%rsp),%rax
  104c27:	00 
  104c28:	48 83 c0 08          	add    $0x8,%rax
  104c2c:	48 89 44 24 38       	mov    %rax,0x38(%rsp)
  104c31:	0f 92 c0             	setb   %al
  104c34:	a8 01                	test   $0x1,%al
  104c36:	75 79                	jne    104cb1 <_ZN4core5slice6memchr14memchr_aligned17h9753996186022336E+0x321>
  104c38:	48 8b 44 24 68       	mov    0x68(%rsp),%rax
  104c3d:	48 8b 7c 24 30       	mov    0x30(%rsp),%rdi
  104c42:	48 8b 4c 24 78       	mov    0x78(%rsp),%rcx
  104c47:	48 8b 54 24 38       	mov    0x38(%rsp),%rdx
  104c4c:	48 89 8c 24 58 01 00 	mov    %rcx,0x158(%rsp)
  104c53:	00 
  104c54:	48 89 94 24 60 01 00 	mov    %rdx,0x160(%rsp)
  104c5b:	00 
  104c5c:	48 8b 0c 11          	mov    (%rcx,%rdx,1),%rcx
  104c60:	48 89 4c 24 20       	mov    %rcx,0x20(%rsp)
  104c65:	48 89 8c 24 20 01 00 	mov    %rcx,0x120(%rsp)
  104c6c:	00 
  104c6d:	48 31 c7             	xor    %rax,%rdi
  104c70:	e8 bb fa ff ff       	callq  104730 <_ZN4core5slice6memchr18contains_zero_byte17h885306af62db6718E>
  104c75:	48 8b 7c 24 20       	mov    0x20(%rsp),%rdi
  104c7a:	88 c1                	mov    %al,%cl
  104c7c:	48 8b 44 24 68       	mov    0x68(%rsp),%rax
  104c81:	88 4c 24 2e          	mov    %cl,0x2e(%rsp)
  104c85:	80 e1 01             	and    $0x1,%cl
  104c88:	88 8c 24 2e 01 00 00 	mov    %cl,0x12e(%rsp)
  104c8f:	48 31 c7             	xor    %rax,%rdi
  104c92:	e8 99 fa ff ff       	callq  104730 <_ZN4core5slice6memchr18contains_zero_byte17h885306af62db6718E>
  104c97:	88 c1                	mov    %al,%cl
  104c99:	8a 44 24 2e          	mov    0x2e(%rsp),%al
  104c9d:	88 4c 24 2f          	mov    %cl,0x2f(%rsp)
  104ca1:	80 e1 01             	and    $0x1,%cl
  104ca4:	88 8c 24 2f 01 00 00 	mov    %cl,0x12f(%rsp)
  104cab:	a8 01                	test   $0x1,%al
  104cad:	75 2b                	jne    104cda <_ZN4core5slice6memchr14memchr_aligned17h9753996186022336E+0x34a>
  104caf:	eb 1a                	jmp    104ccb <_ZN4core5slice6memchr14memchr_aligned17h9753996186022336E+0x33b>
  104cb1:	48 8d 3d 28 b8 ff ff 	lea    -0x47d8(%rip),%rdi        # 1004e0 <str.0>
  104cb8:	48 8d 15 d1 cd 00 00 	lea    0xcdd1(%rip),%rdx        # 111a90 <_ZN4core3fmt2rt12USIZE_MARKER17h1b31419084dfd5e3E+0x98>
  104cbf:	be 1c 00 00 00       	mov    $0x1c,%esi
  104cc4:	e8 67 07 00 00       	callq  105430 <_ZN4core9panicking5panic17h4e18ef80ec7677b0E>
  104cc9:	0f 0b                	ud2    
  104ccb:	8a 44 24 2f          	mov    0x2f(%rsp),%al
  104ccf:	24 01                	and    $0x1,%al
  104cd1:	88 84 24 bf 00 00 00 	mov    %al,0xbf(%rsp)
  104cd8:	eb 08                	jmp    104ce2 <_ZN4core5slice6memchr14memchr_aligned17h9753996186022336E+0x352>
  104cda:	c6 84 24 bf 00 00 00 	movb   $0x1,0xbf(%rsp)
  104ce1:	01 
  104ce2:	f6 84 24 bf 00 00 00 	testb  $0x1,0xbf(%rsp)
  104ce9:	01 
  104cea:	0f 85 a2 fe ff ff    	jne    104b92 <_ZN4core5slice6memchr14memchr_aligned17h9753996186022336E+0x202>
  104cf0:	b8 08 00 00 00       	mov    $0x8,%eax
  104cf5:	b9 02 00 00 00       	mov    $0x2,%ecx
  104cfa:	48 f7 e1             	mul    %rcx
  104cfd:	48 89 44 24 18       	mov    %rax,0x18(%rsp)
  104d02:	0f 90 c0             	seto   %al
  104d05:	a8 01                	test   $0x1,%al
  104d07:	75 1b                	jne    104d24 <_ZN4core5slice6memchr14memchr_aligned17h9753996186022336E+0x394>
  104d09:	48 8b 44 24 18       	mov    0x18(%rsp),%rax
  104d0e:	48 03 84 24 98 00 00 	add    0x98(%rsp),%rax
  104d15:	00 
  104d16:	48 89 44 24 10       	mov    %rax,0x10(%rsp)
  104d1b:	0f 92 c0             	setb   %al
  104d1e:	a8 01                	test   $0x1,%al
  104d20:	75 2e                	jne    104d50 <_ZN4core5slice6memchr14memchr_aligned17h9753996186022336E+0x3c0>
  104d22:	eb 1a                	jmp    104d3e <_ZN4core5slice6memchr14memchr_aligned17h9753996186022336E+0x3ae>
  104d24:	48 8d 3d 05 b8 ff ff 	lea    -0x47fb(%rip),%rdi        # 100530 <str.2>
  104d2b:	48 8d 15 76 cd 00 00 	lea    0xcd76(%rip),%rdx        # 111aa8 <_ZN4core3fmt2rt12USIZE_MARKER17h1b31419084dfd5e3E+0xb0>
  104d32:	be 21 00 00 00       	mov    $0x21,%esi
  104d37:	e8 f4 06 00 00       	callq  105430 <_ZN4core9panicking5panic17h4e18ef80ec7677b0E>
  104d3c:	0f 0b                	ud2    
  104d3e:	48 8b 44 24 10       	mov    0x10(%rsp),%rax
  104d43:	48 89 84 24 98 00 00 	mov    %rax,0x98(%rsp)
  104d4a:	00 
  104d4b:	e9 b6 fd ff ff       	jmpq   104b06 <_ZN4core5slice6memchr14memchr_aligned17h9753996186022336E+0x176>
  104d50:	48 8d 3d 89 b7 ff ff 	lea    -0x4877(%rip),%rdi        # 1004e0 <str.0>
  104d57:	48 8d 15 62 cd 00 00 	lea    0xcd62(%rip),%rdx        # 111ac0 <_ZN4core3fmt2rt12USIZE_MARKER17h1b31419084dfd5e3E+0xc8>
  104d5e:	be 1c 00 00 00       	mov    $0x1c,%esi
  104d63:	e8 c8 06 00 00       	callq  105430 <_ZN4core9panicking5panic17h4e18ef80ec7677b0E>
  104d68:	0f 0b                	ud2    
  104d6a:	48 8b 74 24 48       	mov    0x48(%rsp),%rsi
  104d6f:	48 8b 7c 24 40       	mov    0x40(%rsp),%rdi
  104d74:	e8 27 57 00 00       	callq  10a4a0 <_ZN4core5slice3raw14from_raw_parts17h5a4c48e0db5e3da5E>
  104d79:	48 89 c6             	mov    %rax,%rsi
  104d7c:	8a 84 24 87 00 00 00 	mov    0x87(%rsp),%al
  104d83:	48 89 b4 24 30 01 00 	mov    %rsi,0x130(%rsp)
  104d8a:	00 
  104d8b:	48 89 94 24 38 01 00 	mov    %rdx,0x138(%rsp)
  104d92:	00 
  104d93:	0f b6 f8             	movzbl %al,%edi
  104d96:	e8 05 fb ff ff       	callq  1048a0 <_ZN4core5slice6memchr12memchr_naive17hc293f3b9586ed292E>
  104d9b:	48 89 94 24 c8 00 00 	mov    %rdx,0xc8(%rsp)
  104da2:	00 
  104da3:	48 89 84 24 c0 00 00 	mov    %rax,0xc0(%rsp)
  104daa:	00 
  104dab:	48 83 bc 24 c0 00 00 	cmpq   $0x1,0xc0(%rsp)
  104db2:	00 01 
  104db4:	74 1c                	je     104dd2 <_ZN4core5slice6memchr14memchr_aligned17h9753996186022336E+0x442>
  104db6:	eb 40                	jmp    104df8 <_ZN4core5slice6memchr14memchr_aligned17h9753996186022336E+0x468>
  104db8:	48 8d 3d 41 b7 ff ff 	lea    -0x48bf(%rip),%rdi        # 100500 <str.1>
  104dbf:	48 8d 15 12 cd 00 00 	lea    0xcd12(%rip),%rdx        # 111ad8 <_ZN4core3fmt2rt12USIZE_MARKER17h1b31419084dfd5e3E+0xe0>
  104dc6:	be 21 00 00 00       	mov    $0x21,%esi
  104dcb:	e8 60 06 00 00       	callq  105430 <_ZN4core9panicking5panic17h4e18ef80ec7677b0E>
  104dd0:	0f 0b                	ud2    
  104dd2:	48 8b 84 24 c8 00 00 	mov    0xc8(%rsp),%rax
  104dd9:	00 
  104dda:	48 89 84 24 40 01 00 	mov    %rax,0x140(%rsp)
  104de1:	00 
  104de2:	48 03 84 24 98 00 00 	add    0x98(%rsp),%rax
  104de9:	00 
  104dea:	48 89 44 24 08       	mov    %rax,0x8(%rsp)
  104def:	0f 92 c0             	setb   %al
  104df2:	a8 01                	test   $0x1,%al
  104df4:	75 31                	jne    104e27 <_ZN4core5slice6memchr14memchr_aligned17h9753996186022336E+0x497>
  104df6:	eb 11                	jmp    104e09 <_ZN4core5slice6memchr14memchr_aligned17h9753996186022336E+0x479>
  104df8:	48 c7 84 24 88 00 00 	movq   $0x0,0x88(%rsp)
  104dff:	00 00 00 00 00 
  104e04:	e9 e5 fc ff ff       	jmpq   104aee <_ZN4core5slice6memchr14memchr_aligned17h9753996186022336E+0x15e>
  104e09:	48 8b 44 24 08       	mov    0x8(%rsp),%rax
  104e0e:	48 89 84 24 90 00 00 	mov    %rax,0x90(%rsp)
  104e15:	00 
  104e16:	48 c7 84 24 88 00 00 	movq   $0x1,0x88(%rsp)
  104e1d:	00 01 00 00 00 
  104e22:	e9 c7 fc ff ff       	jmpq   104aee <_ZN4core5slice6memchr14memchr_aligned17h9753996186022336E+0x15e>
  104e27:	48 8d 3d b2 b6 ff ff 	lea    -0x494e(%rip),%rdi        # 1004e0 <str.0>
  104e2e:	48 8d 15 bb cc 00 00 	lea    0xccbb(%rip),%rdx        # 111af0 <_ZN4core3fmt2rt12USIZE_MARKER17h1b31419084dfd5e3E+0xf8>
  104e35:	be 1c 00 00 00       	mov    $0x1c,%esi
  104e3a:	e8 f1 05 00 00       	callq  105430 <_ZN4core9panicking5panic17h4e18ef80ec7677b0E>
  104e3f:	0f 0b                	ud2    
  104e41:	cc                   	int3   
  104e42:	cc                   	int3   
  104e43:	cc                   	int3   
  104e44:	cc                   	int3   
  104e45:	cc                   	int3   
  104e46:	cc                   	int3   
  104e47:	cc                   	int3   
  104e48:	cc                   	int3   
  104e49:	cc                   	int3   
  104e4a:	cc                   	int3   
  104e4b:	cc                   	int3   
  104e4c:	cc                   	int3   
  104e4d:	cc                   	int3   
  104e4e:	cc                   	int3   
  104e4f:	cc                   	int3   

0000000000104e50 <_ZN4core5slice29_$LT$impl$u20$$u5b$T$u5d$$GT$13get_unchecked17h56f305ddfc57f8f2E>:
  104e50:	48 83 ec 28          	sub    $0x28,%rsp
  104e54:	48 89 54 24 08       	mov    %rdx,0x8(%rsp)
  104e59:	48 89 f2             	mov    %rsi,%rdx
  104e5c:	48 89 fe             	mov    %rdi,%rsi
  104e5f:	48 8b 7c 24 08       	mov    0x8(%rsp),%rdi
  104e64:	48 89 74 24 10       	mov    %rsi,0x10(%rsp)
  104e69:	48 89 54 24 18       	mov    %rdx,0x18(%rsp)
  104e6e:	48 89 7c 24 20       	mov    %rdi,0x20(%rsp)
  104e73:	e8 f8 46 00 00       	callq  109570 <_ZN75_$LT$usize$u20$as$u20$core..slice..index..SliceIndex$LT$$u5b$T$u5d$$GT$$GT$13get_unchecked17hde94c2de95e20f1cE>
  104e78:	48 83 c4 28          	add    $0x28,%rsp
  104e7c:	c3                   	retq   
  104e7d:	cc                   	int3   
  104e7e:	cc                   	int3   
  104e7f:	cc                   	int3   

0000000000104e80 <_ZN4core5slice29_$LT$impl$u20$$u5b$T$u5d$$GT$4iter17hc88e89af2f6b984fE>:
  104e80:	48 83 ec 18          	sub    $0x18,%rsp
  104e84:	48 89 7c 24 08       	mov    %rdi,0x8(%rsp)
  104e89:	48 89 74 24 10       	mov    %rsi,0x10(%rsp)
  104e8e:	e8 ad 70 00 00       	callq  10bf40 <_ZN4core5slice4iter13Iter$LT$T$GT$3new17h111e611c9e701a04E>
  104e93:	48 83 c4 18          	add    $0x18,%rsp
  104e97:	c3                   	retq   
  104e98:	cc                   	int3   
  104e99:	cc                   	int3   
  104e9a:	cc                   	int3   
  104e9b:	cc                   	int3   
  104e9c:	cc                   	int3   
  104e9d:	cc                   	int3   
  104e9e:	cc                   	int3   
  104e9f:	cc                   	int3   

0000000000104ea0 <_ZN4core5slice29_$LT$impl$u20$$u5b$T$u5d$$GT$4iter17hf37512904ff6c44bE>:
  104ea0:	48 83 ec 18          	sub    $0x18,%rsp
  104ea4:	48 89 7c 24 08       	mov    %rdi,0x8(%rsp)
  104ea9:	48 89 74 24 10       	mov    %rsi,0x10(%rsp)
  104eae:	e8 3d 72 00 00       	callq  10c0f0 <_ZN4core5slice4iter13Iter$LT$T$GT$3new17hd1d6e350f0acbac1E>
  104eb3:	48 83 c4 18          	add    $0x18,%rsp
  104eb7:	c3                   	retq   
  104eb8:	cc                   	int3   
  104eb9:	cc                   	int3   
  104eba:	cc                   	int3   
  104ebb:	cc                   	int3   
  104ebc:	cc                   	int3   
  104ebd:	cc                   	int3   
  104ebe:	cc                   	int3   
  104ebf:	cc                   	int3   

0000000000104ec0 <_ZN81_$LT$core..str..iter..Chars$u20$as$u20$core..iter..traits..iterator..Iterator$GT$4next17h101504c26a280fb5E>:
  104ec0:	50                   	push   %rax
  104ec1:	48 89 3c 24          	mov    %rdi,(%rsp)
  104ec5:	e8 56 48 00 00       	callq  109720 <_ZN4core3str11validations15next_code_point17h988cf8f6f8f53428E>
  104eca:	89 c7                	mov    %eax,%edi
  104ecc:	89 d6                	mov    %edx,%esi
  104ece:	e8 4d 4e 00 00       	callq  109d20 <_ZN4core6option15Option$LT$T$GT$3map17h98b2951c4f70eb23E>
  104ed3:	59                   	pop    %rcx
  104ed4:	c3                   	retq   
  104ed5:	cc                   	int3   
  104ed6:	cc                   	int3   
  104ed7:	cc                   	int3   
  104ed8:	cc                   	int3   
  104ed9:	cc                   	int3   
  104eda:	cc                   	int3   
  104edb:	cc                   	int3   
  104edc:	cc                   	int3   
  104edd:	cc                   	int3   
  104ede:	cc                   	int3   
  104edf:	cc                   	int3   

0000000000104ee0 <_ZN81_$LT$core..str..iter..Chars$u20$as$u20$core..iter..traits..iterator..Iterator$GT$4next28_$u7b$$u7b$closure$u7d$$u7d$17h38ee9dc24863a79aE>:
  104ee0:	50                   	push   %rax
  104ee1:	89 7c 24 04          	mov    %edi,0x4(%rsp)
  104ee5:	e8 f6 66 00 00       	callq  10b5e0 <_ZN4core4char7methods22_$LT$impl$u20$char$GT$18from_u32_unchecked17h4eeac8933c03b18dE>
  104eea:	59                   	pop    %rcx
  104eeb:	c3                   	retq   
  104eec:	cc                   	int3   
  104eed:	cc                   	int3   
  104eee:	cc                   	int3   
  104eef:	cc                   	int3   

0000000000104ef0 <_ZN81_$LT$core..str..iter..Chars$u20$as$u20$core..iter..traits..iterator..Iterator$GT$5count17hc993f847aa665e2fE>:
  104ef0:	48 83 ec 18          	sub    $0x18,%rsp
  104ef4:	48 89 7c 24 08       	mov    %rdi,0x8(%rsp)
  104ef9:	48 89 74 24 10       	mov    %rsi,0x10(%rsp)
  104efe:	48 8d 7c 24 08       	lea    0x8(%rsp),%rdi
  104f03:	e8 18 00 00 00       	callq  104f20 <_ZN4core3str4iter5Chars6as_str17h0a48e6d7f87b4d77E>
  104f08:	48 89 c7             	mov    %rax,%rdi
  104f0b:	48 89 d6             	mov    %rdx,%rsi
  104f0e:	e8 3d 56 00 00       	callq  10a550 <_ZN4core3str5count11count_chars17hc0afe908f1bf82f5E>
  104f13:	48 83 c4 18          	add    $0x18,%rsp
  104f17:	c3                   	retq   
  104f18:	cc                   	int3   
  104f19:	cc                   	int3   
  104f1a:	cc                   	int3   
  104f1b:	cc                   	int3   
  104f1c:	cc                   	int3   
  104f1d:	cc                   	int3   
  104f1e:	cc                   	int3   
  104f1f:	cc                   	int3   

0000000000104f20 <_ZN4core3str4iter5Chars6as_str17h0a48e6d7f87b4d77E>:
  104f20:	50                   	push   %rax
  104f21:	48 89 3c 24          	mov    %rdi,(%rsp)
  104f25:	e8 e6 72 00 00       	callq  10c210 <_ZN4core5slice4iter13Iter$LT$T$GT$8as_slice17he6d56a44afb34311E>
  104f2a:	48 89 c7             	mov    %rax,%rdi
  104f2d:	48 89 d6             	mov    %rdx,%rsi
  104f30:	e8 0b 47 00 00       	callq  109640 <_ZN4core3str8converts19from_utf8_unchecked17haad3881056278f70E>
  104f35:	59                   	pop    %rcx
  104f36:	c3                   	retq   
  104f37:	cc                   	int3   
  104f38:	cc                   	int3   
  104f39:	cc                   	int3   
  104f3a:	cc                   	int3   
  104f3b:	cc                   	int3   
  104f3c:	cc                   	int3   
  104f3d:	cc                   	int3   
  104f3e:	cc                   	int3   
  104f3f:	cc                   	int3   

0000000000104f40 <_ZN87_$LT$core..str..iter..CharIndices$u20$as$u20$core..iter..traits..iterator..Iterator$GT$4next17hc727fe77ad674e5bE>:
  104f40:	48 81 ec b8 00 00 00 	sub    $0xb8,%rsp
  104f47:	48 89 f8             	mov    %rdi,%rax
  104f4a:	48 89 44 24 28       	mov    %rax,0x28(%rsp)
  104f4f:	48 89 44 24 60       	mov    %rax,0x60(%rsp)
  104f54:	48 89 84 24 a8 00 00 	mov    %rax,0xa8(%rsp)
  104f5b:	00 
  104f5c:	48 8b 78 08          	mov    0x8(%rax),%rdi
  104f60:	48 8b 30             	mov    (%rax),%rsi
  104f63:	48 89 b4 24 b0 00 00 	mov    %rsi,0xb0(%rsp)
  104f6a:	00 
  104f6b:	e8 90 5e 00 00       	callq  10ae00 <_ZN4core3ptr9const_ptr33_$LT$impl$u20$$BP$const$u20$T$GT$7sub_ptr17hbb5f2b6c27645241E>
  104f70:	48 8b 7c 24 28       	mov    0x28(%rsp),%rdi
  104f75:	48 89 84 24 a0 00 00 	mov    %rax,0xa0(%rsp)
  104f7c:	00 
  104f7d:	48 8b 84 24 a0 00 00 	mov    0xa0(%rsp),%rax
  104f84:	00 
  104f85:	48 89 44 24 30       	mov    %rax,0x30(%rsp)
  104f8a:	48 89 44 24 68       	mov    %rax,0x68(%rsp)
  104f8f:	e8 2c ff ff ff       	callq  104ec0 <_ZN81_$LT$core..str..iter..Chars$u20$as$u20$core..iter..traits..iterator..Iterator$GT$4next17h101504c26a280fb5E>
  104f94:	89 44 24 4c          	mov    %eax,0x4c(%rsp)
  104f98:	b8 01 00 00 00       	mov    $0x1,%eax
  104f9d:	31 c9                	xor    %ecx,%ecx
  104f9f:	81 7c 24 4c 00 00 11 	cmpl   $0x110000,0x4c(%rsp)
  104fa6:	00 
  104fa7:	48 0f 44 c1          	cmove  %rcx,%rax
  104fab:	48 83 f8 00          	cmp    $0x0,%rax
  104faf:	75 0a                	jne    104fbb <_ZN87_$LT$core..str..iter..CharIndices$u20$as$u20$core..iter..traits..iterator..Iterator$GT$4next17hc727fe77ad674e5bE+0x7b>
  104fb1:	c7 44 24 40 00 00 11 	movl   $0x110000,0x40(%rsp)
  104fb8:	00 
  104fb9:	eb 72                	jmp    10502d <_ZN87_$LT$core..str..iter..CharIndices$u20$as$u20$core..iter..traits..iterator..Iterator$GT$4next17hc727fe77ad674e5bE+0xed>
  104fbb:	48 8b 44 24 28       	mov    0x28(%rsp),%rax
  104fc0:	8b 4c 24 4c          	mov    0x4c(%rsp),%ecx
  104fc4:	89 4c 24 14          	mov    %ecx,0x14(%rsp)
  104fc8:	89 4c 24 74          	mov    %ecx,0x74(%rsp)
  104fcc:	48 8b 48 10          	mov    0x10(%rax),%rcx
  104fd0:	48 89 4c 24 18       	mov    %rcx,0x18(%rsp)
  104fd5:	48 89 4c 24 78       	mov    %rcx,0x78(%rsp)
  104fda:	48 89 84 24 90 00 00 	mov    %rax,0x90(%rsp)
  104fe1:	00 
  104fe2:	48 8b 78 08          	mov    0x8(%rax),%rdi
  104fe6:	48 8b 30             	mov    (%rax),%rsi
  104fe9:	48 89 b4 24 98 00 00 	mov    %rsi,0x98(%rsp)
  104ff0:	00 
  104ff1:	e8 0a 5e 00 00       	callq  10ae00 <_ZN4core3ptr9const_ptr33_$LT$impl$u20$$BP$const$u20$T$GT$7sub_ptr17hbb5f2b6c27645241E>
  104ff6:	48 89 c1             	mov    %rax,%rcx
  104ff9:	48 8b 44 24 30       	mov    0x30(%rsp),%rax
  104ffe:	48 89 8c 24 88 00 00 	mov    %rcx,0x88(%rsp)
  105005:	00 
  105006:	48 8b 8c 24 88 00 00 	mov    0x88(%rsp),%rcx
  10500d:	00 
  10500e:	48 89 8c 24 80 00 00 	mov    %rcx,0x80(%rsp)
  105015:	00 
  105016:	48 89 c2             	mov    %rax,%rdx
  105019:	48 29 ca             	sub    %rcx,%rdx
  10501c:	48 89 54 24 20       	mov    %rdx,0x20(%rsp)
  105021:	48 39 c8             	cmp    %rcx,%rax
  105024:	0f 92 c0             	setb   %al
  105027:	a8 01                	test   $0x1,%al
  105029:	75 2f                	jne    10505a <_ZN87_$LT$core..str..iter..CharIndices$u20$as$u20$core..iter..traits..iterator..Iterator$GT$4next17hc727fe77ad674e5bE+0x11a>
  10502b:	eb 11                	jmp    10503e <_ZN87_$LT$core..str..iter..CharIndices$u20$as$u20$core..iter..traits..iterator..Iterator$GT$4next17hc727fe77ad674e5bE+0xfe>
  10502d:	48 8b 44 24 38       	mov    0x38(%rsp),%rax
  105032:	8b 54 24 40          	mov    0x40(%rsp),%edx
  105036:	48 81 c4 b8 00 00 00 	add    $0xb8,%rsp
  10503d:	c3                   	retq   
  10503e:	48 8b 4c 24 28       	mov    0x28(%rsp),%rcx
  105043:	48 8b 44 24 20       	mov    0x20(%rsp),%rax
  105048:	48 03 41 10          	add    0x10(%rcx),%rax
  10504c:	48 89 44 24 08       	mov    %rax,0x8(%rsp)
  105051:	0f 92 c0             	setb   %al
  105054:	a8 01                	test   $0x1,%al
  105056:	75 50                	jne    1050a8 <_ZN87_$LT$core..str..iter..CharIndices$u20$as$u20$core..iter..traits..iterator..Iterator$GT$4next17hc727fe77ad674e5bE+0x168>
  105058:	eb 1a                	jmp    105074 <_ZN87_$LT$core..str..iter..CharIndices$u20$as$u20$core..iter..traits..iterator..Iterator$GT$4next17hc727fe77ad674e5bE+0x134>
  10505a:	48 8d 3d 9f b4 ff ff 	lea    -0x4b61(%rip),%rdi        # 100500 <str.1>
  105061:	48 8d 15 a0 ca 00 00 	lea    0xcaa0(%rip),%rdx        # 111b08 <_ZN4core3fmt2rt12USIZE_MARKER17h1b31419084dfd5e3E+0x110>
  105068:	be 21 00 00 00       	mov    $0x21,%esi
  10506d:	e8 be 03 00 00       	callq  105430 <_ZN4core9panicking5panic17h4e18ef80ec7677b0E>
  105072:	0f 0b                	ud2    
  105074:	8b 44 24 14          	mov    0x14(%rsp),%eax
  105078:	48 8b 4c 24 18       	mov    0x18(%rsp),%rcx
  10507d:	48 8b 54 24 28       	mov    0x28(%rsp),%rdx
  105082:	48 8b 74 24 08       	mov    0x8(%rsp),%rsi
  105087:	48 89 72 10          	mov    %rsi,0x10(%rdx)
  10508b:	48 89 4c 24 50       	mov    %rcx,0x50(%rsp)
  105090:	89 44 24 58          	mov    %eax,0x58(%rsp)
  105094:	48 8b 4c 24 50       	mov    0x50(%rsp),%rcx
  105099:	8b 44 24 58          	mov    0x58(%rsp),%eax
  10509d:	48 89 4c 24 38       	mov    %rcx,0x38(%rsp)
  1050a2:	89 44 24 40          	mov    %eax,0x40(%rsp)
  1050a6:	eb 85                	jmp    10502d <_ZN87_$LT$core..str..iter..CharIndices$u20$as$u20$core..iter..traits..iterator..Iterator$GT$4next17hc727fe77ad674e5bE+0xed>
  1050a8:	48 8d 3d 31 b4 ff ff 	lea    -0x4bcf(%rip),%rdi        # 1004e0 <str.0>
  1050af:	48 8d 15 6a ca 00 00 	lea    0xca6a(%rip),%rdx        # 111b20 <_ZN4core3fmt2rt12USIZE_MARKER17h1b31419084dfd5e3E+0x128>
  1050b6:	be 1c 00 00 00       	mov    $0x1c,%esi
  1050bb:	e8 70 03 00 00       	callq  105430 <_ZN4core9panicking5panic17h4e18ef80ec7677b0E>
  1050c0:	0f 0b                	ud2    
  1050c2:	cc                   	int3   
  1050c3:	cc                   	int3   
  1050c4:	cc                   	int3   
  1050c5:	cc                   	int3   
  1050c6:	cc                   	int3   
  1050c7:	cc                   	int3   
  1050c8:	cc                   	int3   
  1050c9:	cc                   	int3   
  1050ca:	cc                   	int3   
  1050cb:	cc                   	int3   
  1050cc:	cc                   	int3   
  1050cd:	cc                   	int3   
  1050ce:	cc                   	int3   
  1050cf:	cc                   	int3   

00000000001050d0 <_ZN4core3str4iter22SplitInternal$LT$P$GT$7get_end17ha20321284cbac143E>:
  1050d0:	48 83 ec 58          	sub    $0x58,%rsp
  1050d4:	48 89 7c 24 10       	mov    %rdi,0x10(%rsp)
  1050d9:	48 89 7c 24 40       	mov    %rdi,0x40(%rsp)
  1050de:	8a 47 41             	mov    0x41(%rdi),%al
  1050e1:	34 ff                	xor    $0xff,%al
  1050e3:	a8 01                	test   $0x1,%al
  1050e5:	75 0e                	jne    1050f5 <_ZN4core3str4iter22SplitInternal$LT$P$GT$7get_end17ha20321284cbac143E+0x25>
  1050e7:	48 c7 44 24 18 00 00 	movq   $0x0,0x18(%rsp)
  1050ee:	00 00 
  1050f0:	e9 bb 00 00 00       	jmpq   1051b0 <_ZN4core3str4iter22SplitInternal$LT$P$GT$7get_end17ha20321284cbac143E+0xe0>
  1050f5:	48 8b 44 24 10       	mov    0x10(%rsp),%rax
  1050fa:	c6 40 41 01          	movb   $0x1,0x41(%rax)
  1050fe:	f6 40 40 01          	testb  $0x1,0x40(%rax)
  105102:	75 23                	jne    105127 <_ZN4core3str4iter22SplitInternal$LT$P$GT$7get_end17ha20321284cbac143E+0x57>
  105104:	48 8b 4c 24 10       	mov    0x10(%rsp),%rcx
  105109:	48 8b 41 08          	mov    0x8(%rcx),%rax
  10510d:	48 8b 09             	mov    (%rcx),%rcx
  105110:	48 89 c2             	mov    %rax,%rdx
  105113:	48 29 ca             	sub    %rcx,%rdx
  105116:	48 89 54 24 08       	mov    %rdx,0x8(%rsp)
  10511b:	48 39 c8             	cmp    %rcx,%rax
  10511e:	0f 92 c0             	setb   %al
  105121:	a8 01                	test   $0x1,%al
  105123:	75 1d                	jne    105142 <_ZN4core3str4iter22SplitInternal$LT$P$GT$7get_end17ha20321284cbac143E+0x72>
  105125:	eb 07                	jmp    10512e <_ZN4core3str4iter22SplitInternal$LT$P$GT$7get_end17ha20321284cbac143E+0x5e>
  105127:	c6 44 24 2f 01       	movb   $0x1,0x2f(%rsp)
  10512c:	eb 2e                	jmp    10515c <_ZN4core3str4iter22SplitInternal$LT$P$GT$7get_end17ha20321284cbac143E+0x8c>
  10512e:	48 8b 44 24 08       	mov    0x8(%rsp),%rax
  105133:	48 83 f8 00          	cmp    $0x0,%rax
  105137:	0f 97 c0             	seta   %al
  10513a:	24 01                	and    $0x1,%al
  10513c:	88 44 24 2f          	mov    %al,0x2f(%rsp)
  105140:	eb 1a                	jmp    10515c <_ZN4core3str4iter22SplitInternal$LT$P$GT$7get_end17ha20321284cbac143E+0x8c>
  105142:	48 8d 3d b7 b3 ff ff 	lea    -0x4c49(%rip),%rdi        # 100500 <str.1>
  105149:	48 8d 15 e8 c9 00 00 	lea    0xc9e8(%rip),%rdx        # 111b38 <_ZN4core3fmt2rt12USIZE_MARKER17h1b31419084dfd5e3E+0x140>
  105150:	be 21 00 00 00       	mov    $0x21,%esi
  105155:	e8 d6 02 00 00       	callq  105430 <_ZN4core9panicking5panic17h4e18ef80ec7677b0E>
  10515a:	0f 0b                	ud2    
  10515c:	f6 44 24 2f 01       	testb  $0x1,0x2f(%rsp)
  105161:	74 84                	je     1050e7 <_ZN4core3str4iter22SplitInternal$LT$P$GT$7get_end17ha20321284cbac143E+0x17>
  105163:	48 8b 7c 24 10       	mov    0x10(%rsp),%rdi
  105168:	48 83 c7 10          	add    $0x10,%rdi
  10516c:	e8 3f 87 00 00       	callq  10d8b0 <_ZN81_$LT$core..str..pattern..CharSearcher$u20$as$u20$core..str..pattern..Searcher$GT$8haystack17hb9343fe0693df368E>
  105171:	48 89 c7             	mov    %rax,%rdi
  105174:	48 8b 44 24 10       	mov    0x10(%rsp),%rax
  105179:	48 89 d6             	mov    %rdx,%rsi
  10517c:	48 8b 08             	mov    (%rax),%rcx
  10517f:	48 8b 40 08          	mov    0x8(%rax),%rax
  105183:	48 89 4c 24 30       	mov    %rcx,0x30(%rsp)
  105188:	48 89 44 24 38       	mov    %rax,0x38(%rsp)
  10518d:	48 8b 54 24 30       	mov    0x30(%rsp),%rdx
  105192:	48 8b 4c 24 38       	mov    0x38(%rsp),%rcx
  105197:	e8 e4 93 00 00       	callq  10e580 <_ZN4core3str21_$LT$impl$u20$str$GT$13get_unchecked17hd9258b331b6bb031E>
  10519c:	48 89 44 24 48       	mov    %rax,0x48(%rsp)
  1051a1:	48 89 54 24 50       	mov    %rdx,0x50(%rsp)
  1051a6:	48 89 44 24 18       	mov    %rax,0x18(%rsp)
  1051ab:	48 89 54 24 20       	mov    %rdx,0x20(%rsp)
  1051b0:	48 8b 44 24 18       	mov    0x18(%rsp),%rax
  1051b5:	48 8b 54 24 20       	mov    0x20(%rsp),%rdx
  1051ba:	48 83 c4 58          	add    $0x58,%rsp
  1051be:	c3                   	retq   
  1051bf:	cc                   	int3   

00000000001051c0 <_ZN4core3str4iter22SplitInternal$LT$P$GT$14next_inclusive17h1a0db9ad7b425dbfE>:
  1051c0:	48 81 ec 88 00 00 00 	sub    $0x88,%rsp
  1051c7:	48 89 7c 24 18       	mov    %rdi,0x18(%rsp)
  1051cc:	48 89 7c 24 58       	mov    %rdi,0x58(%rsp)
  1051d1:	f6 47 41 01          	testb  $0x1,0x41(%rdi)
  1051d5:	75 3f                	jne    105216 <_ZN4core3str4iter22SplitInternal$LT$P$GT$14next_inclusive17h1a0db9ad7b425dbfE+0x56>
  1051d7:	48 8b 7c 24 18       	mov    0x18(%rsp),%rdi
  1051dc:	48 83 c7 10          	add    $0x10,%rdi
  1051e0:	e8 cb 86 00 00       	callq  10d8b0 <_ZN81_$LT$core..str..pattern..CharSearcher$u20$as$u20$core..str..pattern..Searcher$GT$8haystack17hb9343fe0693df368E>
  1051e5:	48 8b 74 24 18       	mov    0x18(%rsp),%rsi
  1051ea:	48 89 44 24 08       	mov    %rax,0x8(%rsp)
  1051ef:	48 89 54 24 10       	mov    %rdx,0x10(%rsp)
  1051f4:	48 89 44 24 60       	mov    %rax,0x60(%rsp)
  1051f9:	48 89 54 24 68       	mov    %rdx,0x68(%rsp)
  1051fe:	48 83 c6 10          	add    $0x10,%rsi
  105202:	48 8d 7c 24 30       	lea    0x30(%rsp),%rdi
  105207:	e8 b4 86 00 00       	callq  10d8c0 <_ZN81_$LT$core..str..pattern..CharSearcher$u20$as$u20$core..str..pattern..Searcher$GT$10next_match17h225529ddd9fe94c6E>
  10520c:	48 83 7c 24 30 00    	cmpq   $0x0,0x30(%rsp)
  105212:	74 0d                	je     105221 <_ZN4core3str4iter22SplitInternal$LT$P$GT$14next_inclusive17h1a0db9ad7b425dbfE+0x61>
  105214:	eb 21                	jmp    105237 <_ZN4core3str4iter22SplitInternal$LT$P$GT$14next_inclusive17h1a0db9ad7b425dbfE+0x77>
  105216:	48 c7 44 24 20 00 00 	movq   $0x0,0x20(%rsp)
  10521d:	00 00 
  10521f:	eb 72                	jmp    105293 <_ZN4core3str4iter22SplitInternal$LT$P$GT$14next_inclusive17h1a0db9ad7b425dbfE+0xd3>
  105221:	48 8b 7c 24 18       	mov    0x18(%rsp),%rdi
  105226:	e8 a5 fe ff ff       	callq  1050d0 <_ZN4core3str4iter22SplitInternal$LT$P$GT$7get_end17ha20321284cbac143E>
  10522b:	48 89 54 24 28       	mov    %rdx,0x28(%rsp)
  105230:	48 89 44 24 20       	mov    %rax,0x20(%rsp)
  105235:	eb 5c                	jmp    105293 <_ZN4core3str4iter22SplitInternal$LT$P$GT$14next_inclusive17h1a0db9ad7b425dbfE+0xd3>
  105237:	48 8b 4c 24 18       	mov    0x18(%rsp),%rcx
  10523c:	48 8b 74 24 10       	mov    0x10(%rsp),%rsi
  105241:	48 8b 7c 24 08       	mov    0x8(%rsp),%rdi
  105246:	48 8b 44 24 40       	mov    0x40(%rsp),%rax
  10524b:	48 89 04 24          	mov    %rax,(%rsp)
  10524f:	48 89 44 24 70       	mov    %rax,0x70(%rsp)
  105254:	48 8b 09             	mov    (%rcx),%rcx
  105257:	48 89 4c 24 48       	mov    %rcx,0x48(%rsp)
  10525c:	48 89 44 24 50       	mov    %rax,0x50(%rsp)
  105261:	48 8b 54 24 48       	mov    0x48(%rsp),%rdx
  105266:	48 8b 4c 24 50       	mov    0x50(%rsp),%rcx
  10526b:	e8 10 93 00 00       	callq  10e580 <_ZN4core3str21_$LT$impl$u20$str$GT$13get_unchecked17hd9258b331b6bb031E>
  105270:	48 8b 34 24          	mov    (%rsp),%rsi
  105274:	48 8b 4c 24 18       	mov    0x18(%rsp),%rcx
  105279:	48 89 44 24 78       	mov    %rax,0x78(%rsp)
  10527e:	48 89 94 24 80 00 00 	mov    %rdx,0x80(%rsp)
  105285:	00 
  105286:	48 89 31             	mov    %rsi,(%rcx)
  105289:	48 89 44 24 20       	mov    %rax,0x20(%rsp)
  10528e:	48 89 54 24 28       	mov    %rdx,0x28(%rsp)
  105293:	48 8b 44 24 20       	mov    0x20(%rsp),%rax
  105298:	48 8b 54 24 28       	mov    0x28(%rsp),%rdx
  10529d:	48 81 c4 88 00 00 00 	add    $0x88,%rsp
  1052a4:	c3                   	retq   
  1052a5:	cc                   	int3   
  1052a6:	cc                   	int3   
  1052a7:	cc                   	int3   
  1052a8:	cc                   	int3   
  1052a9:	cc                   	int3   
  1052aa:	cc                   	int3   
  1052ab:	cc                   	int3   
  1052ac:	cc                   	int3   
  1052ad:	cc                   	int3   
  1052ae:	cc                   	int3   
  1052af:	cc                   	int3   

00000000001052b0 <_ZN99_$LT$core..str..iter..SplitInclusive$LT$P$GT$$u20$as$u20$core..iter..traits..iterator..Iterator$GT$4next17hf904b57f1b7d4b2aE>:
  1052b0:	50                   	push   %rax
  1052b1:	48 89 3c 24          	mov    %rdi,(%rsp)
  1052b5:	e8 06 ff ff ff       	callq  1051c0 <_ZN4core3str4iter22SplitInternal$LT$P$GT$14next_inclusive17h1a0db9ad7b425dbfE>
  1052ba:	59                   	pop    %rcx
  1052bb:	c3                   	retq   
  1052bc:	cc                   	int3   
  1052bd:	cc                   	int3   
  1052be:	cc                   	int3   
  1052bf:	cc                   	int3   

00000000001052c0 <_ZN4core3cmp5impls54_$LT$impl$u20$core..cmp..PartialEq$u20$for$u20$u32$GT$2eq17h2b4ce7943cedff3dE>:
  1052c0:	48 83 ec 10          	sub    $0x10,%rsp
  1052c4:	48 89 3c 24          	mov    %rdi,(%rsp)
  1052c8:	48 89 74 24 08       	mov    %rsi,0x8(%rsp)
  1052cd:	8b 07                	mov    (%rdi),%eax
  1052cf:	3b 06                	cmp    (%rsi),%eax
  1052d1:	0f 94 c0             	sete   %al
  1052d4:	24 01                	and    $0x1,%al
  1052d6:	0f b6 c0             	movzbl %al,%eax
  1052d9:	48 83 c4 10          	add    $0x10,%rsp
  1052dd:	c3                   	retq   
  1052de:	cc                   	int3   
  1052df:	cc                   	int3   

00000000001052e0 <_ZN4core3cmp5impls50_$LT$impl$u20$core..cmp..Ord$u20$for$u20$usize$GT$3cmp17he2ff75c2ca83d4d4E>:
  1052e0:	48 83 ec 28          	sub    $0x28,%rsp
  1052e4:	48 89 34 24          	mov    %rsi,(%rsp)
  1052e8:	48 89 7c 24 08       	mov    %rdi,0x8(%rsp)
  1052ed:	48 89 7c 24 18       	mov    %rdi,0x18(%rsp)
  1052f2:	48 89 74 24 20       	mov    %rsi,0x20(%rsp)
  1052f7:	48 8b 07             	mov    (%rdi),%rax
  1052fa:	48 3b 06             	cmp    (%rsi),%rax
  1052fd:	72 13                	jb     105312 <_ZN4core3cmp5impls50_$LT$impl$u20$core..cmp..Ord$u20$for$u20$usize$GT$3cmp17he2ff75c2ca83d4d4E+0x32>
  1052ff:	48 8b 0c 24          	mov    (%rsp),%rcx
  105303:	48 8b 44 24 08       	mov    0x8(%rsp),%rax
  105308:	48 8b 00             	mov    (%rax),%rax
  10530b:	48 3b 01             	cmp    (%rcx),%rax
  10530e:	74 10                	je     105320 <_ZN4core3cmp5impls50_$LT$impl$u20$core..cmp..Ord$u20$for$u20$usize$GT$3cmp17he2ff75c2ca83d4d4E+0x40>
  105310:	eb 07                	jmp    105319 <_ZN4core3cmp5impls50_$LT$impl$u20$core..cmp..Ord$u20$for$u20$usize$GT$3cmp17he2ff75c2ca83d4d4E+0x39>
  105312:	c6 44 24 17 ff       	movb   $0xff,0x17(%rsp)
  105317:	eb 0c                	jmp    105325 <_ZN4core3cmp5impls50_$LT$impl$u20$core..cmp..Ord$u20$for$u20$usize$GT$3cmp17he2ff75c2ca83d4d4E+0x45>
  105319:	c6 44 24 17 01       	movb   $0x1,0x17(%rsp)
  10531e:	eb 05                	jmp    105325 <_ZN4core3cmp5impls50_$LT$impl$u20$core..cmp..Ord$u20$for$u20$usize$GT$3cmp17he2ff75c2ca83d4d4E+0x45>
  105320:	c6 44 24 17 00       	movb   $0x0,0x17(%rsp)
  105325:	8a 44 24 17          	mov    0x17(%rsp),%al
  105329:	48 83 c4 28          	add    $0x28,%rsp
  10532d:	c3                   	retq   
  10532e:	cc                   	int3   
  10532f:	cc                   	int3   

0000000000105330 <_ZN4core5array98_$LT$impl$u20$core..iter..traits..collect..IntoIterator$u20$for$u20$$RF$$u5b$T$u3b$$u20$N$u5d$$GT$9into_iter17he09951e687258953E>:
  105330:	50                   	push   %rax
  105331:	48 89 3c 24          	mov    %rdi,(%rsp)
  105335:	be 04 00 00 00       	mov    $0x4,%esi
  10533a:	e8 b1 95 00 00       	callq  10e8f0 <_ZN4core5slice29_$LT$impl$u20$$u5b$T$u5d$$GT$4iter17h56799e9d3f578d01E>
  10533f:	59                   	pop    %rcx
  105340:	c3                   	retq   
  105341:	cc                   	int3   
  105342:	cc                   	int3   
  105343:	cc                   	int3   
  105344:	cc                   	int3   
  105345:	cc                   	int3   
  105346:	cc                   	int3   
  105347:	cc                   	int3   
  105348:	cc                   	int3   
  105349:	cc                   	int3   
  10534a:	cc                   	int3   
  10534b:	cc                   	int3   
  10534c:	cc                   	int3   
  10534d:	cc                   	int3   
  10534e:	cc                   	int3   
  10534f:	cc                   	int3   

0000000000105350 <_ZN4core5array85_$LT$impl$u20$core..ops..index..Index$LT$I$GT$$u20$for$u20$$u5b$T$u3b$$u20$N$u5d$$GT$5index17h6bb29940a57e1a65E>:
  105350:	48 83 ec 18          	sub    $0x18,%rsp
  105354:	49 89 c8             	mov    %rcx,%r8
  105357:	48 89 d1             	mov    %rdx,%rcx
  10535a:	48 89 f2             	mov    %rsi,%rdx
  10535d:	48 89 3c 24          	mov    %rdi,(%rsp)
  105361:	48 89 54 24 08       	mov    %rdx,0x8(%rsp)
  105366:	48 89 4c 24 10       	mov    %rcx,0x10(%rsp)
  10536b:	be 04 00 00 00       	mov    $0x4,%esi
  105370:	e8 eb 3b 00 00       	callq  108f60 <_ZN4core5slice5index74_$LT$impl$u20$core..ops..index..Index$LT$I$GT$$u20$for$u20$$u5b$T$u5d$$GT$5index17hb2e1033ffd049f25E>
  105375:	48 83 c4 18          	add    $0x18,%rsp
  105379:	c3                   	retq   
  10537a:	cc                   	int3   
  10537b:	cc                   	int3   
  10537c:	cc                   	int3   
  10537d:	cc                   	int3   
  10537e:	cc                   	int3   
  10537f:	cc                   	int3   

0000000000105380 <_ZN4core9panicking9panic_fmt17hec0a0bac075b5c3fE>:
  105380:	48 83 ec 48          	sub    $0x48,%rsp
  105384:	48 89 74 24 08       	mov    %rsi,0x8(%rsp)
  105389:	48 89 7c 24 10       	mov    %rdi,0x10(%rsp)
  10538e:	31 c0                	xor    %eax,%eax
  105390:	a8 01                	test   $0x1,%al
  105392:	75 3a                	jne    1053ce <_ZN4core9panicking9panic_fmt17hec0a0bac075b5c3fE+0x4e>
  105394:	48 8b 7c 24 08       	mov    0x8(%rsp),%rdi
  105399:	48 8b 44 24 10       	mov    0x10(%rsp),%rax
  10539e:	48 89 44 24 40       	mov    %rax,0x40(%rsp)
  1053a3:	e8 b8 04 00 00       	callq  105860 <_ZN4core5panic8location8Location6caller17h9f07b5a511e2a51fE>
  1053a8:	48 89 c2             	mov    %rax,%rdx
  1053ab:	48 8b 74 24 40       	mov    0x40(%rsp),%rsi
  1053b0:	48 8d 7c 24 18       	lea    0x18(%rsp),%rdi
  1053b5:	48 89 3c 24          	mov    %rdi,(%rsp)
  1053b9:	b9 01 00 00 00       	mov    $0x1,%ecx
  1053be:	e8 1d 15 00 00       	callq  1068e0 <_ZN4core5panic10panic_info9PanicInfo20internal_constructor17he151c307f1b4aaccE>
  1053c3:	48 8b 3c 24          	mov    (%rsp),%rdi
  1053c7:	e8 c4 dd ff ff       	callq  103190 <rust_begin_unwind>
  1053cc:	0f 0b                	ud2    
  1053ce:	0f 0b                	ud2    
  1053d0:	0f 0b                	ud2    
  1053d2:	cc                   	int3   
  1053d3:	cc                   	int3   
  1053d4:	cc                   	int3   
  1053d5:	cc                   	int3   
  1053d6:	cc                   	int3   
  1053d7:	cc                   	int3   
  1053d8:	cc                   	int3   
  1053d9:	cc                   	int3   
  1053da:	cc                   	int3   
  1053db:	cc                   	int3   
  1053dc:	cc                   	int3   
  1053dd:	cc                   	int3   
  1053de:	cc                   	int3   
  1053df:	cc                   	int3   

00000000001053e0 <_ZN4core9panicking18panic_nounwind_fmt17ha6919160db13d012E>:
  1053e0:	48 83 ec 48          	sub    $0x48,%rsp
  1053e4:	48 89 74 24 08       	mov    %rsi,0x8(%rsp)
  1053e9:	48 89 7c 24 10       	mov    %rdi,0x10(%rsp)
  1053ee:	31 c0                	xor    %eax,%eax
  1053f0:	a8 01                	test   $0x1,%al
  1053f2:	75 37                	jne    10542b <_ZN4core9panicking18panic_nounwind_fmt17ha6919160db13d012E+0x4b>
  1053f4:	48 8b 7c 24 08       	mov    0x8(%rsp),%rdi
  1053f9:	48 8b 44 24 10       	mov    0x10(%rsp),%rax
  1053fe:	48 89 44 24 40       	mov    %rax,0x40(%rsp)
  105403:	e8 58 04 00 00       	callq  105860 <_ZN4core5panic8location8Location6caller17h9f07b5a511e2a51fE>
  105408:	48 89 c2             	mov    %rax,%rdx
  10540b:	48 8b 74 24 40       	mov    0x40(%rsp),%rsi
  105410:	48 8d 7c 24 18       	lea    0x18(%rsp),%rdi
  105415:	48 89 3c 24          	mov    %rdi,(%rsp)
  105419:	31 c9                	xor    %ecx,%ecx
  10541b:	e8 c0 14 00 00       	callq  1068e0 <_ZN4core5panic10panic_info9PanicInfo20internal_constructor17he151c307f1b4aaccE>
  105420:	48 8b 3c 24          	mov    (%rsp),%rdi
  105424:	e8 67 dd ff ff       	callq  103190 <rust_begin_unwind>
  105429:	0f 0b                	ud2    
  10542b:	0f 0b                	ud2    
  10542d:	0f 0b                	ud2    
  10542f:	cc                   	int3   

0000000000105430 <_ZN4core9panicking5panic17h4e18ef80ec7677b0E>:
  105430:	48 83 ec 68          	sub    $0x68,%rsp
  105434:	48 89 54 24 10       	mov    %rdx,0x10(%rsp)
  105439:	48 89 7c 24 58       	mov    %rdi,0x58(%rsp)
  10543e:	48 89 74 24 60       	mov    %rsi,0x60(%rsp)
  105443:	48 89 7c 24 48       	mov    %rdi,0x48(%rsp)
  105448:	48 89 74 24 50       	mov    %rsi,0x50(%rsp)
  10544d:	48 8d 7c 24 18       	lea    0x18(%rsp),%rdi
  105452:	48 89 7c 24 08       	mov    %rdi,0x8(%rsp)
  105457:	48 8d 74 24 48       	lea    0x48(%rsp),%rsi
  10545c:	ba 01 00 00 00       	mov    $0x1,%edx
  105461:	e8 0a 20 00 00       	callq  107470 <_ZN4core3fmt9Arguments9new_const17hd728abf84ff8d077E>
  105466:	48 8b 7c 24 08       	mov    0x8(%rsp),%rdi
  10546b:	48 8b 74 24 10       	mov    0x10(%rsp),%rsi
  105470:	e8 0b ff ff ff       	callq  105380 <_ZN4core9panicking9panic_fmt17hec0a0bac075b5c3fE>
  105475:	0f 0b                	ud2    
  105477:	cc                   	int3   
  105478:	cc                   	int3   
  105479:	cc                   	int3   
  10547a:	cc                   	int3   
  10547b:	cc                   	int3   
  10547c:	cc                   	int3   
  10547d:	cc                   	int3   
  10547e:	cc                   	int3   
  10547f:	cc                   	int3   

0000000000105480 <_ZN4core9panicking14panic_nounwind17hbf97f84b8fd59176E>:
  105480:	48 83 ec 58          	sub    $0x58,%rsp
  105484:	48 89 7c 24 48       	mov    %rdi,0x48(%rsp)
  105489:	48 89 74 24 50       	mov    %rsi,0x50(%rsp)
  10548e:	48 89 7c 24 38       	mov    %rdi,0x38(%rsp)
  105493:	48 89 74 24 40       	mov    %rsi,0x40(%rsp)
  105498:	48 8d 7c 24 08       	lea    0x8(%rsp),%rdi
  10549d:	48 89 3c 24          	mov    %rdi,(%rsp)
  1054a1:	48 8d 74 24 38       	lea    0x38(%rsp),%rsi
  1054a6:	ba 01 00 00 00       	mov    $0x1,%edx
  1054ab:	e8 c0 1f 00 00       	callq  107470 <_ZN4core3fmt9Arguments9new_const17hd728abf84ff8d077E>
  1054b0:	48 8b 3c 24          	mov    (%rsp),%rdi
  1054b4:	48 8d 35 95 c6 00 00 	lea    0xc695(%rip),%rsi        # 111b50 <_ZN4core3fmt2rt12USIZE_MARKER17h1b31419084dfd5e3E+0x158>
  1054bb:	e8 20 ff ff ff       	callq  1053e0 <_ZN4core9panicking18panic_nounwind_fmt17ha6919160db13d012E>
  1054c0:	0f 0b                	ud2    
  1054c2:	cc                   	int3   
  1054c3:	cc                   	int3   
  1054c4:	cc                   	int3   
  1054c5:	cc                   	int3   
  1054c6:	cc                   	int3   
  1054c7:	cc                   	int3   
  1054c8:	cc                   	int3   
  1054c9:	cc                   	int3   
  1054ca:	cc                   	int3   
  1054cb:	cc                   	int3   
  1054cc:	cc                   	int3   
  1054cd:	cc                   	int3   
  1054ce:	cc                   	int3   
  1054cf:	cc                   	int3   

00000000001054d0 <_ZN4core9panicking9panic_str17h991b9aac80059701E>:
  1054d0:	48 83 ec 18          	sub    $0x18,%rsp
  1054d4:	48 89 14 24          	mov    %rdx,(%rsp)
  1054d8:	48 89 f0             	mov    %rsi,%rax
  1054db:	48 8b 34 24          	mov    (%rsp),%rsi
  1054df:	48 89 7c 24 08       	mov    %rdi,0x8(%rsp)
  1054e4:	48 89 44 24 10       	mov    %rax,0x10(%rsp)
  1054e9:	48 8d 7c 24 08       	lea    0x8(%rsp),%rdi
  1054ee:	e8 0d 00 00 00       	callq  105500 <_ZN4core9panicking13panic_display17h64827573d3d9299fE>
  1054f3:	0f 0b                	ud2    
  1054f5:	cc                   	int3   
  1054f6:	cc                   	int3   
  1054f7:	cc                   	int3   
  1054f8:	cc                   	int3   
  1054f9:	cc                   	int3   
  1054fa:	cc                   	int3   
  1054fb:	cc                   	int3   
  1054fc:	cc                   	int3   
  1054fd:	cc                   	int3   
  1054fe:	cc                   	int3   
  1054ff:	cc                   	int3   

0000000000105500 <_ZN4core9panicking13panic_display17h64827573d3d9299fE>:
  105500:	48 81 ec 88 00 00 00 	sub    $0x88,%rsp
  105507:	48 89 74 24 10       	mov    %rsi,0x10(%rsp)
  10550c:	48 89 7c 24 58       	mov    %rdi,0x58(%rsp)
  105511:	48 89 7c 24 60       	mov    %rdi,0x60(%rsp)
  105516:	48 89 7c 24 78       	mov    %rdi,0x78(%rsp)
  10551b:	48 8b 05 8e d0 00 00 	mov    0xd08e(%rip),%rax        # 1125b0 <_ZN4core3fmt2rt12USIZE_MARKER17h1b31419084dfd5e3E+0xbb8>
  105522:	48 89 84 24 80 00 00 	mov    %rax,0x80(%rsp)
  105529:	00 
  10552a:	48 89 7c 24 68       	mov    %rdi,0x68(%rsp)
  10552f:	48 89 44 24 70       	mov    %rax,0x70(%rsp)
  105534:	48 8b 4c 24 68       	mov    0x68(%rsp),%rcx
  105539:	48 8b 44 24 70       	mov    0x70(%rsp),%rax
  10553e:	48 89 4c 24 48       	mov    %rcx,0x48(%rsp)
  105543:	48 89 44 24 50       	mov    %rax,0x50(%rsp)
  105548:	48 8d 35 19 c6 00 00 	lea    0xc619(%rip),%rsi        # 111b68 <_ZN4core3fmt2rt12USIZE_MARKER17h1b31419084dfd5e3E+0x170>
  10554f:	48 8d 7c 24 18       	lea    0x18(%rsp),%rdi
  105554:	48 89 7c 24 08       	mov    %rdi,0x8(%rsp)
  105559:	48 8d 4c 24 48       	lea    0x48(%rsp),%rcx
  10555e:	41 b8 01 00 00 00    	mov    $0x1,%r8d
  105564:	4c 89 c2             	mov    %r8,%rdx
  105567:	e8 b4 1f 00 00       	callq  107520 <_ZN4core3fmt9Arguments6new_v117hf5fe601b2a956546E>
  10556c:	48 8b 7c 24 08       	mov    0x8(%rsp),%rdi
  105571:	48 8b 74 24 10       	mov    0x10(%rsp),%rsi
  105576:	e8 05 fe ff ff       	callq  105380 <_ZN4core9panicking9panic_fmt17hec0a0bac075b5c3fE>
  10557b:	0f 0b                	ud2    
  10557d:	cc                   	int3   
  10557e:	cc                   	int3   
  10557f:	cc                   	int3   

0000000000105580 <_ZN4core9panicking18panic_bounds_check17h9c2d2bb408d89b4aE>:
  105580:	48 81 ec c8 00 00 00 	sub    $0xc8,%rsp
  105587:	48 89 54 24 10       	mov    %rdx,0x10(%rsp)
  10558c:	48 89 7c 24 18       	mov    %rdi,0x18(%rsp)
  105591:	48 89 74 24 20       	mov    %rsi,0x20(%rsp)
  105596:	31 c0                	xor    %eax,%eax
  105598:	a8 01                	test   $0x1,%al
  10559a:	0f 85 c7 00 00 00    	jne    105667 <_ZN4core9panicking18panic_bounds_check17h9c2d2bb408d89b4aE+0xe7>
  1055a0:	48 8d 4c 24 20       	lea    0x20(%rsp),%rcx
  1055a5:	48 89 8c 24 a0 00 00 	mov    %rcx,0xa0(%rsp)
  1055ac:	00 
  1055ad:	48 89 8c 24 b8 00 00 	mov    %rcx,0xb8(%rsp)
  1055b4:	00 
  1055b5:	48 8b 05 e4 cf 00 00 	mov    0xcfe4(%rip),%rax        # 1125a0 <_ZN4core3fmt2rt12USIZE_MARKER17h1b31419084dfd5e3E+0xba8>
  1055bc:	48 89 84 24 c0 00 00 	mov    %rax,0xc0(%rsp)
  1055c3:	00 
  1055c4:	48 89 8c 24 a8 00 00 	mov    %rcx,0xa8(%rsp)
  1055cb:	00 
  1055cc:	48 89 84 24 b0 00 00 	mov    %rax,0xb0(%rsp)
  1055d3:	00 
  1055d4:	48 8b b4 24 a8 00 00 	mov    0xa8(%rsp),%rsi
  1055db:	00 
  1055dc:	48 8b 94 24 b0 00 00 	mov    0xb0(%rsp),%rdx
  1055e3:	00 
  1055e4:	48 8d 4c 24 18       	lea    0x18(%rsp),%rcx
  1055e9:	48 89 4c 24 78       	mov    %rcx,0x78(%rsp)
  1055ee:	48 89 8c 24 90 00 00 	mov    %rcx,0x90(%rsp)
  1055f5:	00 
  1055f6:	48 89 84 24 98 00 00 	mov    %rax,0x98(%rsp)
  1055fd:	00 
  1055fe:	48 89 8c 24 80 00 00 	mov    %rcx,0x80(%rsp)
  105605:	00 
  105606:	48 89 84 24 88 00 00 	mov    %rax,0x88(%rsp)
  10560d:	00 
  10560e:	48 8b 8c 24 80 00 00 	mov    0x80(%rsp),%rcx
  105615:	00 
  105616:	48 8b 84 24 88 00 00 	mov    0x88(%rsp),%rax
  10561d:	00 
  10561e:	48 89 74 24 58       	mov    %rsi,0x58(%rsp)
  105623:	48 89 54 24 60       	mov    %rdx,0x60(%rsp)
  105628:	48 89 4c 24 68       	mov    %rcx,0x68(%rsp)
  10562d:	48 89 44 24 70       	mov    %rax,0x70(%rsp)
  105632:	48 8d 35 3f c5 00 00 	lea    0xc53f(%rip),%rsi        # 111b78 <_ZN4core3fmt2rt12USIZE_MARKER17h1b31419084dfd5e3E+0x180>
  105639:	48 8d 7c 24 28       	lea    0x28(%rsp),%rdi
  10563e:	48 89 7c 24 08       	mov    %rdi,0x8(%rsp)
  105643:	48 8d 4c 24 58       	lea    0x58(%rsp),%rcx
  105648:	41 b8 02 00 00 00    	mov    $0x2,%r8d
  10564e:	4c 89 c2             	mov    %r8,%rdx
  105651:	e8 ca 1e 00 00       	callq  107520 <_ZN4core3fmt9Arguments6new_v117hf5fe601b2a956546E>
  105656:	48 8b 7c 24 08       	mov    0x8(%rsp),%rdi
  10565b:	48 8b 74 24 10       	mov    0x10(%rsp),%rsi
  105660:	e8 1b fd ff ff       	callq  105380 <_ZN4core9panicking9panic_fmt17hec0a0bac075b5c3fE>
  105665:	0f 0b                	ud2    
  105667:	0f 0b                	ud2    
  105669:	0f 0b                	ud2    
  10566b:	cc                   	int3   
  10566c:	cc                   	int3   
  10566d:	cc                   	int3   
  10566e:	cc                   	int3   
  10566f:	cc                   	int3   

0000000000105670 <_ZN45_$LT$u32$u20$as$u20$core..ops..arith..Sub$GT$3sub17h4dd339a361368dd0E>:
  105670:	48 83 ec 18          	sub    $0x18,%rsp
  105674:	89 7c 24 10          	mov    %edi,0x10(%rsp)
  105678:	89 74 24 14          	mov    %esi,0x14(%rsp)
  10567c:	89 f8                	mov    %edi,%eax
  10567e:	29 f0                	sub    %esi,%eax
  105680:	89 44 24 0c          	mov    %eax,0xc(%rsp)
  105684:	39 f7                	cmp    %esi,%edi
  105686:	0f 92 c0             	setb   %al
  105689:	a8 01                	test   $0x1,%al
  10568b:	75 09                	jne    105696 <_ZN45_$LT$u32$u20$as$u20$core..ops..arith..Sub$GT$3sub17h4dd339a361368dd0E+0x26>
  10568d:	8b 44 24 0c          	mov    0xc(%rsp),%eax
  105691:	48 83 c4 18          	add    $0x18,%rsp
  105695:	c3                   	retq   
  105696:	48 8d 3d d3 b1 ff ff 	lea    -0x4e2d(%rip),%rdi        # 100870 <str.1>
  10569d:	48 8d 15 f4 c4 00 00 	lea    0xc4f4(%rip),%rdx        # 111b98 <_ZN4core3fmt2rt12USIZE_MARKER17h1b31419084dfd5e3E+0x1a0>
  1056a4:	be 21 00 00 00       	mov    $0x21,%esi
  1056a9:	e8 82 fd ff ff       	callq  105430 <_ZN4core9panicking5panic17h4e18ef80ec7677b0E>
  1056ae:	0f 0b                	ud2    

00000000001056b0 <_ZN45_$LT$u32$u20$as$u20$core..ops..arith..Div$GT$3div17hfec528789fc0eac3E>:
  1056b0:	48 83 ec 18          	sub    $0x18,%rsp
  1056b4:	89 74 24 08          	mov    %esi,0x8(%rsp)
  1056b8:	89 7c 24 0c          	mov    %edi,0xc(%rsp)
  1056bc:	89 7c 24 10          	mov    %edi,0x10(%rsp)
  1056c0:	89 74 24 14          	mov    %esi,0x14(%rsp)
  1056c4:	83 fe 00             	cmp    $0x0,%esi
  1056c7:	0f 94 c0             	sete   %al
  1056ca:	a8 01                	test   $0x1,%al
  1056cc:	75 11                	jne    1056df <_ZN45_$LT$u32$u20$as$u20$core..ops..arith..Div$GT$3div17hfec528789fc0eac3E+0x2f>
  1056ce:	8b 4c 24 08          	mov    0x8(%rsp),%ecx
  1056d2:	8b 44 24 0c          	mov    0xc(%rsp),%eax
  1056d6:	31 d2                	xor    %edx,%edx
  1056d8:	f7 f1                	div    %ecx
  1056da:	48 83 c4 18          	add    $0x18,%rsp
  1056de:	c3                   	retq   
  1056df:	48 8d 3d 0a b3 ff ff 	lea    -0x4cf6(%rip),%rdi        # 1009f0 <str.4>
  1056e6:	48 8d 15 c3 c4 00 00 	lea    0xc4c3(%rip),%rdx        # 111bb0 <_ZN4core3fmt2rt12USIZE_MARKER17h1b31419084dfd5e3E+0x1b8>
  1056ed:	be 19 00 00 00       	mov    $0x19,%esi
  1056f2:	e8 39 fd ff ff       	callq  105430 <_ZN4core9panicking5panic17h4e18ef80ec7677b0E>
  1056f7:	0f 0b                	ud2    
  1056f9:	cc                   	int3   
  1056fa:	cc                   	int3   
  1056fb:	cc                   	int3   
  1056fc:	cc                   	int3   
  1056fd:	cc                   	int3   
  1056fe:	cc                   	int3   
  1056ff:	cc                   	int3   

0000000000105700 <_ZN45_$LT$u32$u20$as$u20$core..ops..arith..Rem$GT$3rem17h2a20ee2d81e88ffeE>:
  105700:	48 83 ec 18          	sub    $0x18,%rsp
  105704:	89 74 24 08          	mov    %esi,0x8(%rsp)
  105708:	89 7c 24 0c          	mov    %edi,0xc(%rsp)
  10570c:	89 7c 24 10          	mov    %edi,0x10(%rsp)
  105710:	89 74 24 14          	mov    %esi,0x14(%rsp)
  105714:	83 fe 00             	cmp    $0x0,%esi
  105717:	0f 94 c0             	sete   %al
  10571a:	a8 01                	test   $0x1,%al
  10571c:	75 13                	jne    105731 <_ZN45_$LT$u32$u20$as$u20$core..ops..arith..Rem$GT$3rem17h2a20ee2d81e88ffeE+0x31>
  10571e:	8b 4c 24 08          	mov    0x8(%rsp),%ecx
  105722:	8b 44 24 0c          	mov    0xc(%rsp),%eax
  105726:	31 d2                	xor    %edx,%edx
  105728:	f7 f1                	div    %ecx
  10572a:	89 d0                	mov    %edx,%eax
  10572c:	48 83 c4 18          	add    $0x18,%rsp
  105730:	c3                   	retq   
  105731:	48 8d 3d d8 b2 ff ff 	lea    -0x4d28(%rip),%rdi        # 100a10 <str.5>
  105738:	48 8d 15 89 c4 00 00 	lea    0xc489(%rip),%rdx        # 111bc8 <_ZN4core3fmt2rt12USIZE_MARKER17h1b31419084dfd5e3E+0x1d0>
  10573f:	be 39 00 00 00       	mov    $0x39,%esi
  105744:	e8 e7 fc ff ff       	callq  105430 <_ZN4core9panicking5panic17h4e18ef80ec7677b0E>
  105749:	0f 0b                	ud2    
  10574b:	cc                   	int3   
  10574c:	cc                   	int3   
  10574d:	cc                   	int3   
  10574e:	cc                   	int3   
  10574f:	cc                   	int3   

0000000000105750 <_ZN4core3mem11size_of_val17h4152d2cbe385700fE>:
  105750:	48 83 ec 18          	sub    $0x18,%rsp
  105754:	48 89 3c 24          	mov    %rdi,(%rsp)
  105758:	48 89 74 24 08       	mov    %rsi,0x8(%rsp)
  10575d:	48 c1 e6 00          	shl    $0x0,%rsi
  105761:	48 89 74 24 10       	mov    %rsi,0x10(%rsp)
  105766:	48 8b 44 24 10       	mov    0x10(%rsp),%rax
  10576b:	48 83 c4 18          	add    $0x18,%rsp
  10576f:	c3                   	retq   

0000000000105770 <_ZN4core3mem7replace17hcd5cc807d1a20198E>:
  105770:	48 83 ec 28          	sub    $0x28,%rsp
  105774:	48 89 7c 24 08       	mov    %rdi,0x8(%rsp)
  105779:	40 88 f0             	mov    %sil,%al
  10577c:	88 44 24 16          	mov    %al,0x16(%rsp)
  105780:	48 89 7c 24 18       	mov    %rdi,0x18(%rsp)
  105785:	88 44 24 26          	mov    %al,0x26(%rsp)
  105789:	e8 42 87 00 00       	callq  10ded0 <_ZN4core3ptr4read17h4cc3dedf7e0ab85bE>
  10578e:	48 8b 7c 24 08       	mov    0x8(%rsp),%rdi
  105793:	88 c1                	mov    %al,%cl
  105795:	8a 44 24 16          	mov    0x16(%rsp),%al
  105799:	88 4c 24 17          	mov    %cl,0x17(%rsp)
  10579d:	88 4c 24 27          	mov    %cl,0x27(%rsp)
  1057a1:	0f b6 f0             	movzbl %al,%esi
  1057a4:	e8 e7 87 00 00       	callq  10df90 <_ZN4core3ptr5write17h0c91e808b1f35b6fE>
  1057a9:	8a 44 24 17          	mov    0x17(%rsp),%al
  1057ad:	48 83 c4 28          	add    $0x28,%rsp
  1057b1:	c3                   	retq   
  1057b2:	cc                   	int3   
  1057b3:	cc                   	int3   
  1057b4:	cc                   	int3   
  1057b5:	cc                   	int3   
  1057b6:	cc                   	int3   
  1057b7:	cc                   	int3   
  1057b8:	cc                   	int3   
  1057b9:	cc                   	int3   
  1057ba:	cc                   	int3   
  1057bb:	cc                   	int3   
  1057bc:	cc                   	int3   
  1057bd:	cc                   	int3   
  1057be:	cc                   	int3   
  1057bf:	cc                   	int3   

00000000001057c0 <_ZN4core3mem7replace17hddd00f37216a66e7E>:
  1057c0:	48 83 ec 28          	sub    $0x28,%rsp
  1057c4:	89 74 24 10          	mov    %esi,0x10(%rsp)
  1057c8:	48 89 7c 24 08       	mov    %rdi,0x8(%rsp)
  1057cd:	48 89 7c 24 18       	mov    %rdi,0x18(%rsp)
  1057d2:	89 74 24 20          	mov    %esi,0x20(%rsp)
  1057d6:	e8 55 87 00 00       	callq  10df30 <_ZN4core3ptr4read17h4eb60ace77802388E>
  1057db:	48 8b 7c 24 08       	mov    0x8(%rsp),%rdi
  1057e0:	8b 74 24 10          	mov    0x10(%rsp),%esi
  1057e4:	89 44 24 14          	mov    %eax,0x14(%rsp)
  1057e8:	89 44 24 24          	mov    %eax,0x24(%rsp)
  1057ec:	e8 0f 88 00 00       	callq  10e000 <_ZN4core3ptr5write17h1d58b5a2bff5ba4eE>
  1057f1:	8b 44 24 14          	mov    0x14(%rsp),%eax
  1057f5:	48 83 c4 28          	add    $0x28,%rsp
  1057f9:	c3                   	retq   
  1057fa:	cc                   	int3   
  1057fb:	cc                   	int3   
  1057fc:	cc                   	int3   
  1057fd:	cc                   	int3   
  1057fe:	cc                   	int3   
  1057ff:	cc                   	int3   

0000000000105800 <_ZN4core4iter8adapters3rev12Rev$LT$T$GT$3new17h07e7d159b038d3e5E>:
  105800:	48 83 ec 20          	sub    $0x20,%rsp
  105804:	48 89 7c 24 10       	mov    %rdi,0x10(%rsp)
  105809:	48 89 74 24 18       	mov    %rsi,0x18(%rsp)
  10580e:	48 89 3c 24          	mov    %rdi,(%rsp)
  105812:	48 89 74 24 08       	mov    %rsi,0x8(%rsp)
  105817:	48 8b 04 24          	mov    (%rsp),%rax
  10581b:	48 8b 54 24 08       	mov    0x8(%rsp),%rdx
  105820:	48 83 c4 20          	add    $0x20,%rsp
  105824:	c3                   	retq   
  105825:	cc                   	int3   
  105826:	cc                   	int3   
  105827:	cc                   	int3   
  105828:	cc                   	int3   
  105829:	cc                   	int3   
  10582a:	cc                   	int3   
  10582b:	cc                   	int3   
  10582c:	cc                   	int3   
  10582d:	cc                   	int3   
  10582e:	cc                   	int3   
  10582f:	cc                   	int3   

0000000000105830 <_ZN98_$LT$core..iter..adapters..rev..Rev$LT$I$GT$$u20$as$u20$core..iter..traits..iterator..Iterator$GT$4next17h73070c631427c1c7E>:
  105830:	50                   	push   %rax
  105831:	48 89 3c 24          	mov    %rdi,(%rsp)
  105835:	e8 16 71 00 00       	callq  10c950 <_ZN109_$LT$core..slice..iter..IterMut$LT$T$GT$$u20$as$u20$core..iter..traits..double_ended..DoubleEndedIterator$GT$9next_back17h01b5dc8224627c40E>
  10583a:	59                   	pop    %rcx
  10583b:	c3                   	retq   
  10583c:	cc                   	int3   
  10583d:	cc                   	int3   
  10583e:	cc                   	int3   
  10583f:	cc                   	int3   

0000000000105840 <_ZN63_$LT$I$u20$as$u20$core..iter..traits..collect..IntoIterator$GT$9into_iter17h9e7d4ba54e22b838E>:
  105840:	48 83 ec 10          	sub    $0x10,%rsp
  105844:	48 89 f2             	mov    %rsi,%rdx
  105847:	48 89 f8             	mov    %rdi,%rax
  10584a:	48 89 04 24          	mov    %rax,(%rsp)
  10584e:	48 89 54 24 08       	mov    %rdx,0x8(%rsp)
  105853:	48 83 c4 10          	add    $0x10,%rsp
  105857:	c3                   	retq   
  105858:	cc                   	int3   
  105859:	cc                   	int3   
  10585a:	cc                   	int3   
  10585b:	cc                   	int3   
  10585c:	cc                   	int3   
  10585d:	cc                   	int3   
  10585e:	cc                   	int3   
  10585f:	cc                   	int3   

0000000000105860 <_ZN4core5panic8location8Location6caller17h9f07b5a511e2a51fE>:
  105860:	50                   	push   %rax
  105861:	48 89 3c 24          	mov    %rdi,(%rsp)
  105865:	48 8b 04 24          	mov    (%rsp),%rax
  105869:	59                   	pop    %rcx
  10586a:	c3                   	retq   
  10586b:	cc                   	int3   
  10586c:	cc                   	int3   
  10586d:	cc                   	int3   
  10586e:	cc                   	int3   
  10586f:	cc                   	int3   

0000000000105870 <_ZN4core3fmt3num3imp7fmt_u6417h7fe8efe1aa14f7f1E>:
  105870:	48 81 ec d8 03 00 00 	sub    $0x3d8,%rsp
  105877:	48 89 94 24 10 01 00 	mov    %rdx,0x110(%rsp)
  10587e:	00 
  10587f:	40 88 f0             	mov    %sil,%al
  105882:	88 84 24 1f 01 00 00 	mov    %al,0x11f(%rsp)
  105889:	48 89 bc 24 28 01 00 	mov    %rdi,0x128(%rsp)
  105890:	00 
  105891:	24 01                	and    $0x1,%al
  105893:	88 84 24 6f 01 00 00 	mov    %al,0x16f(%rsp)
  10589a:	48 89 94 24 70 01 00 	mov    %rdx,0x170(%rsp)
  1058a1:	00 
  1058a2:	8a 84 24 87 02 00 00 	mov    0x287(%rsp),%al
  1058a9:	48 8d bc 24 31 01 00 	lea    0x131(%rsp),%rdi
  1058b0:	00 
  1058b1:	ba 27 00 00 00       	mov    $0x27,%edx
  1058b6:	0f b6 f0             	movzbl %al,%esi
  1058b9:	e8 e2 a4 00 00       	callq  10fda0 <memset>
  1058be:	48 c7 84 24 58 01 00 	movq   $0x27,0x158(%rsp)
  1058c5:	00 27 00 00 00 
  1058ca:	48 8d 84 24 31 01 00 	lea    0x131(%rsp),%rax
  1058d1:	00 
  1058d2:	48 89 84 24 88 02 00 	mov    %rax,0x288(%rsp)
  1058d9:	00 
  1058da:	48 c7 84 24 90 02 00 	movq   $0x27,0x290(%rsp)
  1058e1:	00 27 00 00 00 
  1058e6:	48 8d 84 24 31 01 00 	lea    0x131(%rsp),%rax
  1058ed:	00 
  1058ee:	48 89 84 24 48 03 00 	mov    %rax,0x348(%rsp)
  1058f5:	00 
  1058f6:	48 c7 84 24 50 03 00 	movq   $0x27,0x350(%rsp)
  1058fd:	00 27 00 00 00 
  105902:	48 8d 84 24 31 01 00 	lea    0x131(%rsp),%rax
  105909:	00 
  10590a:	48 89 84 24 78 01 00 	mov    %rax,0x178(%rsp)
  105911:	00 
  105912:	48 8b 05 cf bf 00 00 	mov    0xbfcf(%rip),%rax        # 1118e8 <_ZN4core3fmt3num14DEC_DIGITS_LUT17h57948bb6cc754759E>
  105919:	48 89 84 24 20 01 00 	mov    %rax,0x120(%rsp)
  105920:	00 
  105921:	48 89 84 24 38 03 00 	mov    %rax,0x338(%rsp)
  105928:	00 
  105929:	48 c7 84 24 40 03 00 	movq   $0xc8,0x340(%rsp)
  105930:	00 c8 00 00 00 
  105935:	48 89 84 24 80 01 00 	mov    %rax,0x180(%rsp)
  10593c:	00 
  10593d:	b8 08 00 00 00       	mov    $0x8,%eax
  105942:	48 83 f8 02          	cmp    $0x2,%rax
  105946:	0f 93 c0             	setae  %al
  105949:	34 ff                	xor    $0xff,%al
  10594b:	a8 01                	test   $0x1,%al
  10594d:	75 10                	jne    10595f <_ZN4core3fmt3num3imp7fmt_u6417h7fe8efe1aa14f7f1E+0xef>
  10594f:	48 81 bc 24 28 01 00 	cmpq   $0x2710,0x128(%rsp)
  105956:	00 10 27 00 00 
  10595b:	73 40                	jae    10599d <_ZN4core3fmt3num3imp7fmt_u6417h7fe8efe1aa14f7f1E+0x12d>
  10595d:	eb 1a                	jmp    105979 <_ZN4core3fmt3num3imp7fmt_u6417h7fe8efe1aa14f7f1E+0x109>
  10595f:	48 8d 3d 4f b2 ff ff 	lea    -0x4db1(%rip),%rdi        # 100bb5 <str.1+0x135>
  105966:	48 8d 15 73 c2 00 00 	lea    0xc273(%rip),%rdx        # 111be0 <_ZN4core3fmt2rt12USIZE_MARKER17h1b31419084dfd5e3E+0x1e8>
  10596d:	be 33 00 00 00       	mov    $0x33,%esi
  105972:	e8 b9 fa ff ff       	callq  105430 <_ZN4core9panicking5panic17h4e18ef80ec7677b0E>
  105977:	0f 0b                	ud2    
  105979:	48 8b 84 24 28 01 00 	mov    0x128(%rsp),%rax
  105980:	00 
  105981:	48 89 84 24 60 01 00 	mov    %rax,0x160(%rsp)
  105988:	00 
  105989:	48 83 bc 24 60 01 00 	cmpq   $0x64,0x160(%rsp)
  105990:	00 64 
  105992:	0f 83 d2 00 00 00    	jae    105a6a <_ZN4core3fmt3num3imp7fmt_u6417h7fe8efe1aa14f7f1E+0x1fa>
  105998:	e9 b9 00 00 00       	jmpq   105a56 <_ZN4core3fmt3num3imp7fmt_u6417h7fe8efe1aa14f7f1E+0x1e6>
  10599d:	48 8b 84 24 28 01 00 	mov    0x128(%rsp),%rax
  1059a4:	00 
  1059a5:	b9 10 27 00 00       	mov    $0x2710,%ecx
  1059aa:	31 d2                	xor    %edx,%edx
  1059ac:	48 f7 f1             	div    %rcx
  1059af:	48 89 94 24 f0 00 00 	mov    %rdx,0xf0(%rsp)
  1059b6:	00 
  1059b7:	48 89 94 24 a8 01 00 	mov    %rdx,0x1a8(%rsp)
  1059be:	00 
  1059bf:	48 8b 84 24 28 01 00 	mov    0x128(%rsp),%rax
  1059c6:	00 
  1059c7:	b9 10 27 00 00       	mov    $0x2710,%ecx
  1059cc:	31 d2                	xor    %edx,%edx
  1059ce:	48 f7 f1             	div    %rcx
  1059d1:	48 89 c1             	mov    %rax,%rcx
  1059d4:	48 8b 84 24 f0 00 00 	mov    0xf0(%rsp),%rax
  1059db:	00 
  1059dc:	48 89 8c 24 28 01 00 	mov    %rcx,0x128(%rsp)
  1059e3:	00 
  1059e4:	b9 64 00 00 00       	mov    $0x64,%ecx
  1059e9:	31 d2                	xor    %edx,%edx
  1059eb:	48 f7 f1             	div    %rcx
  1059ee:	48 89 c1             	mov    %rax,%rcx
  1059f1:	48 8b 84 24 f0 00 00 	mov    0xf0(%rsp),%rax
  1059f8:	00 
  1059f9:	48 c1 e1 01          	shl    $0x1,%rcx
  1059fd:	48 89 8c 24 f8 00 00 	mov    %rcx,0xf8(%rsp)
  105a04:	00 
  105a05:	48 89 8c 24 b0 01 00 	mov    %rcx,0x1b0(%rsp)
  105a0c:	00 
  105a0d:	b9 64 00 00 00       	mov    $0x64,%ecx
  105a12:	31 d2                	xor    %edx,%edx
  105a14:	48 f7 f1             	div    %rcx
  105a17:	48 c1 e2 01          	shl    $0x1,%rdx
  105a1b:	48 89 94 24 00 01 00 	mov    %rdx,0x100(%rsp)
  105a22:	00 
  105a23:	48 89 94 24 b8 01 00 	mov    %rdx,0x1b8(%rsp)
  105a2a:	00 
  105a2b:	48 8b 84 24 58 01 00 	mov    0x158(%rsp),%rax
  105a32:	00 
  105a33:	48 89 c1             	mov    %rax,%rcx
  105a36:	48 83 e9 04          	sub    $0x4,%rcx
  105a3a:	48 89 8c 24 08 01 00 	mov    %rcx,0x108(%rsp)
  105a41:	00 
  105a42:	48 83 f8 04          	cmp    $0x4,%rax
  105a46:	0f 92 c0             	setb   %al
  105a49:	a8 01                	test   $0x1,%al
  105a4b:	0f 85 47 07 00 00    	jne    106198 <_ZN4core3fmt3num3imp7fmt_u6417h7fe8efe1aa14f7f1E+0x928>
  105a51:	e9 94 05 00 00       	jmpq   105fea <_ZN4core3fmt3num3imp7fmt_u6417h7fe8efe1aa14f7f1E+0x77a>
  105a56:	48 83 bc 24 60 01 00 	cmpq   $0xa,0x160(%rsp)
  105a5d:	00 0a 
  105a5f:	0f 82 57 02 00 00    	jb     105cbc <_ZN4core3fmt3num3imp7fmt_u6417h7fe8efe1aa14f7f1E+0x44c>
  105a65:	e9 0e 02 00 00       	jmpq   105c78 <_ZN4core3fmt3num3imp7fmt_u6417h7fe8efe1aa14f7f1E+0x408>
  105a6a:	48 8b 84 24 60 01 00 	mov    0x160(%rsp),%rax
  105a71:	00 
  105a72:	b9 64 00 00 00       	mov    $0x64,%ecx
  105a77:	31 d2                	xor    %edx,%edx
  105a79:	48 f7 f1             	div    %rcx
  105a7c:	48 c1 e2 01          	shl    $0x1,%rdx
  105a80:	48 89 94 24 e0 00 00 	mov    %rdx,0xe0(%rsp)
  105a87:	00 
  105a88:	48 89 94 24 88 01 00 	mov    %rdx,0x188(%rsp)
  105a8f:	00 
  105a90:	48 8b 84 24 60 01 00 	mov    0x160(%rsp),%rax
  105a97:	00 
  105a98:	b9 64 00 00 00       	mov    $0x64,%ecx
  105a9d:	31 d2                	xor    %edx,%edx
  105a9f:	48 f7 f1             	div    %rcx
  105aa2:	48 89 84 24 60 01 00 	mov    %rax,0x160(%rsp)
  105aa9:	00 
  105aaa:	48 8b 84 24 58 01 00 	mov    0x158(%rsp),%rax
  105ab1:	00 
  105ab2:	48 89 c1             	mov    %rax,%rcx
  105ab5:	48 83 e9 02          	sub    $0x2,%rcx
  105ab9:	48 89 8c 24 e8 00 00 	mov    %rcx,0xe8(%rsp)
  105ac0:	00 
  105ac1:	48 83 f8 02          	cmp    $0x2,%rax
  105ac5:	0f 92 c0             	setb   %al
  105ac8:	a8 01                	test   $0x1,%al
  105aca:	0f 85 8e 01 00 00    	jne    105c5e <_ZN4core3fmt3num3imp7fmt_u6417h7fe8efe1aa14f7f1E+0x3ee>
  105ad0:	48 8b 84 24 e0 00 00 	mov    0xe0(%rsp),%rax
  105ad7:	00 
  105ad8:	48 8b 8c 24 20 01 00 	mov    0x120(%rsp),%rcx
  105adf:	00 
  105ae0:	48 8b 94 24 e8 00 00 	mov    0xe8(%rsp),%rdx
  105ae7:	00 
  105ae8:	48 89 94 24 58 01 00 	mov    %rdx,0x158(%rsp)
  105aef:	00 
  105af0:	48 89 8c 24 c8 02 00 	mov    %rcx,0x2c8(%rsp)
  105af7:	00 
  105af8:	48 89 84 24 d0 02 00 	mov    %rax,0x2d0(%rsp)
  105aff:	00 
  105b00:	48 01 c1             	add    %rax,%rcx
  105b03:	48 89 8c 24 b8 00 00 	mov    %rcx,0xb8(%rsp)
  105b0a:	00 
  105b0b:	48 8b 94 24 58 01 00 	mov    0x158(%rsp),%rdx
  105b12:	00 
  105b13:	48 8d 84 24 31 01 00 	lea    0x131(%rsp),%rax
  105b1a:	00 
  105b1b:	48 89 84 24 28 03 00 	mov    %rax,0x328(%rsp)
  105b22:	00 
  105b23:	48 89 94 24 30 03 00 	mov    %rdx,0x330(%rsp)
  105b2a:	00 
  105b2b:	48 8d 84 24 31 01 00 	lea    0x131(%rsp),%rax
  105b32:	00 
  105b33:	48 01 d0             	add    %rdx,%rax
  105b36:	48 89 84 24 c0 00 00 	mov    %rax,0xc0(%rsp)
  105b3d:	00 
  105b3e:	48 89 8c 24 68 02 00 	mov    %rcx,0x268(%rsp)
  105b45:	00 
  105b46:	48 89 84 24 70 02 00 	mov    %rax,0x270(%rsp)
  105b4d:	00 
  105b4e:	48 c7 84 24 78 02 00 	movq   $0x2,0x278(%rsp)
  105b55:	00 02 00 00 00 
  105b5a:	48 89 8c 24 50 02 00 	mov    %rcx,0x250(%rsp)
  105b61:	00 
  105b62:	48 89 84 24 58 02 00 	mov    %rax,0x258(%rsp)
  105b69:	00 
  105b6a:	48 c7 84 24 60 02 00 	movq   $0x2,0x260(%rsp)
  105b71:	00 02 00 00 00 
  105b76:	48 8b bc 24 50 02 00 	mov    0x250(%rsp),%rdi
  105b7d:	00 
  105b7e:	48 89 bc 24 c8 00 00 	mov    %rdi,0xc8(%rsp)
  105b85:	00 
  105b86:	48 8b 8c 24 58 02 00 	mov    0x258(%rsp),%rcx
  105b8d:	00 
  105b8e:	48 89 8c 24 d0 00 00 	mov    %rcx,0xd0(%rsp)
  105b95:	00 
  105b96:	48 8b 84 24 60 02 00 	mov    0x260(%rsp),%rax
  105b9d:	00 
  105b9e:	48 89 84 24 d8 00 00 	mov    %rax,0xd8(%rsp)
  105ba5:	00 
  105ba6:	48 89 bc 24 60 03 00 	mov    %rdi,0x360(%rsp)
  105bad:	00 
  105bae:	48 89 8c 24 68 03 00 	mov    %rcx,0x368(%rsp)
  105bb5:	00 
  105bb6:	48 89 84 24 70 03 00 	mov    %rax,0x370(%rsp)
  105bbd:	00 
  105bbe:	e8 8d e4 ff ff       	callq  104050 <_ZN4core10intrinsics23is_aligned_and_not_null17h9128a242cea00777E>
  105bc3:	a8 01                	test   $0x1,%al
  105bc5:	75 0a                	jne    105bd1 <_ZN4core3fmt3num3imp7fmt_u6417h7fe8efe1aa14f7f1E+0x361>
  105bc7:	c6 84 24 5f 03 00 00 	movb   $0x0,0x35f(%rsp)
  105bce:	00 
  105bcf:	eb 16                	jmp    105be7 <_ZN4core3fmt3num3imp7fmt_u6417h7fe8efe1aa14f7f1E+0x377>
  105bd1:	48 8b bc 24 d0 00 00 	mov    0xd0(%rsp),%rdi
  105bd8:	00 
  105bd9:	e8 72 e4 ff ff       	callq  104050 <_ZN4core10intrinsics23is_aligned_and_not_null17h9128a242cea00777E>
  105bde:	24 01                	and    $0x1,%al
  105be0:	88 84 24 5f 03 00 00 	mov    %al,0x35f(%rsp)
  105be7:	f6 84 24 5f 03 00 00 	testb  $0x1,0x35f(%rsp)
  105bee:	01 
  105bef:	75 0a                	jne    105bfb <_ZN4core3fmt3num3imp7fmt_u6417h7fe8efe1aa14f7f1E+0x38b>
  105bf1:	c6 84 24 5e 03 00 00 	movb   $0x0,0x35e(%rsp)
  105bf8:	00 
  105bf9:	eb 26                	jmp    105c21 <_ZN4core3fmt3num3imp7fmt_u6417h7fe8efe1aa14f7f1E+0x3b1>
  105bfb:	48 8b 94 24 d8 00 00 	mov    0xd8(%rsp),%rdx
  105c02:	00 
  105c03:	48 8b b4 24 d0 00 00 	mov    0xd0(%rsp),%rsi
  105c0a:	00 
  105c0b:	48 8b bc 24 c8 00 00 	mov    0xc8(%rsp),%rdi
  105c12:	00 
  105c13:	e8 78 e5 ff ff       	callq  104190 <_ZN4core10intrinsics17is_nonoverlapping17h6163b0011d9cc9c4E>
  105c18:	24 01                	and    $0x1,%al
  105c1a:	88 84 24 5e 03 00 00 	mov    %al,0x35e(%rsp)
  105c21:	8a 84 24 5e 03 00 00 	mov    0x35e(%rsp),%al
  105c28:	34 ff                	xor    $0xff,%al
  105c2a:	a8 01                	test   $0x1,%al
  105c2c:	75 02                	jne    105c30 <_ZN4core3fmt3num3imp7fmt_u6417h7fe8efe1aa14f7f1E+0x3c0>
  105c2e:	eb 13                	jmp    105c43 <_ZN4core3fmt3num3imp7fmt_u6417h7fe8efe1aa14f7f1E+0x3d3>
  105c30:	48 8d 3d 65 ae ff ff 	lea    -0x519b(%rip),%rdi        # 100a9c <str.1+0x1c>
  105c37:	be a6 00 00 00       	mov    $0xa6,%esi
  105c3c:	e8 3f f8 ff ff       	callq  105480 <_ZN4core9panicking14panic_nounwind17hbf97f84b8fd59176E>
  105c41:	0f 0b                	ud2    
  105c43:	48 8b 84 24 c0 00 00 	mov    0xc0(%rsp),%rax
  105c4a:	00 
  105c4b:	48 8b 8c 24 b8 00 00 	mov    0xb8(%rsp),%rcx
  105c52:	00 
  105c53:	66 8b 09             	mov    (%rcx),%cx
  105c56:	66 89 08             	mov    %cx,(%rax)
  105c59:	e9 f8 fd ff ff       	jmpq   105a56 <_ZN4core3fmt3num3imp7fmt_u6417h7fe8efe1aa14f7f1E+0x1e6>
  105c5e:	48 8d 3d eb ad ff ff 	lea    -0x5215(%rip),%rdi        # 100a50 <str.0>
  105c65:	48 8d 15 74 bf 00 00 	lea    0xbf74(%rip),%rdx        # 111be0 <_ZN4core3fmt2rt12USIZE_MARKER17h1b31419084dfd5e3E+0x1e8>
  105c6c:	be 21 00 00 00       	mov    $0x21,%esi
  105c71:	e8 ba f7 ff ff       	callq  105430 <_ZN4core9panicking5panic17h4e18ef80ec7677b0E>
  105c76:	0f 0b                	ud2    
  105c78:	48 8b 84 24 60 01 00 	mov    0x160(%rsp),%rax
  105c7f:	00 
  105c80:	48 c1 e0 01          	shl    $0x1,%rax
  105c84:	48 89 84 24 a8 00 00 	mov    %rax,0xa8(%rsp)
  105c8b:	00 
  105c8c:	48 89 84 24 90 01 00 	mov    %rax,0x190(%rsp)
  105c93:	00 
  105c94:	48 8b 84 24 58 01 00 	mov    0x158(%rsp),%rax
  105c9b:	00 
  105c9c:	48 89 c1             	mov    %rax,%rcx
  105c9f:	48 83 e9 02          	sub    $0x2,%rcx
  105ca3:	48 89 8c 24 b0 00 00 	mov    %rcx,0xb0(%rsp)
  105caa:	00 
  105cab:	48 83 f8 02          	cmp    $0x2,%rax
  105caf:	0f 92 c0             	setb   %al
  105cb2:	a8 01                	test   $0x1,%al
  105cb4:	0f 85 b2 01 00 00    	jne    105e6c <_ZN4core3fmt3num3imp7fmt_u6417h7fe8efe1aa14f7f1E+0x5fc>
  105cba:	eb 2b                	jmp    105ce7 <_ZN4core3fmt3num3imp7fmt_u6417h7fe8efe1aa14f7f1E+0x477>
  105cbc:	48 8b 84 24 58 01 00 	mov    0x158(%rsp),%rax
  105cc3:	00 
  105cc4:	48 89 c1             	mov    %rax,%rcx
  105cc7:	48 83 e9 01          	sub    $0x1,%rcx
  105ccb:	48 89 8c 24 a0 00 00 	mov    %rcx,0xa0(%rsp)
  105cd2:	00 
  105cd3:	48 83 f8 01          	cmp    $0x1,%rax
  105cd7:	0f 92 c0             	setb   %al
  105cda:	a8 01                	test   $0x1,%al
  105cdc:	0f 85 28 02 00 00    	jne    105f0a <_ZN4core3fmt3num3imp7fmt_u6417h7fe8efe1aa14f7f1E+0x69a>
  105ce2:	e9 fc 01 00 00       	jmpq   105ee3 <_ZN4core3fmt3num3imp7fmt_u6417h7fe8efe1aa14f7f1E+0x673>
  105ce7:	48 8b 84 24 a8 00 00 	mov    0xa8(%rsp),%rax
  105cee:	00 
  105cef:	48 8b 8c 24 20 01 00 	mov    0x120(%rsp),%rcx
  105cf6:	00 
  105cf7:	48 8b 94 24 b0 00 00 	mov    0xb0(%rsp),%rdx
  105cfe:	00 
  105cff:	48 89 94 24 58 01 00 	mov    %rdx,0x158(%rsp)
  105d06:	00 
  105d07:	48 89 8c 24 b8 02 00 	mov    %rcx,0x2b8(%rsp)
  105d0e:	00 
  105d0f:	48 89 84 24 c0 02 00 	mov    %rax,0x2c0(%rsp)
  105d16:	00 
  105d17:	48 01 c1             	add    %rax,%rcx
  105d1a:	48 89 4c 24 78       	mov    %rcx,0x78(%rsp)
  105d1f:	48 8b 94 24 58 01 00 	mov    0x158(%rsp),%rdx
  105d26:	00 
  105d27:	48 8d 84 24 31 01 00 	lea    0x131(%rsp),%rax
  105d2e:	00 
  105d2f:	48 89 84 24 18 03 00 	mov    %rax,0x318(%rsp)
  105d36:	00 
  105d37:	48 89 94 24 20 03 00 	mov    %rdx,0x320(%rsp)
  105d3e:	00 
  105d3f:	48 8d 84 24 31 01 00 	lea    0x131(%rsp),%rax
  105d46:	00 
  105d47:	48 01 d0             	add    %rdx,%rax
  105d4a:	48 89 84 24 80 00 00 	mov    %rax,0x80(%rsp)
  105d51:	00 
  105d52:	48 89 8c 24 38 02 00 	mov    %rcx,0x238(%rsp)
  105d59:	00 
  105d5a:	48 89 84 24 40 02 00 	mov    %rax,0x240(%rsp)
  105d61:	00 
  105d62:	48 c7 84 24 48 02 00 	movq   $0x2,0x248(%rsp)
  105d69:	00 02 00 00 00 
  105d6e:	48 89 8c 24 20 02 00 	mov    %rcx,0x220(%rsp)
  105d75:	00 
  105d76:	48 89 84 24 28 02 00 	mov    %rax,0x228(%rsp)
  105d7d:	00 
  105d7e:	48 c7 84 24 30 02 00 	movq   $0x2,0x230(%rsp)
  105d85:	00 02 00 00 00 
  105d8a:	48 8b bc 24 20 02 00 	mov    0x220(%rsp),%rdi
  105d91:	00 
  105d92:	48 89 bc 24 88 00 00 	mov    %rdi,0x88(%rsp)
  105d99:	00 
  105d9a:	48 8b 8c 24 28 02 00 	mov    0x228(%rsp),%rcx
  105da1:	00 
  105da2:	48 89 8c 24 90 00 00 	mov    %rcx,0x90(%rsp)
  105da9:	00 
  105daa:	48 8b 84 24 30 02 00 	mov    0x230(%rsp),%rax
  105db1:	00 
  105db2:	48 89 84 24 98 00 00 	mov    %rax,0x98(%rsp)
  105db9:	00 
  105dba:	48 89 bc 24 80 03 00 	mov    %rdi,0x380(%rsp)
  105dc1:	00 
  105dc2:	48 89 8c 24 88 03 00 	mov    %rcx,0x388(%rsp)
  105dc9:	00 
  105dca:	48 89 84 24 90 03 00 	mov    %rax,0x390(%rsp)
  105dd1:	00 
  105dd2:	e8 79 e2 ff ff       	callq  104050 <_ZN4core10intrinsics23is_aligned_and_not_null17h9128a242cea00777E>
  105dd7:	a8 01                	test   $0x1,%al
  105dd9:	75 0a                	jne    105de5 <_ZN4core3fmt3num3imp7fmt_u6417h7fe8efe1aa14f7f1E+0x575>
  105ddb:	c6 84 24 7f 03 00 00 	movb   $0x0,0x37f(%rsp)
  105de2:	00 
  105de3:	eb 16                	jmp    105dfb <_ZN4core3fmt3num3imp7fmt_u6417h7fe8efe1aa14f7f1E+0x58b>
  105de5:	48 8b bc 24 90 00 00 	mov    0x90(%rsp),%rdi
  105dec:	00 
  105ded:	e8 5e e2 ff ff       	callq  104050 <_ZN4core10intrinsics23is_aligned_and_not_null17h9128a242cea00777E>
  105df2:	24 01                	and    $0x1,%al
  105df4:	88 84 24 7f 03 00 00 	mov    %al,0x37f(%rsp)
  105dfb:	f6 84 24 7f 03 00 00 	testb  $0x1,0x37f(%rsp)
  105e02:	01 
  105e03:	75 0a                	jne    105e0f <_ZN4core3fmt3num3imp7fmt_u6417h7fe8efe1aa14f7f1E+0x59f>
  105e05:	c6 84 24 7e 03 00 00 	movb   $0x0,0x37e(%rsp)
  105e0c:	00 
  105e0d:	eb 26                	jmp    105e35 <_ZN4core3fmt3num3imp7fmt_u6417h7fe8efe1aa14f7f1E+0x5c5>
  105e0f:	48 8b 94 24 98 00 00 	mov    0x98(%rsp),%rdx
  105e16:	00 
  105e17:	48 8b b4 24 90 00 00 	mov    0x90(%rsp),%rsi
  105e1e:	00 
  105e1f:	48 8b bc 24 88 00 00 	mov    0x88(%rsp),%rdi
  105e26:	00 
  105e27:	e8 64 e3 ff ff       	callq  104190 <_ZN4core10intrinsics17is_nonoverlapping17h6163b0011d9cc9c4E>
  105e2c:	24 01                	and    $0x1,%al
  105e2e:	88 84 24 7e 03 00 00 	mov    %al,0x37e(%rsp)
  105e35:	8a 84 24 7e 03 00 00 	mov    0x37e(%rsp),%al
  105e3c:	34 ff                	xor    $0xff,%al
  105e3e:	a8 01                	test   $0x1,%al
  105e40:	75 02                	jne    105e44 <_ZN4core3fmt3num3imp7fmt_u6417h7fe8efe1aa14f7f1E+0x5d4>
  105e42:	eb 13                	jmp    105e57 <_ZN4core3fmt3num3imp7fmt_u6417h7fe8efe1aa14f7f1E+0x5e7>
  105e44:	48 8d 3d 51 ac ff ff 	lea    -0x53af(%rip),%rdi        # 100a9c <str.1+0x1c>
  105e4b:	be a6 00 00 00       	mov    $0xa6,%esi
  105e50:	e8 2b f6 ff ff       	callq  105480 <_ZN4core9panicking14panic_nounwind17hbf97f84b8fd59176E>
  105e55:	0f 0b                	ud2    
  105e57:	48 8b 84 24 80 00 00 	mov    0x80(%rsp),%rax
  105e5e:	00 
  105e5f:	48 8b 4c 24 78       	mov    0x78(%rsp),%rcx
  105e64:	66 8b 09             	mov    (%rcx),%cx
  105e67:	66 89 08             	mov    %cx,(%rax)
  105e6a:	eb 1a                	jmp    105e86 <_ZN4core3fmt3num3imp7fmt_u6417h7fe8efe1aa14f7f1E+0x616>
  105e6c:	48 8d 3d dd ab ff ff 	lea    -0x5423(%rip),%rdi        # 100a50 <str.0>
  105e73:	48 8d 15 66 bd 00 00 	lea    0xbd66(%rip),%rdx        # 111be0 <_ZN4core3fmt2rt12USIZE_MARKER17h1b31419084dfd5e3E+0x1e8>
  105e7a:	be 21 00 00 00       	mov    $0x21,%esi
  105e7f:	e8 ac f5 ff ff       	callq  105430 <_ZN4core9panicking5panic17h4e18ef80ec7677b0E>
  105e84:	0f 0b                	ud2    
  105e86:	48 8b 8c 24 58 01 00 	mov    0x158(%rsp),%rcx
  105e8d:	00 
  105e8e:	48 8d 84 24 31 01 00 	lea    0x131(%rsp),%rax
  105e95:	00 
  105e96:	48 89 84 24 f8 02 00 	mov    %rax,0x2f8(%rsp)
  105e9d:	00 
  105e9e:	48 89 8c 24 00 03 00 	mov    %rcx,0x300(%rsp)
  105ea5:	00 
  105ea6:	48 8d 84 24 31 01 00 	lea    0x131(%rsp),%rax
  105ead:	00 
  105eae:	48 01 c8             	add    %rcx,%rax
  105eb1:	48 89 44 24 68       	mov    %rax,0x68(%rsp)
  105eb6:	48 8b 8c 24 58 01 00 	mov    0x158(%rsp),%rcx
  105ebd:	00 
  105ebe:	b8 27 00 00 00       	mov    $0x27,%eax
  105ec3:	48 29 c8             	sub    %rcx,%rax
  105ec6:	48 89 44 24 70       	mov    %rax,0x70(%rsp)
  105ecb:	b8 27 00 00 00       	mov    $0x27,%eax
  105ed0:	48 39 c8             	cmp    %rcx,%rax
  105ed3:	0f 92 c0             	setb   %al
  105ed6:	a8 01                	test   $0x1,%al
  105ed8:	0f 85 f2 00 00 00    	jne    105fd0 <_ZN4core3fmt3num3imp7fmt_u6417h7fe8efe1aa14f7f1E+0x760>
  105ede:	e9 8b 00 00 00       	jmpq   105f6e <_ZN4core3fmt3num3imp7fmt_u6417h7fe8efe1aa14f7f1E+0x6fe>
  105ee3:	48 8b 84 24 a0 00 00 	mov    0xa0(%rsp),%rax
  105eea:	00 
  105eeb:	48 89 84 24 58 01 00 	mov    %rax,0x158(%rsp)
  105ef2:	00 
  105ef3:	48 8b 84 24 60 01 00 	mov    0x160(%rsp),%rax
  105efa:	00 
  105efb:	04 30                	add    $0x30,%al
  105efd:	88 44 24 67          	mov    %al,0x67(%rsp)
  105f01:	0f 92 c0             	setb   %al
  105f04:	a8 01                	test   $0x1,%al
  105f06:	75 4c                	jne    105f54 <_ZN4core3fmt3num3imp7fmt_u6417h7fe8efe1aa14f7f1E+0x6e4>
  105f08:	eb 1a                	jmp    105f24 <_ZN4core3fmt3num3imp7fmt_u6417h7fe8efe1aa14f7f1E+0x6b4>
  105f0a:	48 8d 3d 3f ab ff ff 	lea    -0x54c1(%rip),%rdi        # 100a50 <str.0>
  105f11:	48 8d 15 c8 bc 00 00 	lea    0xbcc8(%rip),%rdx        # 111be0 <_ZN4core3fmt2rt12USIZE_MARKER17h1b31419084dfd5e3E+0x1e8>
  105f18:	be 21 00 00 00       	mov    $0x21,%esi
  105f1d:	e8 0e f5 ff ff       	callq  105430 <_ZN4core9panicking5panic17h4e18ef80ec7677b0E>
  105f22:	0f 0b                	ud2    
  105f24:	8a 4c 24 67          	mov    0x67(%rsp),%cl
  105f28:	48 8b 84 24 58 01 00 	mov    0x158(%rsp),%rax
  105f2f:	00 
  105f30:	48 8d 94 24 31 01 00 	lea    0x131(%rsp),%rdx
  105f37:	00 
  105f38:	48 89 94 24 08 03 00 	mov    %rdx,0x308(%rsp)
  105f3f:	00 
  105f40:	48 89 84 24 10 03 00 	mov    %rax,0x310(%rsp)
  105f47:	00 
  105f48:	88 8c 04 31 01 00 00 	mov    %cl,0x131(%rsp,%rax,1)
  105f4f:	e9 32 ff ff ff       	jmpq   105e86 <_ZN4core3fmt3num3imp7fmt_u6417h7fe8efe1aa14f7f1E+0x616>
  105f54:	48 8d 3d 25 ab ff ff 	lea    -0x54db(%rip),%rdi        # 100a80 <str.1>
  105f5b:	48 8d 15 7e bc 00 00 	lea    0xbc7e(%rip),%rdx        # 111be0 <_ZN4core3fmt2rt12USIZE_MARKER17h1b31419084dfd5e3E+0x1e8>
  105f62:	be 1c 00 00 00       	mov    $0x1c,%esi
  105f67:	e8 c4 f4 ff ff       	callq  105430 <_ZN4core9panicking5panic17h4e18ef80ec7677b0E>
  105f6c:	0f 0b                	ud2    
  105f6e:	48 8b 74 24 70       	mov    0x70(%rsp),%rsi
  105f73:	48 8b 7c 24 68       	mov    0x68(%rsp),%rdi
  105f78:	e8 23 45 00 00       	callq  10a4a0 <_ZN4core5slice3raw14from_raw_parts17h5a4c48e0db5e3da5E>
  105f7d:	48 89 c7             	mov    %rax,%rdi
  105f80:	48 89 d6             	mov    %rdx,%rsi
  105f83:	e8 b8 36 00 00       	callq  109640 <_ZN4core3str8converts19from_utf8_unchecked17haad3881056278f70E>
  105f88:	48 8b bc 24 10 01 00 	mov    0x110(%rsp),%rdi
  105f8f:	00 
  105f90:	49 89 c0             	mov    %rax,%r8
  105f93:	8a 84 24 1f 01 00 00 	mov    0x11f(%rsp),%al
  105f9a:	49 89 d1             	mov    %rdx,%r9
  105f9d:	4c 89 84 24 98 01 00 	mov    %r8,0x198(%rsp)
  105fa4:	00 
  105fa5:	4c 89 8c 24 a0 01 00 	mov    %r9,0x1a0(%rsp)
  105fac:	00 
  105fad:	0f b6 f0             	movzbl %al,%esi
  105fb0:	83 e6 01             	and    $0x1,%esi
  105fb3:	48 8d 15 e2 aa ff ff 	lea    -0x551e(%rip),%rdx        # 100a9c <str.1+0x1c>
  105fba:	31 c0                	xor    %eax,%eax
  105fbc:	89 c1                	mov    %eax,%ecx
  105fbe:	e8 dd 1f 00 00       	callq  107fa0 <_ZN4core3fmt9Formatter12pad_integral17hdb57515702e30363E>
  105fc3:	24 01                	and    $0x1,%al
  105fc5:	0f b6 c0             	movzbl %al,%eax
  105fc8:	48 81 c4 d8 03 00 00 	add    $0x3d8,%rsp
  105fcf:	c3                   	retq   
  105fd0:	48 8d 3d 79 aa ff ff 	lea    -0x5587(%rip),%rdi        # 100a50 <str.0>
  105fd7:	48 8d 15 02 bc 00 00 	lea    0xbc02(%rip),%rdx        # 111be0 <_ZN4core3fmt2rt12USIZE_MARKER17h1b31419084dfd5e3E+0x1e8>
  105fde:	be 21 00 00 00       	mov    $0x21,%esi
  105fe3:	e8 48 f4 ff ff       	callq  105430 <_ZN4core9panicking5panic17h4e18ef80ec7677b0E>
  105fe8:	0f 0b                	ud2    
  105fea:	48 8b 84 24 f8 00 00 	mov    0xf8(%rsp),%rax
  105ff1:	00 
  105ff2:	48 8b 8c 24 20 01 00 	mov    0x120(%rsp),%rcx
  105ff9:	00 
  105ffa:	48 8b 94 24 08 01 00 	mov    0x108(%rsp),%rdx
  106001:	00 
  106002:	48 89 94 24 58 01 00 	mov    %rdx,0x158(%rsp)
  106009:	00 
  10600a:	48 89 8c 24 a8 02 00 	mov    %rcx,0x2a8(%rsp)
  106011:	00 
  106012:	48 89 84 24 b0 02 00 	mov    %rax,0x2b0(%rsp)
  106019:	00 
  10601a:	48 01 c1             	add    %rax,%rcx
  10601d:	48 89 4c 24 38       	mov    %rcx,0x38(%rsp)
  106022:	48 8b 94 24 58 01 00 	mov    0x158(%rsp),%rdx
  106029:	00 
  10602a:	48 8d 84 24 31 01 00 	lea    0x131(%rsp),%rax
  106031:	00 
  106032:	48 89 84 24 e8 02 00 	mov    %rax,0x2e8(%rsp)
  106039:	00 
  10603a:	48 89 94 24 f0 02 00 	mov    %rdx,0x2f0(%rsp)
  106041:	00 
  106042:	48 8d 84 24 31 01 00 	lea    0x131(%rsp),%rax
  106049:	00 
  10604a:	48 01 d0             	add    %rdx,%rax
  10604d:	48 89 44 24 40       	mov    %rax,0x40(%rsp)
  106052:	48 89 8c 24 08 02 00 	mov    %rcx,0x208(%rsp)
  106059:	00 
  10605a:	48 89 84 24 10 02 00 	mov    %rax,0x210(%rsp)
  106061:	00 
  106062:	48 c7 84 24 18 02 00 	movq   $0x2,0x218(%rsp)
  106069:	00 02 00 00 00 
  10606e:	48 89 8c 24 f0 01 00 	mov    %rcx,0x1f0(%rsp)
  106075:	00 
  106076:	48 89 84 24 f8 01 00 	mov    %rax,0x1f8(%rsp)
  10607d:	00 
  10607e:	48 c7 84 24 00 02 00 	movq   $0x2,0x200(%rsp)
  106085:	00 02 00 00 00 
  10608a:	48 8b bc 24 f0 01 00 	mov    0x1f0(%rsp),%rdi
  106091:	00 
  106092:	48 89 7c 24 48       	mov    %rdi,0x48(%rsp)
  106097:	48 8b 8c 24 f8 01 00 	mov    0x1f8(%rsp),%rcx
  10609e:	00 
  10609f:	48 89 4c 24 50       	mov    %rcx,0x50(%rsp)
  1060a4:	48 8b 84 24 00 02 00 	mov    0x200(%rsp),%rax
  1060ab:	00 
  1060ac:	48 89 44 24 58       	mov    %rax,0x58(%rsp)
  1060b1:	48 89 bc 24 a0 03 00 	mov    %rdi,0x3a0(%rsp)
  1060b8:	00 
  1060b9:	48 89 8c 24 a8 03 00 	mov    %rcx,0x3a8(%rsp)
  1060c0:	00 
  1060c1:	48 89 84 24 b0 03 00 	mov    %rax,0x3b0(%rsp)
  1060c8:	00 
  1060c9:	e8 82 df ff ff       	callq  104050 <_ZN4core10intrinsics23is_aligned_and_not_null17h9128a242cea00777E>
  1060ce:	a8 01                	test   $0x1,%al
  1060d0:	75 0a                	jne    1060dc <_ZN4core3fmt3num3imp7fmt_u6417h7fe8efe1aa14f7f1E+0x86c>
  1060d2:	c6 84 24 9f 03 00 00 	movb   $0x0,0x39f(%rsp)
  1060d9:	00 
  1060da:	eb 13                	jmp    1060ef <_ZN4core3fmt3num3imp7fmt_u6417h7fe8efe1aa14f7f1E+0x87f>
  1060dc:	48 8b 7c 24 50       	mov    0x50(%rsp),%rdi
  1060e1:	e8 6a df ff ff       	callq  104050 <_ZN4core10intrinsics23is_aligned_and_not_null17h9128a242cea00777E>
  1060e6:	24 01                	and    $0x1,%al
  1060e8:	88 84 24 9f 03 00 00 	mov    %al,0x39f(%rsp)
  1060ef:	f6 84 24 9f 03 00 00 	testb  $0x1,0x39f(%rsp)
  1060f6:	01 
  1060f7:	75 0a                	jne    106103 <_ZN4core3fmt3num3imp7fmt_u6417h7fe8efe1aa14f7f1E+0x893>
  1060f9:	c6 84 24 9e 03 00 00 	movb   $0x0,0x39e(%rsp)
  106100:	00 
  106101:	eb 1d                	jmp    106120 <_ZN4core3fmt3num3imp7fmt_u6417h7fe8efe1aa14f7f1E+0x8b0>
  106103:	48 8b 54 24 58       	mov    0x58(%rsp),%rdx
  106108:	48 8b 74 24 50       	mov    0x50(%rsp),%rsi
  10610d:	48 8b 7c 24 48       	mov    0x48(%rsp),%rdi
  106112:	e8 79 e0 ff ff       	callq  104190 <_ZN4core10intrinsics17is_nonoverlapping17h6163b0011d9cc9c4E>
  106117:	24 01                	and    $0x1,%al
  106119:	88 84 24 9e 03 00 00 	mov    %al,0x39e(%rsp)
  106120:	8a 84 24 9e 03 00 00 	mov    0x39e(%rsp),%al
  106127:	34 ff                	xor    $0xff,%al
  106129:	a8 01                	test   $0x1,%al
  10612b:	75 02                	jne    10612f <_ZN4core3fmt3num3imp7fmt_u6417h7fe8efe1aa14f7f1E+0x8bf>
  10612d:	eb 13                	jmp    106142 <_ZN4core3fmt3num3imp7fmt_u6417h7fe8efe1aa14f7f1E+0x8d2>
  10612f:	48 8d 3d 66 a9 ff ff 	lea    -0x569a(%rip),%rdi        # 100a9c <str.1+0x1c>
  106136:	be a6 00 00 00       	mov    $0xa6,%esi
  10613b:	e8 40 f3 ff ff       	callq  105480 <_ZN4core9panicking14panic_nounwind17hbf97f84b8fd59176E>
  106140:	0f 0b                	ud2    
  106142:	48 8b 8c 24 00 01 00 	mov    0x100(%rsp),%rcx
  106149:	00 
  10614a:	48 8b 84 24 20 01 00 	mov    0x120(%rsp),%rax
  106151:	00 
  106152:	48 8b 54 24 40       	mov    0x40(%rsp),%rdx
  106157:	48 8b 74 24 38       	mov    0x38(%rsp),%rsi
  10615c:	66 8b 36             	mov    (%rsi),%si
  10615f:	66 89 32             	mov    %si,(%rdx)
  106162:	48 89 84 24 98 02 00 	mov    %rax,0x298(%rsp)
  106169:	00 
  10616a:	48 89 8c 24 a0 02 00 	mov    %rcx,0x2a0(%rsp)
  106171:	00 
  106172:	48 01 c8             	add    %rcx,%rax
  106175:	48 89 44 24 28       	mov    %rax,0x28(%rsp)
  10617a:	48 8b 84 24 58 01 00 	mov    0x158(%rsp),%rax
  106181:	00 
  106182:	48 83 c0 02          	add    $0x2,%rax
  106186:	48 89 44 24 30       	mov    %rax,0x30(%rsp)
  10618b:	0f 92 c0             	setb   %al
  10618e:	a8 01                	test   $0x1,%al
  106190:	0f 85 53 01 00 00    	jne    1062e9 <_ZN4core3fmt3num3imp7fmt_u6417h7fe8efe1aa14f7f1E+0xa79>
  106196:	eb 1a                	jmp    1061b2 <_ZN4core3fmt3num3imp7fmt_u6417h7fe8efe1aa14f7f1E+0x942>
  106198:	48 8d 3d b1 a8 ff ff 	lea    -0x574f(%rip),%rdi        # 100a50 <str.0>
  10619f:	48 8d 15 3a ba 00 00 	lea    0xba3a(%rip),%rdx        # 111be0 <_ZN4core3fmt2rt12USIZE_MARKER17h1b31419084dfd5e3E+0x1e8>
  1061a6:	be 21 00 00 00       	mov    $0x21,%esi
  1061ab:	e8 80 f2 ff ff       	callq  105430 <_ZN4core9panicking5panic17h4e18ef80ec7677b0E>
  1061b0:	0f 0b                	ud2    
  1061b2:	48 8b 4c 24 28       	mov    0x28(%rsp),%rcx
  1061b7:	48 8b 54 24 30       	mov    0x30(%rsp),%rdx
  1061bc:	48 8d 84 24 31 01 00 	lea    0x131(%rsp),%rax
  1061c3:	00 
  1061c4:	48 89 84 24 d8 02 00 	mov    %rax,0x2d8(%rsp)
  1061cb:	00 
  1061cc:	48 89 94 24 e0 02 00 	mov    %rdx,0x2e0(%rsp)
  1061d3:	00 
  1061d4:	48 8d 84 24 31 01 00 	lea    0x131(%rsp),%rax
  1061db:	00 
  1061dc:	48 01 d0             	add    %rdx,%rax
  1061df:	48 89 44 24 08       	mov    %rax,0x8(%rsp)
  1061e4:	48 89 8c 24 d8 01 00 	mov    %rcx,0x1d8(%rsp)
  1061eb:	00 
  1061ec:	48 89 84 24 e0 01 00 	mov    %rax,0x1e0(%rsp)
  1061f3:	00 
  1061f4:	48 c7 84 24 e8 01 00 	movq   $0x2,0x1e8(%rsp)
  1061fb:	00 02 00 00 00 
  106200:	48 89 8c 24 c0 01 00 	mov    %rcx,0x1c0(%rsp)
  106207:	00 
  106208:	48 89 84 24 c8 01 00 	mov    %rax,0x1c8(%rsp)
  10620f:	00 
  106210:	48 c7 84 24 d0 01 00 	movq   $0x2,0x1d0(%rsp)
  106217:	00 02 00 00 00 
  10621c:	48 8b bc 24 c0 01 00 	mov    0x1c0(%rsp),%rdi
  106223:	00 
  106224:	48 89 7c 24 10       	mov    %rdi,0x10(%rsp)
  106229:	48 8b 8c 24 c8 01 00 	mov    0x1c8(%rsp),%rcx
  106230:	00 
  106231:	48 89 4c 24 18       	mov    %rcx,0x18(%rsp)
  106236:	48 8b 84 24 d0 01 00 	mov    0x1d0(%rsp),%rax
  10623d:	00 
  10623e:	48 89 44 24 20       	mov    %rax,0x20(%rsp)
  106243:	48 89 bc 24 c0 03 00 	mov    %rdi,0x3c0(%rsp)
  10624a:	00 
  10624b:	48 89 8c 24 c8 03 00 	mov    %rcx,0x3c8(%rsp)
  106252:	00 
  106253:	48 89 84 24 d0 03 00 	mov    %rax,0x3d0(%rsp)
  10625a:	00 
  10625b:	e8 f0 dd ff ff       	callq  104050 <_ZN4core10intrinsics23is_aligned_and_not_null17h9128a242cea00777E>
  106260:	a8 01                	test   $0x1,%al
  106262:	75 0a                	jne    10626e <_ZN4core3fmt3num3imp7fmt_u6417h7fe8efe1aa14f7f1E+0x9fe>
  106264:	c6 84 24 bf 03 00 00 	movb   $0x0,0x3bf(%rsp)
  10626b:	00 
  10626c:	eb 13                	jmp    106281 <_ZN4core3fmt3num3imp7fmt_u6417h7fe8efe1aa14f7f1E+0xa11>
  10626e:	48 8b 7c 24 18       	mov    0x18(%rsp),%rdi
  106273:	e8 d8 dd ff ff       	callq  104050 <_ZN4core10intrinsics23is_aligned_and_not_null17h9128a242cea00777E>
  106278:	24 01                	and    $0x1,%al
  10627a:	88 84 24 bf 03 00 00 	mov    %al,0x3bf(%rsp)
  106281:	f6 84 24 bf 03 00 00 	testb  $0x1,0x3bf(%rsp)
  106288:	01 
  106289:	75 0a                	jne    106295 <_ZN4core3fmt3num3imp7fmt_u6417h7fe8efe1aa14f7f1E+0xa25>
  10628b:	c6 84 24 be 03 00 00 	movb   $0x0,0x3be(%rsp)
  106292:	00 
  106293:	eb 1d                	jmp    1062b2 <_ZN4core3fmt3num3imp7fmt_u6417h7fe8efe1aa14f7f1E+0xa42>
  106295:	48 8b 54 24 20       	mov    0x20(%rsp),%rdx
  10629a:	48 8b 74 24 18       	mov    0x18(%rsp),%rsi
  10629f:	48 8b 7c 24 10       	mov    0x10(%rsp),%rdi
  1062a4:	e8 e7 de ff ff       	callq  104190 <_ZN4core10intrinsics17is_nonoverlapping17h6163b0011d9cc9c4E>
  1062a9:	24 01                	and    $0x1,%al
  1062ab:	88 84 24 be 03 00 00 	mov    %al,0x3be(%rsp)
  1062b2:	8a 84 24 be 03 00 00 	mov    0x3be(%rsp),%al
  1062b9:	34 ff                	xor    $0xff,%al
  1062bb:	a8 01                	test   $0x1,%al
  1062bd:	75 02                	jne    1062c1 <_ZN4core3fmt3num3imp7fmt_u6417h7fe8efe1aa14f7f1E+0xa51>
  1062bf:	eb 13                	jmp    1062d4 <_ZN4core3fmt3num3imp7fmt_u6417h7fe8efe1aa14f7f1E+0xa64>
  1062c1:	48 8d 3d d4 a7 ff ff 	lea    -0x582c(%rip),%rdi        # 100a9c <str.1+0x1c>
  1062c8:	be a6 00 00 00       	mov    $0xa6,%esi
  1062cd:	e8 ae f1 ff ff       	callq  105480 <_ZN4core9panicking14panic_nounwind17hbf97f84b8fd59176E>
  1062d2:	0f 0b                	ud2    
  1062d4:	48 8b 44 24 08       	mov    0x8(%rsp),%rax
  1062d9:	48 8b 4c 24 28       	mov    0x28(%rsp),%rcx
  1062de:	66 8b 09             	mov    (%rcx),%cx
  1062e1:	66 89 08             	mov    %cx,(%rax)
  1062e4:	e9 66 f6 ff ff       	jmpq   10594f <_ZN4core3fmt3num3imp7fmt_u6417h7fe8efe1aa14f7f1E+0xdf>
  1062e9:	48 8d 3d 90 a7 ff ff 	lea    -0x5870(%rip),%rdi        # 100a80 <str.1>
  1062f0:	48 8d 15 e9 b8 00 00 	lea    0xb8e9(%rip),%rdx        # 111be0 <_ZN4core3fmt2rt12USIZE_MARKER17h1b31419084dfd5e3E+0x1e8>
  1062f7:	be 1c 00 00 00       	mov    $0x1c,%esi
  1062fc:	e8 2f f1 ff ff       	callq  105430 <_ZN4core9panicking5panic17h4e18ef80ec7677b0E>
  106301:	0f 0b                	ud2    
  106303:	cc                   	int3   
  106304:	cc                   	int3   
  106305:	cc                   	int3   
  106306:	cc                   	int3   
  106307:	cc                   	int3   
  106308:	cc                   	int3   
  106309:	cc                   	int3   
  10630a:	cc                   	int3   
  10630b:	cc                   	int3   
  10630c:	cc                   	int3   
  10630d:	cc                   	int3   
  10630e:	cc                   	int3   
  10630f:	cc                   	int3   

0000000000106310 <_ZN4core3fmt3num3imp51_$LT$impl$u20$core..fmt..Display$u20$for$u20$u8$GT$3fmt17h4d212dc2c2a1ea3aE>:
  106310:	48 83 ec 48          	sub    $0x48,%rsp
  106314:	48 89 34 24          	mov    %rsi,(%rsp)
  106318:	48 89 7c 24 08       	mov    %rdi,0x8(%rsp)
  10631d:	48 89 7c 24 20       	mov    %rdi,0x20(%rsp)
  106322:	48 89 74 24 28       	mov    %rsi,0x28(%rsp)
  106327:	80 3f 00             	cmpb   $0x0,(%rdi)
  10632a:	0f 93 c0             	setae  %al
  10632d:	88 44 24 17          	mov    %al,0x17(%rsp)
  106331:	88 c1                	mov    %al,%cl
  106333:	80 e1 01             	and    $0x1,%cl
  106336:	88 4c 24 37          	mov    %cl,0x37(%rsp)
  10633a:	a8 01                	test   $0x1,%al
  10633c:	75 27                	jne    106365 <_ZN4core3fmt3num3imp51_$LT$impl$u20$core..fmt..Display$u20$for$u20$u8$GT$3fmt17h4d212dc2c2a1ea3aE+0x55>
  10633e:	48 8b 7c 24 08       	mov    0x8(%rsp),%rdi
  106343:	e8 d8 d9 ff ff       	callq  103d20 <_ZN49_$LT$u8$u20$as$u20$core..fmt..num..DisplayInt$GT$6to_u6417hde041c514d4affc0E>
  106348:	48 83 f0 ff          	xor    $0xffffffffffffffff,%rax
  10634c:	48 89 44 24 38       	mov    %rax,0x38(%rsp)
  106351:	48 c7 44 24 40 01 00 	movq   $0x1,0x40(%rsp)
  106358:	00 00 
  10635a:	48 83 c0 01          	add    $0x1,%rax
  10635e:	48 89 44 24 18       	mov    %rax,0x18(%rsp)
  106363:	eb 0f                	jmp    106374 <_ZN4core3fmt3num3imp51_$LT$impl$u20$core..fmt..Display$u20$for$u20$u8$GT$3fmt17h4d212dc2c2a1ea3aE+0x64>
  106365:	48 8b 7c 24 08       	mov    0x8(%rsp),%rdi
  10636a:	e8 b1 d9 ff ff       	callq  103d20 <_ZN49_$LT$u8$u20$as$u20$core..fmt..num..DisplayInt$GT$6to_u6417hde041c514d4affc0E>
  10636f:	48 89 44 24 18       	mov    %rax,0x18(%rsp)
  106374:	48 8b 14 24          	mov    (%rsp),%rdx
  106378:	8a 44 24 17          	mov    0x17(%rsp),%al
  10637c:	48 8b 7c 24 18       	mov    0x18(%rsp),%rdi
  106381:	0f b6 f0             	movzbl %al,%esi
  106384:	83 e6 01             	and    $0x1,%esi
  106387:	e8 e4 f4 ff ff       	callq  105870 <_ZN4core3fmt3num3imp7fmt_u6417h7fe8efe1aa14f7f1E>
  10638c:	24 01                	and    $0x1,%al
  10638e:	0f b6 c0             	movzbl %al,%eax
  106391:	48 83 c4 48          	add    $0x48,%rsp
  106395:	c3                   	retq   
  106396:	cc                   	int3   
  106397:	cc                   	int3   
  106398:	cc                   	int3   
  106399:	cc                   	int3   
  10639a:	cc                   	int3   
  10639b:	cc                   	int3   
  10639c:	cc                   	int3   
  10639d:	cc                   	int3   
  10639e:	cc                   	int3   
  10639f:	cc                   	int3   

00000000001063a0 <_ZN4core3fmt3num3imp54_$LT$impl$u20$core..fmt..Display$u20$for$u20$usize$GT$3fmt17hace6b4c3ed9b7f2bE>:
  1063a0:	48 83 ec 48          	sub    $0x48,%rsp
  1063a4:	48 89 34 24          	mov    %rsi,(%rsp)
  1063a8:	48 89 7c 24 08       	mov    %rdi,0x8(%rsp)
  1063ad:	48 89 7c 24 20       	mov    %rdi,0x20(%rsp)
  1063b2:	48 89 74 24 28       	mov    %rsi,0x28(%rsp)
  1063b7:	48 83 3f 00          	cmpq   $0x0,(%rdi)
  1063bb:	0f 93 c0             	setae  %al
  1063be:	88 44 24 17          	mov    %al,0x17(%rsp)
  1063c2:	88 c1                	mov    %al,%cl
  1063c4:	80 e1 01             	and    $0x1,%cl
  1063c7:	88 4c 24 37          	mov    %cl,0x37(%rsp)
  1063cb:	a8 01                	test   $0x1,%al
  1063cd:	75 27                	jne    1063f6 <_ZN4core3fmt3num3imp54_$LT$impl$u20$core..fmt..Display$u20$for$u20$usize$GT$3fmt17hace6b4c3ed9b7f2bE+0x56>
  1063cf:	48 8b 7c 24 08       	mov    0x8(%rsp),%rdi
  1063d4:	e8 97 d9 ff ff       	callq  103d70 <_ZN52_$LT$usize$u20$as$u20$core..fmt..num..DisplayInt$GT$6to_u6417hee796eb647b5af3cE>
  1063d9:	48 83 f0 ff          	xor    $0xffffffffffffffff,%rax
  1063dd:	48 89 44 24 38       	mov    %rax,0x38(%rsp)
  1063e2:	48 c7 44 24 40 01 00 	movq   $0x1,0x40(%rsp)
  1063e9:	00 00 
  1063eb:	48 83 c0 01          	add    $0x1,%rax
  1063ef:	48 89 44 24 18       	mov    %rax,0x18(%rsp)
  1063f4:	eb 0f                	jmp    106405 <_ZN4core3fmt3num3imp54_$LT$impl$u20$core..fmt..Display$u20$for$u20$usize$GT$3fmt17hace6b4c3ed9b7f2bE+0x65>
  1063f6:	48 8b 7c 24 08       	mov    0x8(%rsp),%rdi
  1063fb:	e8 70 d9 ff ff       	callq  103d70 <_ZN52_$LT$usize$u20$as$u20$core..fmt..num..DisplayInt$GT$6to_u6417hee796eb647b5af3cE>
  106400:	48 89 44 24 18       	mov    %rax,0x18(%rsp)
  106405:	48 8b 14 24          	mov    (%rsp),%rdx
  106409:	8a 44 24 17          	mov    0x17(%rsp),%al
  10640d:	48 8b 7c 24 18       	mov    0x18(%rsp),%rdi
  106412:	0f b6 f0             	movzbl %al,%esi
  106415:	83 e6 01             	and    $0x1,%esi
  106418:	e8 53 f4 ff ff       	callq  105870 <_ZN4core3fmt3num3imp7fmt_u6417h7fe8efe1aa14f7f1E>
  10641d:	24 01                	and    $0x1,%al
  10641f:	0f b6 c0             	movzbl %al,%eax
  106422:	48 83 c4 48          	add    $0x48,%rsp
  106426:	c3                   	retq   
  106427:	cc                   	int3   
  106428:	cc                   	int3   
  106429:	cc                   	int3   
  10642a:	cc                   	int3   
  10642b:	cc                   	int3   
  10642c:	cc                   	int3   
  10642d:	cc                   	int3   
  10642e:	cc                   	int3   
  10642f:	cc                   	int3   

0000000000106430 <_ZN4core3ptr8metadata8metadata17h250248f624d95d22E>:
  106430:	48 83 ec 20          	sub    $0x20,%rsp
  106434:	48 89 7c 24 10       	mov    %rdi,0x10(%rsp)
  106439:	48 89 74 24 18       	mov    %rsi,0x18(%rsp)
  10643e:	48 89 3c 24          	mov    %rdi,(%rsp)
  106442:	48 89 74 24 08       	mov    %rsi,0x8(%rsp)
  106447:	48 8b 44 24 08       	mov    0x8(%rsp),%rax
  10644c:	48 83 c4 20          	add    $0x20,%rsp
  106450:	c3                   	retq   
  106451:	cc                   	int3   
  106452:	cc                   	int3   
  106453:	cc                   	int3   
  106454:	cc                   	int3   
  106455:	cc                   	int3   
  106456:	cc                   	int3   
  106457:	cc                   	int3   
  106458:	cc                   	int3   
  106459:	cc                   	int3   
  10645a:	cc                   	int3   
  10645b:	cc                   	int3   
  10645c:	cc                   	int3   
  10645d:	cc                   	int3   
  10645e:	cc                   	int3   
  10645f:	cc                   	int3   

0000000000106460 <_ZN4core3ptr8metadata8metadata17h57ede4e3f76ccff9E>:
  106460:	48 83 ec 20          	sub    $0x20,%rsp
  106464:	48 89 7c 24 10       	mov    %rdi,0x10(%rsp)
  106469:	48 89 74 24 18       	mov    %rsi,0x18(%rsp)
  10646e:	48 89 3c 24          	mov    %rdi,(%rsp)
  106472:	48 89 74 24 08       	mov    %rsi,0x8(%rsp)
  106477:	48 8b 44 24 08       	mov    0x8(%rsp),%rax
  10647c:	48 83 c4 20          	add    $0x20,%rsp
  106480:	c3                   	retq   
  106481:	cc                   	int3   
  106482:	cc                   	int3   
  106483:	cc                   	int3   
  106484:	cc                   	int3   
  106485:	cc                   	int3   
  106486:	cc                   	int3   
  106487:	cc                   	int3   
  106488:	cc                   	int3   
  106489:	cc                   	int3   
  10648a:	cc                   	int3   
  10648b:	cc                   	int3   
  10648c:	cc                   	int3   
  10648d:	cc                   	int3   
  10648e:	cc                   	int3   
  10648f:	cc                   	int3   

0000000000106490 <_ZN4core3ptr8metadata8metadata17h9c42aff0f4b1328cE>:
  106490:	48 83 ec 20          	sub    $0x20,%rsp
  106494:	48 89 7c 24 10       	mov    %rdi,0x10(%rsp)
  106499:	48 89 74 24 18       	mov    %rsi,0x18(%rsp)
  10649e:	48 89 3c 24          	mov    %rdi,(%rsp)
  1064a2:	48 89 74 24 08       	mov    %rsi,0x8(%rsp)
  1064a7:	48 8b 44 24 08       	mov    0x8(%rsp),%rax
  1064ac:	48 83 c4 20          	add    $0x20,%rsp
  1064b0:	c3                   	retq   
  1064b1:	cc                   	int3   
  1064b2:	cc                   	int3   
  1064b3:	cc                   	int3   
  1064b4:	cc                   	int3   
  1064b5:	cc                   	int3   
  1064b6:	cc                   	int3   
  1064b7:	cc                   	int3   
  1064b8:	cc                   	int3   
  1064b9:	cc                   	int3   
  1064ba:	cc                   	int3   
  1064bb:	cc                   	int3   
  1064bc:	cc                   	int3   
  1064bd:	cc                   	int3   
  1064be:	cc                   	int3   
  1064bf:	cc                   	int3   

00000000001064c0 <_ZN4core3ptr8metadata8metadata17he216e17a006137dbE>:
  1064c0:	48 83 ec 20          	sub    $0x20,%rsp
  1064c4:	48 89 7c 24 10       	mov    %rdi,0x10(%rsp)
  1064c9:	48 89 74 24 18       	mov    %rsi,0x18(%rsp)
  1064ce:	48 89 3c 24          	mov    %rdi,(%rsp)
  1064d2:	48 89 74 24 08       	mov    %rsi,0x8(%rsp)
  1064d7:	48 8b 44 24 08       	mov    0x8(%rsp),%rax
  1064dc:	48 83 c4 20          	add    $0x20,%rsp
  1064e0:	c3                   	retq   
  1064e1:	cc                   	int3   
  1064e2:	cc                   	int3   
  1064e3:	cc                   	int3   
  1064e4:	cc                   	int3   
  1064e5:	cc                   	int3   
  1064e6:	cc                   	int3   
  1064e7:	cc                   	int3   
  1064e8:	cc                   	int3   
  1064e9:	cc                   	int3   
  1064ea:	cc                   	int3   
  1064eb:	cc                   	int3   
  1064ec:	cc                   	int3   
  1064ed:	cc                   	int3   
  1064ee:	cc                   	int3   
  1064ef:	cc                   	int3   

00000000001064f0 <_ZN4core3ptr8metadata14from_raw_parts17h5c9ddfdf42e7d687E>:
  1064f0:	48 83 ec 30          	sub    $0x30,%rsp
  1064f4:	48 89 7c 24 20       	mov    %rdi,0x20(%rsp)
  1064f9:	48 89 74 24 28       	mov    %rsi,0x28(%rsp)
  1064fe:	48 89 7c 24 10       	mov    %rdi,0x10(%rsp)
  106503:	48 89 74 24 18       	mov    %rsi,0x18(%rsp)
  106508:	48 8b 4c 24 10       	mov    0x10(%rsp),%rcx
  10650d:	48 8b 44 24 18       	mov    0x18(%rsp),%rax
  106512:	48 89 0c 24          	mov    %rcx,(%rsp)
  106516:	48 89 44 24 08       	mov    %rax,0x8(%rsp)
  10651b:	48 8b 04 24          	mov    (%rsp),%rax
  10651f:	48 8b 54 24 08       	mov    0x8(%rsp),%rdx
  106524:	48 83 c4 30          	add    $0x30,%rsp
  106528:	c3                   	retq   
  106529:	cc                   	int3   
  10652a:	cc                   	int3   
  10652b:	cc                   	int3   
  10652c:	cc                   	int3   
  10652d:	cc                   	int3   
  10652e:	cc                   	int3   
  10652f:	cc                   	int3   

0000000000106530 <_ZN4core3ptr8metadata14from_raw_parts17h7c52cc57a94623c9E>:
  106530:	48 83 ec 30          	sub    $0x30,%rsp
  106534:	48 89 7c 24 20       	mov    %rdi,0x20(%rsp)
  106539:	48 89 74 24 28       	mov    %rsi,0x28(%rsp)
  10653e:	48 89 7c 24 10       	mov    %rdi,0x10(%rsp)
  106543:	48 89 74 24 18       	mov    %rsi,0x18(%rsp)
  106548:	48 8b 4c 24 10       	mov    0x10(%rsp),%rcx
  10654d:	48 8b 44 24 18       	mov    0x18(%rsp),%rax
  106552:	48 89 0c 24          	mov    %rcx,(%rsp)
  106556:	48 89 44 24 08       	mov    %rax,0x8(%rsp)
  10655b:	48 8b 04 24          	mov    (%rsp),%rax
  10655f:	48 8b 54 24 08       	mov    0x8(%rsp),%rdx
  106564:	48 83 c4 30          	add    $0x30,%rsp
  106568:	c3                   	retq   
  106569:	cc                   	int3   
  10656a:	cc                   	int3   
  10656b:	cc                   	int3   
  10656c:	cc                   	int3   
  10656d:	cc                   	int3   
  10656e:	cc                   	int3   
  10656f:	cc                   	int3   

0000000000106570 <_ZN4core3ptr8metadata14from_raw_parts17hb63dd1a6d03f4092E>:
  106570:	48 83 ec 30          	sub    $0x30,%rsp
  106574:	48 89 7c 24 20       	mov    %rdi,0x20(%rsp)
  106579:	48 89 74 24 28       	mov    %rsi,0x28(%rsp)
  10657e:	48 89 7c 24 10       	mov    %rdi,0x10(%rsp)
  106583:	48 89 74 24 18       	mov    %rsi,0x18(%rsp)
  106588:	48 8b 4c 24 10       	mov    0x10(%rsp),%rcx
  10658d:	48 8b 44 24 18       	mov    0x18(%rsp),%rax
  106592:	48 89 0c 24          	mov    %rcx,(%rsp)
  106596:	48 89 44 24 08       	mov    %rax,0x8(%rsp)
  10659b:	48 8b 04 24          	mov    (%rsp),%rax
  10659f:	48 8b 54 24 08       	mov    0x8(%rsp),%rdx
  1065a4:	48 83 c4 30          	add    $0x30,%rsp
  1065a8:	c3                   	retq   
  1065a9:	cc                   	int3   
  1065aa:	cc                   	int3   
  1065ab:	cc                   	int3   
  1065ac:	cc                   	int3   
  1065ad:	cc                   	int3   
  1065ae:	cc                   	int3   
  1065af:	cc                   	int3   

00000000001065b0 <_ZN4core3ptr8metadata14from_raw_parts17hfe2b2bf1d71d5fc9E>:
  1065b0:	48 83 ec 30          	sub    $0x30,%rsp
  1065b4:	48 89 7c 24 20       	mov    %rdi,0x20(%rsp)
  1065b9:	48 89 74 24 28       	mov    %rsi,0x28(%rsp)
  1065be:	48 89 7c 24 10       	mov    %rdi,0x10(%rsp)
  1065c3:	48 89 74 24 18       	mov    %rsi,0x18(%rsp)
  1065c8:	48 8b 4c 24 10       	mov    0x10(%rsp),%rcx
  1065cd:	48 8b 44 24 18       	mov    0x18(%rsp),%rax
  1065d2:	48 89 0c 24          	mov    %rcx,(%rsp)
  1065d6:	48 89 44 24 08       	mov    %rax,0x8(%rsp)
  1065db:	48 8b 04 24          	mov    (%rsp),%rax
  1065df:	48 8b 54 24 08       	mov    0x8(%rsp),%rdx
  1065e4:	48 83 c4 30          	add    $0x30,%rsp
  1065e8:	c3                   	retq   
  1065e9:	cc                   	int3   
  1065ea:	cc                   	int3   
  1065eb:	cc                   	int3   
  1065ec:	cc                   	int3   
  1065ed:	cc                   	int3   
  1065ee:	cc                   	int3   
  1065ef:	cc                   	int3   

00000000001065f0 <_ZN4core3ptr8metadata18from_raw_parts_mut17h0044879c97605b61E>:
  1065f0:	48 83 ec 30          	sub    $0x30,%rsp
  1065f4:	48 89 7c 24 20       	mov    %rdi,0x20(%rsp)
  1065f9:	48 89 74 24 28       	mov    %rsi,0x28(%rsp)
  1065fe:	48 89 7c 24 10       	mov    %rdi,0x10(%rsp)
  106603:	48 89 74 24 18       	mov    %rsi,0x18(%rsp)
  106608:	48 8b 4c 24 10       	mov    0x10(%rsp),%rcx
  10660d:	48 8b 44 24 18       	mov    0x18(%rsp),%rax
  106612:	48 89 0c 24          	mov    %rcx,(%rsp)
  106616:	48 89 44 24 08       	mov    %rax,0x8(%rsp)
  10661b:	48 8b 04 24          	mov    (%rsp),%rax
  10661f:	48 8b 54 24 08       	mov    0x8(%rsp),%rdx
  106624:	48 83 c4 30          	add    $0x30,%rsp
  106628:	c3                   	retq   
  106629:	cc                   	int3   
  10662a:	cc                   	int3   
  10662b:	cc                   	int3   
  10662c:	cc                   	int3   
  10662d:	cc                   	int3   
  10662e:	cc                   	int3   
  10662f:	cc                   	int3   

0000000000106630 <_ZN4core3ptr7mut_ptr31_$LT$impl$u20$$BP$mut$u20$T$GT$7is_null17h23b345778fe93ec5E>:
  106630:	48 83 ec 18          	sub    $0x18,%rsp
  106634:	48 89 7c 24 10       	mov    %rdi,0x10(%rsp)
  106639:	48 89 7c 24 08       	mov    %rdi,0x8(%rsp)
  10663e:	48 8b 7c 24 08       	mov    0x8(%rsp),%rdi
  106643:	e8 78 00 00 00       	callq  1066c0 <_ZN4core3ptr7mut_ptr31_$LT$impl$u20$$BP$mut$u20$T$GT$7is_null12runtime_impl17h6355b2739011991bE>
  106648:	24 01                	and    $0x1,%al
  10664a:	0f b6 c0             	movzbl %al,%eax
  10664d:	48 83 c4 18          	add    $0x18,%rsp
  106651:	c3                   	retq   
  106652:	cc                   	int3   
  106653:	cc                   	int3   
  106654:	cc                   	int3   
  106655:	cc                   	int3   
  106656:	cc                   	int3   
  106657:	cc                   	int3   
  106658:	cc                   	int3   
  106659:	cc                   	int3   
  10665a:	cc                   	int3   
  10665b:	cc                   	int3   
  10665c:	cc                   	int3   
  10665d:	cc                   	int3   
  10665e:	cc                   	int3   
  10665f:	cc                   	int3   

0000000000106660 <_ZN4core3ptr7mut_ptr31_$LT$impl$u20$$BP$mut$u20$T$GT$7is_null17h47fc864485d9c9adE>:
  106660:	48 83 ec 18          	sub    $0x18,%rsp
  106664:	48 89 7c 24 10       	mov    %rdi,0x10(%rsp)
  106669:	48 89 7c 24 08       	mov    %rdi,0x8(%rsp)
  10666e:	48 8b 7c 24 08       	mov    0x8(%rsp),%rdi
  106673:	e8 48 00 00 00       	callq  1066c0 <_ZN4core3ptr7mut_ptr31_$LT$impl$u20$$BP$mut$u20$T$GT$7is_null12runtime_impl17h6355b2739011991bE>
  106678:	24 01                	and    $0x1,%al
  10667a:	0f b6 c0             	movzbl %al,%eax
  10667d:	48 83 c4 18          	add    $0x18,%rsp
  106681:	c3                   	retq   
  106682:	cc                   	int3   
  106683:	cc                   	int3   
  106684:	cc                   	int3   
  106685:	cc                   	int3   
  106686:	cc                   	int3   
  106687:	cc                   	int3   
  106688:	cc                   	int3   
  106689:	cc                   	int3   
  10668a:	cc                   	int3   
  10668b:	cc                   	int3   
  10668c:	cc                   	int3   
  10668d:	cc                   	int3   
  10668e:	cc                   	int3   
  10668f:	cc                   	int3   

0000000000106690 <_ZN4core3ptr7mut_ptr31_$LT$impl$u20$$BP$mut$u20$T$GT$7is_null17he5886177d91cb675E>:
  106690:	48 83 ec 18          	sub    $0x18,%rsp
  106694:	48 89 7c 24 10       	mov    %rdi,0x10(%rsp)
  106699:	48 89 7c 24 08       	mov    %rdi,0x8(%rsp)
  10669e:	48 8b 7c 24 08       	mov    0x8(%rsp),%rdi
  1066a3:	e8 18 00 00 00       	callq  1066c0 <_ZN4core3ptr7mut_ptr31_$LT$impl$u20$$BP$mut$u20$T$GT$7is_null12runtime_impl17h6355b2739011991bE>
  1066a8:	24 01                	and    $0x1,%al
  1066aa:	0f b6 c0             	movzbl %al,%eax
  1066ad:	48 83 c4 18          	add    $0x18,%rsp
  1066b1:	c3                   	retq   
  1066b2:	cc                   	int3   
  1066b3:	cc                   	int3   
  1066b4:	cc                   	int3   
  1066b5:	cc                   	int3   
  1066b6:	cc                   	int3   
  1066b7:	cc                   	int3   
  1066b8:	cc                   	int3   
  1066b9:	cc                   	int3   
  1066ba:	cc                   	int3   
  1066bb:	cc                   	int3   
  1066bc:	cc                   	int3   
  1066bd:	cc                   	int3   
  1066be:	cc                   	int3   
  1066bf:	cc                   	int3   

00000000001066c0 <_ZN4core3ptr7mut_ptr31_$LT$impl$u20$$BP$mut$u20$T$GT$7is_null12runtime_impl17h6355b2739011991bE>:
  1066c0:	48 83 ec 18          	sub    $0x18,%rsp
  1066c4:	48 89 3c 24          	mov    %rdi,(%rsp)
  1066c8:	48 89 7c 24 08       	mov    %rdi,0x8(%rsp)
  1066cd:	48 89 7c 24 10       	mov    %rdi,0x10(%rsp)
  1066d2:	48 83 ff 00          	cmp    $0x0,%rdi
  1066d6:	0f 94 c0             	sete   %al
  1066d9:	24 01                	and    $0x1,%al
  1066db:	0f b6 c0             	movzbl %al,%eax
  1066de:	48 83 c4 18          	add    $0x18,%rsp
  1066e2:	c3                   	retq   
  1066e3:	cc                   	int3   
  1066e4:	cc                   	int3   
  1066e5:	cc                   	int3   
  1066e6:	cc                   	int3   
  1066e7:	cc                   	int3   
  1066e8:	cc                   	int3   
  1066e9:	cc                   	int3   
  1066ea:	cc                   	int3   
  1066eb:	cc                   	int3   
  1066ec:	cc                   	int3   
  1066ed:	cc                   	int3   
  1066ee:	cc                   	int3   
  1066ef:	cc                   	int3   

00000000001066f0 <_ZN4core3cmp3Ord3min17h09aa8430fb160f29E>:
  1066f0:	48 83 ec 18          	sub    $0x18,%rsp
  1066f4:	48 89 7c 24 08       	mov    %rdi,0x8(%rsp)
  1066f9:	48 89 74 24 10       	mov    %rsi,0x10(%rsp)
  1066fe:	e8 2d 00 00 00       	callq  106730 <_ZN4core3cmp6min_by17h60e6bc57830669dfE>
  106703:	48 83 c4 18          	add    $0x18,%rsp
  106707:	c3                   	retq   
  106708:	cc                   	int3   
  106709:	cc                   	int3   
  10670a:	cc                   	int3   
  10670b:	cc                   	int3   
  10670c:	cc                   	int3   
  10670d:	cc                   	int3   
  10670e:	cc                   	int3   
  10670f:	cc                   	int3   

0000000000106710 <_ZN4core3cmp3min17h85effe1424c3cdd1E>:
  106710:	48 83 ec 18          	sub    $0x18,%rsp
  106714:	48 89 7c 24 08       	mov    %rdi,0x8(%rsp)
  106719:	48 89 74 24 10       	mov    %rsi,0x10(%rsp)
  10671e:	e8 cd ff ff ff       	callq  1066f0 <_ZN4core3cmp3Ord3min17h09aa8430fb160f29E>
  106723:	48 83 c4 18          	add    $0x18,%rsp
  106727:	c3                   	retq   
  106728:	cc                   	int3   
  106729:	cc                   	int3   
  10672a:	cc                   	int3   
  10672b:	cc                   	int3   
  10672c:	cc                   	int3   
  10672d:	cc                   	int3   
  10672e:	cc                   	int3   
  10672f:	cc                   	int3   

0000000000106730 <_ZN4core3cmp6min_by17h60e6bc57830669dfE>:
  106730:	48 83 ec 48          	sub    $0x48,%rsp
  106734:	48 89 7c 24 08       	mov    %rdi,0x8(%rsp)
  106739:	48 89 74 24 10       	mov    %rsi,0x10(%rsp)
  10673e:	c6 44 24 3f 00       	movb   $0x0,0x3f(%rsp)
  106743:	c6 44 24 3e 00       	movb   $0x0,0x3e(%rsp)
  106748:	c6 44 24 3f 01       	movb   $0x1,0x3f(%rsp)
  10674d:	c6 44 24 3e 01       	movb   $0x1,0x3e(%rsp)
  106752:	48 8d 44 24 08       	lea    0x8(%rsp),%rax
  106757:	48 89 44 24 28       	mov    %rax,0x28(%rsp)
  10675c:	48 8d 44 24 10       	lea    0x10(%rsp),%rax
  106761:	48 89 44 24 30       	mov    %rax,0x30(%rsp)
  106766:	48 8b 7c 24 28       	mov    0x28(%rsp),%rdi
  10676b:	48 8b 74 24 30       	mov    0x30(%rsp),%rsi
  106770:	e8 bb 38 00 00       	callq  10a030 <_ZN4core3ops8function6FnOnce9call_once17h5f7d3a0c681ed568E>
  106775:	88 44 24 27          	mov    %al,0x27(%rsp)
  106779:	8a 44 24 27          	mov    0x27(%rsp),%al
  10677d:	fe c0                	inc    %al
  10677f:	2c 02                	sub    $0x2,%al
  106781:	72 06                	jb     106789 <_ZN4core3cmp6min_by17h60e6bc57830669dfE+0x59>
  106783:	eb 00                	jmp    106785 <_ZN4core3cmp6min_by17h60e6bc57830669dfE+0x55>
  106785:	eb 13                	jmp    10679a <_ZN4core3cmp6min_by17h60e6bc57830669dfE+0x6a>
  106787:	0f 0b                	ud2    
  106789:	c6 44 24 3f 00       	movb   $0x0,0x3f(%rsp)
  10678e:	48 8b 44 24 08       	mov    0x8(%rsp),%rax
  106793:	48 89 44 24 18       	mov    %rax,0x18(%rsp)
  106798:	eb 0f                	jmp    1067a9 <_ZN4core3cmp6min_by17h60e6bc57830669dfE+0x79>
  10679a:	c6 44 24 3e 00       	movb   $0x0,0x3e(%rsp)
  10679f:	48 8b 44 24 10       	mov    0x10(%rsp),%rax
  1067a4:	48 89 44 24 18       	mov    %rax,0x18(%rsp)
  1067a9:	f6 44 24 3e 01       	testb  $0x1,0x3e(%rsp)
  1067ae:	75 09                	jne    1067b9 <_ZN4core3cmp6min_by17h60e6bc57830669dfE+0x89>
  1067b0:	f6 44 24 3f 01       	testb  $0x1,0x3f(%rsp)
  1067b5:	75 0e                	jne    1067c5 <_ZN4core3cmp6min_by17h60e6bc57830669dfE+0x95>
  1067b7:	eb 02                	jmp    1067bb <_ZN4core3cmp6min_by17h60e6bc57830669dfE+0x8b>
  1067b9:	eb f5                	jmp    1067b0 <_ZN4core3cmp6min_by17h60e6bc57830669dfE+0x80>
  1067bb:	48 8b 44 24 18       	mov    0x18(%rsp),%rax
  1067c0:	48 83 c4 48          	add    $0x48,%rsp
  1067c4:	c3                   	retq   
  1067c5:	eb f4                	jmp    1067bb <_ZN4core3cmp6min_by17h60e6bc57830669dfE+0x8b>
  1067c7:	cc                   	int3   
  1067c8:	cc                   	int3   
  1067c9:	cc                   	int3   
  1067ca:	cc                   	int3   
  1067cb:	cc                   	int3   
  1067cc:	cc                   	int3   
  1067cd:	cc                   	int3   
  1067ce:	cc                   	int3   
  1067cf:	cc                   	int3   

00000000001067d0 <_ZN36_$LT$T$u20$as$u20$core..any..Any$GT$7type_id17hb9c1247f72931b81E>:
  1067d0:	50                   	push   %rax
  1067d1:	48 89 3c 24          	mov    %rdi,(%rsp)
  1067d5:	e8 46 0a 00 00       	callq  107220 <_ZN4core3any6TypeId2of17hba2a513332a57334E>
  1067da:	59                   	pop    %rcx
  1067db:	c3                   	retq   
  1067dc:	cc                   	int3   
  1067dd:	cc                   	int3   
  1067de:	cc                   	int3   
  1067df:	cc                   	int3   

00000000001067e0 <_ZN4core4iter8adapters3map16Map$LT$I$C$F$GT$3new17hee3106c3ba64aa08E>:
  1067e0:	48 83 ec 28          	sub    $0x28,%rsp
  1067e4:	48 89 7c 24 10       	mov    %rdi,0x10(%rsp)
  1067e9:	48 89 74 24 18       	mov    %rsi,0x18(%rsp)
  1067ee:	48 89 3c 24          	mov    %rdi,(%rsp)
  1067f2:	48 89 74 24 08       	mov    %rsi,0x8(%rsp)
  1067f7:	48 8b 04 24          	mov    (%rsp),%rax
  1067fb:	48 8b 54 24 08       	mov    0x8(%rsp),%rdx
  106800:	48 83 c4 28          	add    $0x28,%rsp
  106804:	c3                   	retq   
  106805:	cc                   	int3   
  106806:	cc                   	int3   
  106807:	cc                   	int3   
  106808:	cc                   	int3   
  106809:	cc                   	int3   
  10680a:	cc                   	int3   
  10680b:	cc                   	int3   
  10680c:	cc                   	int3   
  10680d:	cc                   	int3   
  10680e:	cc                   	int3   
  10680f:	cc                   	int3   

0000000000106810 <_ZN4core4iter8adapters3map8map_fold17hbf124d2131f0040fE>:
  106810:	c3                   	retq   
  106811:	cc                   	int3   
  106812:	cc                   	int3   
  106813:	cc                   	int3   
  106814:	cc                   	int3   
  106815:	cc                   	int3   
  106816:	cc                   	int3   
  106817:	cc                   	int3   
  106818:	cc                   	int3   
  106819:	cc                   	int3   
  10681a:	cc                   	int3   
  10681b:	cc                   	int3   
  10681c:	cc                   	int3   
  10681d:	cc                   	int3   
  10681e:	cc                   	int3   
  10681f:	cc                   	int3   

0000000000106820 <_ZN4core4iter8adapters3map8map_fold28_$u7b$$u7b$closure$u7d$$u7d$17hd69b99169413aa80E>:
  106820:	48 83 ec 48          	sub    $0x48,%rsp
  106824:	48 89 74 24 08       	mov    %rsi,0x8(%rsp)
  106829:	48 89 7c 24 10       	mov    %rdi,0x10(%rsp)
  10682e:	48 89 7c 24 30       	mov    %rdi,0x30(%rsp)
  106833:	48 89 74 24 38       	mov    %rsi,0x38(%rsp)
  106838:	48 89 54 24 40       	mov    %rdx,0x40(%rsp)
  10683d:	48 89 54 24 28       	mov    %rdx,0x28(%rsp)
  106842:	48 8b 74 24 28       	mov    0x28(%rsp),%rsi
  106847:	e8 84 0b 00 00       	callq  1073d0 <_ZN108_$LT$core..iter..adapters..filter..Filter$LT$I$C$P$GT$$u20$as$u20$core..iter..traits..iterator..Iterator$GT$5count8to_usize28_$u7b$$u7b$closure$u7d$$u7d$17hcd91f50a7bca1a16E>
  10684c:	48 8b 74 24 08       	mov    0x8(%rsp),%rsi
  106851:	48 8b 7c 24 10       	mov    0x10(%rsp),%rdi
  106856:	48 89 74 24 18       	mov    %rsi,0x18(%rsp)
  10685b:	48 89 44 24 20       	mov    %rax,0x20(%rsp)
  106860:	48 8b 74 24 18       	mov    0x18(%rsp),%rsi
  106865:	48 8b 54 24 20       	mov    0x20(%rsp),%rdx
  10686a:	e8 71 30 00 00       	callq  1098e0 <_ZN56_$LT$usize$u20$as$u20$core..iter..traits..accum..Sum$GT$3sum28_$u7b$$u7b$closure$u7d$$u7d$17h18c5d51212d03a9eE>
  10686f:	48 83 c4 48          	add    $0x48,%rsp
  106873:	c3                   	retq   
  106874:	cc                   	int3   
  106875:	cc                   	int3   
  106876:	cc                   	int3   
  106877:	cc                   	int3   
  106878:	cc                   	int3   
  106879:	cc                   	int3   
  10687a:	cc                   	int3   
  10687b:	cc                   	int3   
  10687c:	cc                   	int3   
  10687d:	cc                   	int3   
  10687e:	cc                   	int3   
  10687f:	cc                   	int3   

0000000000106880 <_ZN102_$LT$core..iter..adapters..map..Map$LT$I$C$F$GT$$u20$as$u20$core..iter..traits..iterator..Iterator$GT$4fold17h6e5d22aadc3b7834E>:
  106880:	48 83 ec 38          	sub    $0x38,%rsp
  106884:	48 89 54 24 10       	mov    %rdx,0x10(%rsp)
  106889:	48 89 74 24 08       	mov    %rsi,0x8(%rsp)
  10688e:	48 89 3c 24          	mov    %rdi,(%rsp)
  106892:	48 89 7c 24 18       	mov    %rdi,0x18(%rsp)
  106897:	48 89 74 24 20       	mov    %rsi,0x20(%rsp)
  10689c:	48 89 54 24 28       	mov    %rdx,0x28(%rsp)
  1068a1:	e8 6a ff ff ff       	callq  106810 <_ZN4core4iter8adapters3map8map_fold17hbf124d2131f0040fE>
  1068a6:	48 8b 3c 24          	mov    (%rsp),%rdi
  1068aa:	48 8b 74 24 08       	mov    0x8(%rsp),%rsi
  1068af:	48 8b 54 24 10       	mov    0x10(%rsp),%rdx
  1068b4:	e8 27 5f 00 00       	callq  10c7e0 <_ZN91_$LT$core..slice..iter..Iter$LT$T$GT$$u20$as$u20$core..iter..traits..iterator..Iterator$GT$4fold17h1d8b314c2d3ca8d5E>
  1068b9:	48 83 c4 38          	add    $0x38,%rsp
  1068bd:	c3                   	retq   
  1068be:	cc                   	int3   
  1068bf:	cc                   	int3   

00000000001068c0 <_ZN4core4iter6traits8iterator8Iterator3sum17heee7128337e62b03E>:
  1068c0:	48 83 ec 18          	sub    $0x18,%rsp
  1068c4:	48 89 7c 24 08       	mov    %rdi,0x8(%rsp)
  1068c9:	48 89 74 24 10       	mov    %rsi,0x10(%rsp)
  1068ce:	e8 ed 2f 00 00       	callq  1098c0 <_ZN56_$LT$usize$u20$as$u20$core..iter..traits..accum..Sum$GT$3sum17hbe6885f64eb07e0bE>
  1068d3:	48 83 c4 18          	add    $0x18,%rsp
  1068d7:	c3                   	retq   
  1068d8:	cc                   	int3   
  1068d9:	cc                   	int3   
  1068da:	cc                   	int3   
  1068db:	cc                   	int3   
  1068dc:	cc                   	int3   
  1068dd:	cc                   	int3   
  1068de:	cc                   	int3   
  1068df:	cc                   	int3   

00000000001068e0 <_ZN4core5panic10panic_info9PanicInfo20internal_constructor17he151c307f1b4aaccE>:
  1068e0:	48 83 ec 18          	sub    $0x18,%rsp
  1068e4:	48 89 f8             	mov    %rdi,%rax
  1068e7:	48 89 34 24          	mov    %rsi,(%rsp)
  1068eb:	48 89 54 24 08       	mov    %rdx,0x8(%rsp)
  1068f0:	41 88 c8             	mov    %cl,%r8b
  1068f3:	41 80 e0 01          	and    $0x1,%r8b
  1068f7:	44 88 44 24 17       	mov    %r8b,0x17(%rsp)
  1068fc:	4c 8d 05 e5 a2 ff ff 	lea    -0x5d1b(%rip),%r8        # 100be8 <str.1+0x168>
  106903:	4c 89 07             	mov    %r8,(%rdi)
  106906:	4c 8d 05 eb b2 00 00 	lea    0xb2eb(%rip),%r8        # 111bf8 <_ZN4core3fmt2rt12USIZE_MARKER17h1b31419084dfd5e3E+0x200>
  10690d:	4c 89 47 08          	mov    %r8,0x8(%rdi)
  106911:	48 89 77 18          	mov    %rsi,0x18(%rdi)
  106915:	48 89 57 10          	mov    %rdx,0x10(%rdi)
  106919:	80 e1 01             	and    $0x1,%cl
  10691c:	88 4f 20             	mov    %cl,0x20(%rdi)
  10691f:	48 83 c4 18          	add    $0x18,%rsp
  106923:	c3                   	retq   
  106924:	cc                   	int3   
  106925:	cc                   	int3   
  106926:	cc                   	int3   
  106927:	cc                   	int3   
  106928:	cc                   	int3   
  106929:	cc                   	int3   
  10692a:	cc                   	int3   
  10692b:	cc                   	int3   
  10692c:	cc                   	int3   
  10692d:	cc                   	int3   
  10692e:	cc                   	int3   
  10692f:	cc                   	int3   

0000000000106930 <_ZN4core5slice3cmp81_$LT$impl$u20$core..cmp..PartialEq$LT$$u5b$B$u5d$$GT$$u20$for$u20$$u5b$A$u5d$$GT$2eq17h91e6338f740c8d21E>:
  106930:	48 83 ec 28          	sub    $0x28,%rsp
  106934:	48 89 7c 24 08       	mov    %rdi,0x8(%rsp)
  106939:	48 89 74 24 10       	mov    %rsi,0x10(%rsp)
  10693e:	48 89 54 24 18       	mov    %rdx,0x18(%rsp)
  106943:	48 89 4c 24 20       	mov    %rcx,0x20(%rsp)
  106948:	e8 13 00 00 00       	callq  106960 <_ZN73_$LT$$u5b$A$u5d$$u20$as$u20$core..slice..cmp..SlicePartialEq$LT$B$GT$$GT$5equal17h76531c0fafd04436E>
  10694d:	24 01                	and    $0x1,%al
  10694f:	0f b6 c0             	movzbl %al,%eax
  106952:	48 83 c4 28          	add    $0x28,%rsp
  106956:	c3                   	retq   
  106957:	cc                   	int3   
  106958:	cc                   	int3   
  106959:	cc                   	int3   
  10695a:	cc                   	int3   
  10695b:	cc                   	int3   
  10695c:	cc                   	int3   
  10695d:	cc                   	int3   
  10695e:	cc                   	int3   
  10695f:	cc                   	int3   

0000000000106960 <_ZN73_$LT$$u5b$A$u5d$$u20$as$u20$core..slice..cmp..SlicePartialEq$LT$B$GT$$GT$5equal17h76531c0fafd04436E>:
  106960:	48 83 ec 78          	sub    $0x78,%rsp
  106964:	48 89 4c 24 08       	mov    %rcx,0x8(%rsp)
  106969:	48 89 54 24 10       	mov    %rdx,0x10(%rsp)
  10696e:	48 89 74 24 18       	mov    %rsi,0x18(%rsp)
  106973:	48 89 7c 24 20       	mov    %rdi,0x20(%rsp)
  106978:	48 89 7c 24 30       	mov    %rdi,0x30(%rsp)
  10697d:	48 89 74 24 38       	mov    %rsi,0x38(%rsp)
  106982:	48 89 54 24 40       	mov    %rdx,0x40(%rsp)
  106987:	48 89 4c 24 48       	mov    %rcx,0x48(%rsp)
  10698c:	48 39 ce             	cmp    %rcx,%rsi
  10698f:	75 52                	jne    1069e3 <_ZN73_$LT$$u5b$A$u5d$$u20$as$u20$core..slice..cmp..SlicePartialEq$LT$B$GT$$GT$5equal17h76531c0fafd04436E+0x83>
  106991:	48 8b 7c 24 20       	mov    0x20(%rsp),%rdi
  106996:	48 8b 74 24 18       	mov    0x18(%rsp),%rsi
  10699b:	e8 b0 ed ff ff       	callq  105750 <_ZN4core3mem11size_of_val17h4152d2cbe385700fE>
  1069a0:	48 8b 4c 24 18       	mov    0x18(%rsp),%rcx
  1069a5:	48 8b 7c 24 20       	mov    0x20(%rsp),%rdi
  1069aa:	48 8b 74 24 10       	mov    0x10(%rsp),%rsi
  1069af:	48 89 c2             	mov    %rax,%rdx
  1069b2:	48 8b 44 24 08       	mov    0x8(%rsp),%rax
  1069b7:	48 89 54 24 50       	mov    %rdx,0x50(%rsp)
  1069bc:	48 89 7c 24 68       	mov    %rdi,0x68(%rsp)
  1069c1:	48 89 4c 24 70       	mov    %rcx,0x70(%rsp)
  1069c6:	48 89 74 24 58       	mov    %rsi,0x58(%rsp)
  1069cb:	48 89 44 24 60       	mov    %rax,0x60(%rsp)
  1069d0:	e8 7b 9d 00 00       	callq  110750 <memcmp>
  1069d5:	83 f8 00             	cmp    $0x0,%eax
  1069d8:	0f 94 c0             	sete   %al
  1069db:	24 01                	and    $0x1,%al
  1069dd:	88 44 24 2f          	mov    %al,0x2f(%rsp)
  1069e1:	eb 05                	jmp    1069e8 <_ZN73_$LT$$u5b$A$u5d$$u20$as$u20$core..slice..cmp..SlicePartialEq$LT$B$GT$$GT$5equal17h76531c0fafd04436E+0x88>
  1069e3:	c6 44 24 2f 00       	movb   $0x0,0x2f(%rsp)
  1069e8:	8a 44 24 2f          	mov    0x2f(%rsp),%al
  1069ec:	24 01                	and    $0x1,%al
  1069ee:	0f b6 c0             	movzbl %al,%eax
  1069f1:	48 83 c4 78          	add    $0x78,%rsp
  1069f5:	c3                   	retq   
  1069f6:	cc                   	int3   
  1069f7:	cc                   	int3   
  1069f8:	cc                   	int3   
  1069f9:	cc                   	int3   
  1069fa:	cc                   	int3   
  1069fb:	cc                   	int3   
  1069fc:	cc                   	int3   
  1069fd:	cc                   	int3   
  1069fe:	cc                   	int3   
  1069ff:	cc                   	int3   

0000000000106a00 <_ZN79_$LT$core..fmt..builders..PadAdapterState$u20$as$u20$core..default..Default$GT$7default17hc9ba15def40f6b84E>:
  106a00:	48 83 ec 01          	sub    $0x1,%rsp
  106a04:	c6 04 24 01          	movb   $0x1,(%rsp)
  106a08:	8a 04 24             	mov    (%rsp),%al
  106a0b:	24 01                	and    $0x1,%al
  106a0d:	0f b6 c0             	movzbl %al,%eax
  106a10:	48 83 c4 01          	add    $0x1,%rsp
  106a14:	c3                   	retq   
  106a15:	cc                   	int3   
  106a16:	cc                   	int3   
  106a17:	cc                   	int3   
  106a18:	cc                   	int3   
  106a19:	cc                   	int3   
  106a1a:	cc                   	int3   
  106a1b:	cc                   	int3   
  106a1c:	cc                   	int3   
  106a1d:	cc                   	int3   
  106a1e:	cc                   	int3   
  106a1f:	cc                   	int3   

0000000000106a20 <_ZN4core3fmt8builders10PadAdapter4wrap17h6322b86c5cb2e7e3E>:
  106a20:	48 83 ec 38          	sub    $0x38,%rsp
  106a24:	48 89 f8             	mov    %rdi,%rax
  106a27:	48 89 44 24 08       	mov    %rax,0x8(%rsp)
  106a2c:	48 89 74 24 20       	mov    %rsi,0x20(%rsp)
  106a31:	48 89 54 24 28       	mov    %rdx,0x28(%rsp)
  106a36:	48 89 4c 24 30       	mov    %rcx,0x30(%rsp)
  106a3b:	48 89 54 24 10       	mov    %rdx,0x10(%rsp)
  106a40:	48 89 4c 24 18       	mov    %rcx,0x18(%rsp)
  106a45:	48 8b 54 24 10       	mov    0x10(%rsp),%rdx
  106a4a:	48 8b 4c 24 18       	mov    0x18(%rsp),%rcx
  106a4f:	e8 8c 14 00 00       	callq  107ee0 <_ZN4core3fmt9Formatter8wrap_buf17h7fb1a94fd975fdb3E>
  106a54:	48 8b 44 24 08       	mov    0x8(%rsp),%rax
  106a59:	48 83 c4 38          	add    $0x38,%rsp
  106a5d:	c3                   	retq   
  106a5e:	cc                   	int3   
  106a5f:	cc                   	int3   

0000000000106a60 <_ZN4core3fmt8builders10PadAdapter4wrap28_$u7b$$u7b$closure$u7d$$u7d$17haff8785eee66a5c2E>:
  106a60:	48 83 ec 38          	sub    $0x38,%rsp
  106a64:	48 89 3c 24          	mov    %rdi,(%rsp)
  106a68:	48 89 74 24 08       	mov    %rsi,0x8(%rsp)
  106a6d:	48 89 54 24 28       	mov    %rdx,0x28(%rsp)
  106a72:	48 89 4c 24 30       	mov    %rcx,0x30(%rsp)
  106a77:	48 8b 3c 24          	mov    (%rsp),%rdi
  106a7b:	48 8b 44 24 08       	mov    0x8(%rsp),%rax
  106a80:	48 89 54 24 10       	mov    %rdx,0x10(%rsp)
  106a85:	48 89 4c 24 18       	mov    %rcx,0x18(%rsp)
  106a8a:	48 89 44 24 20       	mov    %rax,0x20(%rsp)
  106a8f:	48 8d 74 24 10       	lea    0x10(%rsp),%rsi
  106a94:	e8 e7 32 00 00       	callq  109d80 <_ZN4core6option15Option$LT$T$GT$6insert17hf527e71078e5780eE>
  106a99:	48 8d 15 78 b1 00 00 	lea    0xb178(%rip),%rdx        # 111c18 <_ZN4core3fmt2rt12USIZE_MARKER17h1b31419084dfd5e3E+0x220>
  106aa0:	48 83 c4 38          	add    $0x38,%rsp
  106aa4:	c3                   	retq   
  106aa5:	cc                   	int3   
  106aa6:	cc                   	int3   
  106aa7:	cc                   	int3   
  106aa8:	cc                   	int3   
  106aa9:	cc                   	int3   
  106aaa:	cc                   	int3   
  106aab:	cc                   	int3   
  106aac:	cc                   	int3   
  106aad:	cc                   	int3   
  106aae:	cc                   	int3   
  106aaf:	cc                   	int3   

0000000000106ab0 <_ZN68_$LT$core..fmt..builders..PadAdapter$u20$as$u20$core..fmt..Write$GT$9write_str17hf07ac399485b0190E>:
  106ab0:	48 81 ec 58 01 00 00 	sub    $0x158,%rsp
  106ab7:	48 89 7c 24 18       	mov    %rdi,0x18(%rsp)
  106abc:	48 89 bc 24 30 01 00 	mov    %rdi,0x130(%rsp)
  106ac3:	00 
  106ac4:	48 89 b4 24 38 01 00 	mov    %rsi,0x138(%rsp)
  106acb:	00 
  106acc:	48 89 94 24 40 01 00 	mov    %rdx,0x140(%rsp)
  106ad3:	00 
  106ad4:	48 8d bc 24 88 00 00 	lea    0x88(%rsp),%rdi
  106adb:	00 
  106adc:	b9 0a 00 00 00       	mov    $0xa,%ecx
  106ae1:	e8 aa 7b 00 00       	callq  10e690 <_ZN4core3str21_$LT$impl$u20$str$GT$15split_inclusive17h20d014c6e83f56eaE>
  106ae6:	48 8d 7c 24 40       	lea    0x40(%rsp),%rdi
  106aeb:	48 8d b4 24 88 00 00 	lea    0x88(%rsp),%rsi
  106af2:	00 
  106af3:	e8 68 da ff ff       	callq  104560 <_ZN63_$LT$I$u20$as$u20$core..iter..traits..collect..IntoIterator$GT$9into_iter17h8ed5441dbce50cb6E>
  106af8:	48 8d bc 24 d0 00 00 	lea    0xd0(%rsp),%rdi
  106aff:	00 
  106b00:	48 8d 74 24 40       	lea    0x40(%rsp),%rsi
  106b05:	ba 48 00 00 00       	mov    $0x48,%edx
  106b0a:	e8 61 91 00 00       	callq  10fc70 <memcpy>
  106b0f:	48 8d bc 24 d0 00 00 	lea    0xd0(%rsp),%rdi
  106b16:	00 
  106b17:	e8 94 e7 ff ff       	callq  1052b0 <_ZN99_$LT$core..str..iter..SplitInclusive$LT$P$GT$$u20$as$u20$core..iter..traits..iterator..Iterator$GT$4next17hf904b57f1b7d4b2aE>
  106b1c:	48 89 94 24 20 01 00 	mov    %rdx,0x120(%rsp)
  106b23:	00 
  106b24:	48 89 84 24 18 01 00 	mov    %rax,0x118(%rsp)
  106b2b:	00 
  106b2c:	48 8b 94 24 18 01 00 	mov    0x118(%rsp),%rdx
  106b33:	00 
  106b34:	b8 01 00 00 00       	mov    $0x1,%eax
  106b39:	31 c9                	xor    %ecx,%ecx
  106b3b:	48 83 fa 00          	cmp    $0x0,%rdx
  106b3f:	48 0f 44 c1          	cmove  %rcx,%rax
  106b43:	48 83 f8 00          	cmp    $0x0,%rax
  106b47:	75 07                	jne    106b50 <_ZN68_$LT$core..fmt..builders..PadAdapter$u20$as$u20$core..fmt..Write$GT$9write_str17hf07ac399485b0190E+0xa0>
  106b49:	c6 44 24 3f 00       	movb   $0x0,0x3f(%rsp)
  106b4e:	eb 3a                	jmp    106b8a <_ZN68_$LT$core..fmt..builders..PadAdapter$u20$as$u20$core..fmt..Write$GT$9write_str17hf07ac399485b0190E+0xda>
  106b50:	48 8b 44 24 18       	mov    0x18(%rsp),%rax
  106b55:	48 8b 94 24 18 01 00 	mov    0x118(%rsp),%rdx
  106b5c:	00 
  106b5d:	48 89 54 24 08       	mov    %rdx,0x8(%rsp)
  106b62:	48 8b 8c 24 20 01 00 	mov    0x120(%rsp),%rcx
  106b69:	00 
  106b6a:	48 89 4c 24 10       	mov    %rcx,0x10(%rsp)
  106b6f:	48 89 94 24 48 01 00 	mov    %rdx,0x148(%rsp)
  106b76:	00 
  106b77:	48 89 8c 24 50 01 00 	mov    %rcx,0x150(%rsp)
  106b7e:	00 
  106b7f:	48 8b 40 10          	mov    0x10(%rax),%rax
  106b83:	f6 00 01             	testb  $0x1,(%rax)
  106b86:	75 7a                	jne    106c02 <_ZN68_$LT$core..fmt..builders..PadAdapter$u20$as$u20$core..fmt..Write$GT$9write_str17hf07ac399485b0190E+0x152>
  106b88:	eb 11                	jmp    106b9b <_ZN68_$LT$core..fmt..builders..PadAdapter$u20$as$u20$core..fmt..Write$GT$9write_str17hf07ac399485b0190E+0xeb>
  106b8a:	8a 44 24 3f          	mov    0x3f(%rsp),%al
  106b8e:	24 01                	and    $0x1,%al
  106b90:	0f b6 c0             	movzbl %al,%eax
  106b93:	48 81 c4 58 01 00 00 	add    $0x158,%rsp
  106b9a:	c3                   	retq   
  106b9b:	48 8b 74 24 10       	mov    0x10(%rsp),%rsi
  106ba0:	48 8b 7c 24 08       	mov    0x8(%rsp),%rdi
  106ba5:	ba 0a 00 00 00       	mov    $0xa,%edx
  106baa:	e8 b1 7a 00 00       	callq  10e660 <_ZN4core3str21_$LT$impl$u20$str$GT$9ends_with17hf45aa0a8012ac9d0E>
  106baf:	48 8b 74 24 08       	mov    0x8(%rsp),%rsi
  106bb4:	48 8b 54 24 10       	mov    0x10(%rsp),%rdx
  106bb9:	40 88 c7             	mov    %al,%dil
  106bbc:	48 8b 44 24 18       	mov    0x18(%rsp),%rax
  106bc1:	48 8b 48 10          	mov    0x10(%rax),%rcx
  106bc5:	40 80 e7 01          	and    $0x1,%dil
  106bc9:	40 88 39             	mov    %dil,(%rcx)
  106bcc:	48 8b 38             	mov    (%rax),%rdi
  106bcf:	48 8b 40 08          	mov    0x8(%rax),%rax
  106bd3:	ff 50 18             	callq  *0x18(%rax)
  106bd6:	0f b6 f8             	movzbl %al,%edi
  106bd9:	83 e7 01             	and    $0x1,%edi
  106bdc:	e8 df 50 00 00       	callq  10bcc0 <_ZN79_$LT$core..result..Result$LT$T$C$E$GT$$u20$as$u20$core..ops..try_trait..Try$GT$6branch17h2454c12ae4d7f827E>
  106be1:	24 01                	and    $0x1,%al
  106be3:	88 84 24 2f 01 00 00 	mov    %al,0x12f(%rsp)
  106bea:	8a 84 24 2f 01 00 00 	mov    0x12f(%rsp),%al
  106bf1:	24 01                	and    $0x1,%al
  106bf3:	0f b6 c0             	movzbl %al,%eax
  106bf6:	48 83 f8 00          	cmp    $0x0,%rax
  106bfa:	0f 84 0f ff ff ff    	je     106b0f <_ZN68_$LT$core..fmt..builders..PadAdapter$u20$as$u20$core..fmt..Write$GT$9write_str17hf07ac399485b0190E+0x5f>
  106c00:	eb 5c                	jmp    106c5e <_ZN68_$LT$core..fmt..builders..PadAdapter$u20$as$u20$core..fmt..Write$GT$9write_str17hf07ac399485b0190E+0x1ae>
  106c02:	48 8b 44 24 18       	mov    0x18(%rsp),%rax
  106c07:	48 8b 38             	mov    (%rax),%rdi
  106c0a:	48 8b 40 08          	mov    0x8(%rax),%rax
  106c0e:	48 8d 35 d3 9f ff ff 	lea    -0x602d(%rip),%rsi        # 100be8 <str.1+0x168>
  106c15:	ba 04 00 00 00       	mov    $0x4,%edx
  106c1a:	ff 50 18             	callq  *0x18(%rax)
  106c1d:	0f b6 f8             	movzbl %al,%edi
  106c20:	83 e7 01             	and    $0x1,%edi
  106c23:	e8 98 50 00 00       	callq  10bcc0 <_ZN79_$LT$core..result..Result$LT$T$C$E$GT$$u20$as$u20$core..ops..try_trait..Try$GT$6branch17h2454c12ae4d7f827E>
  106c28:	24 01                	and    $0x1,%al
  106c2a:	88 84 24 2e 01 00 00 	mov    %al,0x12e(%rsp)
  106c31:	8a 84 24 2e 01 00 00 	mov    0x12e(%rsp),%al
  106c38:	24 01                	and    $0x1,%al
  106c3a:	0f b6 c0             	movzbl %al,%eax
  106c3d:	48 83 f8 00          	cmp    $0x0,%rax
  106c41:	0f 84 54 ff ff ff    	je     106b9b <_ZN68_$LT$core..fmt..builders..PadAdapter$u20$as$u20$core..fmt..Write$GT$9write_str17hf07ac399485b0190E+0xeb>
  106c47:	48 8d 3d 12 b0 00 00 	lea    0xb012(%rip),%rdi        # 111c60 <_ZN4core3fmt2rt12USIZE_MARKER17h1b31419084dfd5e3E+0x268>
  106c4e:	e8 cd 50 00 00       	callq  10bd20 <_ZN153_$LT$core..result..Result$LT$T$C$F$GT$$u20$as$u20$core..ops..try_trait..FromResidual$LT$core..result..Result$LT$core..convert..Infallible$C$E$GT$$GT$$GT$13from_residual17hdab11aac15fb79f2E>
  106c53:	24 01                	and    $0x1,%al
  106c55:	88 44 24 3f          	mov    %al,0x3f(%rsp)
  106c59:	e9 2c ff ff ff       	jmpq   106b8a <_ZN68_$LT$core..fmt..builders..PadAdapter$u20$as$u20$core..fmt..Write$GT$9write_str17hf07ac399485b0190E+0xda>
  106c5e:	48 8d 3d e3 af 00 00 	lea    0xafe3(%rip),%rdi        # 111c48 <_ZN4core3fmt2rt12USIZE_MARKER17h1b31419084dfd5e3E+0x250>
  106c65:	e8 b6 50 00 00       	callq  10bd20 <_ZN153_$LT$core..result..Result$LT$T$C$F$GT$$u20$as$u20$core..ops..try_trait..FromResidual$LT$core..result..Result$LT$core..convert..Infallible$C$E$GT$$GT$$GT$13from_residual17hdab11aac15fb79f2E>
  106c6a:	24 01                	and    $0x1,%al
  106c6c:	88 44 24 3f          	mov    %al,0x3f(%rsp)
  106c70:	e9 15 ff ff ff       	jmpq   106b8a <_ZN68_$LT$core..fmt..builders..PadAdapter$u20$as$u20$core..fmt..Write$GT$9write_str17hf07ac399485b0190E+0xda>
  106c75:	cc                   	int3   
  106c76:	cc                   	int3   
  106c77:	cc                   	int3   
  106c78:	cc                   	int3   
  106c79:	cc                   	int3   
  106c7a:	cc                   	int3   
  106c7b:	cc                   	int3   
  106c7c:	cc                   	int3   
  106c7d:	cc                   	int3   
  106c7e:	cc                   	int3   
  106c7f:	cc                   	int3   

0000000000106c80 <_ZN4core3fmt8builders15debug_tuple_new17h879a4f5faf5f372cE>:
  106c80:	48 83 ec 58          	sub    $0x58,%rsp
  106c84:	48 89 4c 24 10       	mov    %rcx,0x10(%rsp)
  106c89:	48 89 d0             	mov    %rdx,%rax
  106c8c:	48 8b 54 24 10       	mov    0x10(%rsp),%rdx
  106c91:	48 89 44 24 08       	mov    %rax,0x8(%rsp)
  106c96:	48 89 f0             	mov    %rsi,%rax
  106c99:	48 8b 74 24 08       	mov    0x8(%rsp),%rsi
  106c9e:	48 89 44 24 18       	mov    %rax,0x18(%rsp)
  106ca3:	48 89 f8             	mov    %rdi,%rax
  106ca6:	48 8b 7c 24 18       	mov    0x18(%rsp),%rdi
  106cab:	48 89 44 24 28       	mov    %rax,0x28(%rsp)
  106cb0:	48 89 44 24 30       	mov    %rax,0x30(%rsp)
  106cb5:	48 89 7c 24 38       	mov    %rdi,0x38(%rsp)
  106cba:	48 89 74 24 40       	mov    %rsi,0x40(%rsp)
  106cbf:	48 89 54 24 48       	mov    %rdx,0x48(%rsp)
  106cc4:	e8 e7 20 00 00       	callq  108db0 <_ZN4core3fmt9Formatter9write_str17hcc9b1929ead6057fE>
  106cc9:	48 8b 7c 24 08       	mov    0x8(%rsp),%rdi
  106cce:	48 8b 74 24 10       	mov    0x10(%rsp),%rsi
  106cd3:	88 44 24 27          	mov    %al,0x27(%rsp)
  106cd7:	24 01                	and    $0x1,%al
  106cd9:	88 44 24 57          	mov    %al,0x57(%rsp)
  106cdd:	e8 7e 77 00 00       	callq  10e460 <_ZN4core3str21_$LT$impl$u20$str$GT$8is_empty17ha1e4ec5f24d7978aE>
  106ce2:	48 8b 74 24 18       	mov    0x18(%rsp),%rsi
  106ce7:	8a 54 24 27          	mov    0x27(%rsp),%dl
  106ceb:	48 8b 7c 24 28       	mov    0x28(%rsp),%rdi
  106cf0:	88 c1                	mov    %al,%cl
  106cf2:	48 8b 44 24 30       	mov    0x30(%rsp),%rax
  106cf7:	48 89 77 08          	mov    %rsi,0x8(%rdi)
  106cfb:	80 e2 01             	and    $0x1,%dl
  106cfe:	88 57 10             	mov    %dl,0x10(%rdi)
  106d01:	48 c7 07 00 00 00 00 	movq   $0x0,(%rdi)
  106d08:	80 e1 01             	and    $0x1,%cl
  106d0b:	88 4f 11             	mov    %cl,0x11(%rdi)
  106d0e:	48 83 c4 58          	add    $0x58,%rsp
  106d12:	c3                   	retq   
  106d13:	cc                   	int3   
  106d14:	cc                   	int3   
  106d15:	cc                   	int3   
  106d16:	cc                   	int3   
  106d17:	cc                   	int3   
  106d18:	cc                   	int3   
  106d19:	cc                   	int3   
  106d1a:	cc                   	int3   
  106d1b:	cc                   	int3   
  106d1c:	cc                   	int3   
  106d1d:	cc                   	int3   
  106d1e:	cc                   	int3   
  106d1f:	cc                   	int3   

0000000000106d20 <_ZN4core3fmt8builders10DebugTuple5field17h4336235e018342ccE>:
  106d20:	48 83 ec 48          	sub    $0x48,%rsp
  106d24:	48 89 7c 24 08       	mov    %rdi,0x8(%rsp)
  106d29:	48 89 7c 24 30       	mov    %rdi,0x30(%rsp)
  106d2e:	48 89 74 24 38       	mov    %rsi,0x38(%rsp)
  106d33:	48 89 54 24 40       	mov    %rdx,0x40(%rsp)
  106d38:	8a 47 10             	mov    0x10(%rdi),%al
  106d3b:	48 89 7c 24 18       	mov    %rdi,0x18(%rsp)
  106d40:	48 89 74 24 20       	mov    %rsi,0x20(%rsp)
  106d45:	48 89 54 24 28       	mov    %rdx,0x28(%rsp)
  106d4a:	48 8d 74 24 18       	lea    0x18(%rsp),%rsi
  106d4f:	24 01                	and    $0x1,%al
  106d51:	0f b6 f8             	movzbl %al,%edi
  106d54:	e8 17 4d 00 00       	callq  10ba70 <_ZN4core6result19Result$LT$T$C$E$GT$8and_then17h295c297985b75145E>
  106d59:	48 8b 7c 24 08       	mov    0x8(%rsp),%rdi
  106d5e:	24 01                	and    $0x1,%al
  106d60:	88 47 10             	mov    %al,0x10(%rdi)
  106d63:	48 8b 07             	mov    (%rdi),%rax
  106d66:	48 83 c0 01          	add    $0x1,%rax
  106d6a:	48 89 44 24 10       	mov    %rax,0x10(%rsp)
  106d6f:	0f 92 c0             	setb   %al
  106d72:	a8 01                	test   $0x1,%al
  106d74:	75 12                	jne    106d88 <_ZN4core3fmt8builders10DebugTuple5field17h4336235e018342ccE+0x68>
  106d76:	48 8b 44 24 08       	mov    0x8(%rsp),%rax
  106d7b:	48 8b 4c 24 10       	mov    0x10(%rsp),%rcx
  106d80:	48 89 08             	mov    %rcx,(%rax)
  106d83:	48 83 c4 48          	add    $0x48,%rsp
  106d87:	c3                   	retq   
  106d88:	48 8d 3d e1 9e ff ff 	lea    -0x611f(%rip),%rdi        # 100c70 <str.0>
  106d8f:	48 8d 15 e2 ae 00 00 	lea    0xaee2(%rip),%rdx        # 111c78 <_ZN4core3fmt2rt12USIZE_MARKER17h1b31419084dfd5e3E+0x280>
  106d96:	be 1c 00 00 00       	mov    $0x1c,%esi
  106d9b:	e8 90 e6 ff ff       	callq  105430 <_ZN4core9panicking5panic17h4e18ef80ec7677b0E>
  106da0:	0f 0b                	ud2    
  106da2:	cc                   	int3   
  106da3:	cc                   	int3   
  106da4:	cc                   	int3   
  106da5:	cc                   	int3   
  106da6:	cc                   	int3   
  106da7:	cc                   	int3   
  106da8:	cc                   	int3   
  106da9:	cc                   	int3   
  106daa:	cc                   	int3   
  106dab:	cc                   	int3   
  106dac:	cc                   	int3   
  106dad:	cc                   	int3   
  106dae:	cc                   	int3   
  106daf:	cc                   	int3   

0000000000106db0 <_ZN4core3fmt8builders10DebugTuple5field28_$u7b$$u7b$closure$u7d$$u7d$17h9926210a1950b090E>:
  106db0:	48 81 ec c8 00 00 00 	sub    $0xc8,%rsp
  106db7:	48 89 7c 24 08       	mov    %rdi,0x8(%rsp)
  106dbc:	48 8b 3f             	mov    (%rdi),%rdi
  106dbf:	e8 0c 03 00 00       	callq  1070d0 <_ZN4core3fmt8builders10DebugTuple9is_pretty17h423af1a3d0710cb7E>
  106dc4:	a8 01                	test   $0x1,%al
  106dc6:	75 10                	jne    106dd8 <_ZN4core3fmt8builders10DebugTuple5field28_$u7b$$u7b$closure$u7d$$u7d$17h9926210a1950b090E+0x28>
  106dc8:	48 8b 44 24 08       	mov    0x8(%rsp),%rax
  106dcd:	48 8b 00             	mov    (%rax),%rax
  106dd0:	48 83 38 00          	cmpq   $0x0,(%rax)
  106dd4:	74 19                	je     106def <_ZN4core3fmt8builders10DebugTuple5field28_$u7b$$u7b$closure$u7d$$u7d$17h9926210a1950b090E+0x3f>
  106dd6:	eb 34                	jmp    106e0c <_ZN4core3fmt8builders10DebugTuple5field28_$u7b$$u7b$closure$u7d$$u7d$17h9926210a1950b090E+0x5c>
  106dd8:	48 8b 44 24 08       	mov    0x8(%rsp),%rax
  106ddd:	48 8b 00             	mov    (%rax),%rax
  106de0:	48 83 38 00          	cmpq   $0x0,(%rax)
  106de4:	0f 84 c6 00 00 00    	je     106eb0 <_ZN4core3fmt8builders10DebugTuple5field28_$u7b$$u7b$closure$u7d$$u7d$17h9926210a1950b090E+0x100>
  106dea:	e9 fe 00 00 00       	jmpq   106eed <_ZN4core3fmt8builders10DebugTuple5field28_$u7b$$u7b$closure$u7d$$u7d$17h9926210a1950b090E+0x13d>
  106def:	48 8d 05 96 9e ff ff 	lea    -0x616a(%rip),%rax        # 100c8c <str.0+0x1c>
  106df6:	48 89 84 24 a8 00 00 	mov    %rax,0xa8(%rsp)
  106dfd:	00 
  106dfe:	48 c7 84 24 b0 00 00 	movq   $0x1,0xb0(%rsp)
  106e05:	00 01 00 00 00 
  106e0a:	eb 1b                	jmp    106e27 <_ZN4core3fmt8builders10DebugTuple5field28_$u7b$$u7b$closure$u7d$$u7d$17h9926210a1950b090E+0x77>
  106e0c:	48 8d 05 51 9e ff ff 	lea    -0x61af(%rip),%rax        # 100c64 <str.1+0x1e4>
  106e13:	48 89 84 24 a8 00 00 	mov    %rax,0xa8(%rsp)
  106e1a:	00 
  106e1b:	48 c7 84 24 b0 00 00 	movq   $0x2,0xb0(%rsp)
  106e22:	00 02 00 00 00 
  106e27:	48 8b 44 24 08       	mov    0x8(%rsp),%rax
  106e2c:	48 8b 00             	mov    (%rax),%rax
  106e2f:	48 8b 78 08          	mov    0x8(%rax),%rdi
  106e33:	48 8b b4 24 a8 00 00 	mov    0xa8(%rsp),%rsi
  106e3a:	00 
  106e3b:	48 8b 94 24 b0 00 00 	mov    0xb0(%rsp),%rdx
  106e42:	00 
  106e43:	e8 68 1f 00 00       	callq  108db0 <_ZN4core3fmt9Formatter9write_str17hcc9b1929ead6057fE>
  106e48:	0f b6 f8             	movzbl %al,%edi
  106e4b:	83 e7 01             	and    $0x1,%edi
  106e4e:	e8 6d 4e 00 00       	callq  10bcc0 <_ZN79_$LT$core..result..Result$LT$T$C$E$GT$$u20$as$u20$core..ops..try_trait..Try$GT$6branch17h2454c12ae4d7f827E>
  106e53:	24 01                	and    $0x1,%al
  106e55:	88 84 24 bf 00 00 00 	mov    %al,0xbf(%rsp)
  106e5c:	8a 84 24 bf 00 00 00 	mov    0xbf(%rsp),%al
  106e63:	24 01                	and    $0x1,%al
  106e65:	0f b6 c0             	movzbl %al,%eax
  106e68:	48 83 f8 00          	cmp    $0x0,%rax
  106e6c:	75 1f                	jne    106e8d <_ZN4core3fmt8builders10DebugTuple5field28_$u7b$$u7b$closure$u7d$$u7d$17h9926210a1950b090E+0xdd>
  106e6e:	48 8b 4c 24 08       	mov    0x8(%rsp),%rcx
  106e73:	48 8b 79 08          	mov    0x8(%rcx),%rdi
  106e77:	48 8b 41 10          	mov    0x10(%rcx),%rax
  106e7b:	48 8b 09             	mov    (%rcx),%rcx
  106e7e:	48 8b 71 08          	mov    0x8(%rcx),%rsi
  106e82:	ff 50 18             	callq  *0x18(%rax)
  106e85:	24 01                	and    $0x1,%al
  106e87:	88 44 24 3e          	mov    %al,0x3e(%rsp)
  106e8b:	eb 12                	jmp    106e9f <_ZN4core3fmt8builders10DebugTuple5field28_$u7b$$u7b$closure$u7d$$u7d$17h9926210a1950b090E+0xef>
  106e8d:	48 8d 3d fc ad 00 00 	lea    0xadfc(%rip),%rdi        # 111c90 <_ZN4core3fmt2rt12USIZE_MARKER17h1b31419084dfd5e3E+0x298>
  106e94:	e8 87 4e 00 00       	callq  10bd20 <_ZN153_$LT$core..result..Result$LT$T$C$F$GT$$u20$as$u20$core..ops..try_trait..FromResidual$LT$core..result..Result$LT$core..convert..Infallible$C$E$GT$$GT$$GT$13from_residual17hdab11aac15fb79f2E>
  106e99:	24 01                	and    $0x1,%al
  106e9b:	88 44 24 3e          	mov    %al,0x3e(%rsp)
  106e9f:	8a 44 24 3e          	mov    0x3e(%rsp),%al
  106ea3:	24 01                	and    $0x1,%al
  106ea5:	0f b6 c0             	movzbl %al,%eax
  106ea8:	48 81 c4 c8 00 00 00 	add    $0xc8,%rsp
  106eaf:	c3                   	retq   
  106eb0:	48 8b 44 24 08       	mov    0x8(%rsp),%rax
  106eb5:	48 8b 00             	mov    (%rax),%rax
  106eb8:	48 8b 78 08          	mov    0x8(%rax),%rdi
  106ebc:	48 8d 35 ca 9d ff ff 	lea    -0x6236(%rip),%rsi        # 100c8d <str.0+0x1d>
  106ec3:	ba 02 00 00 00       	mov    $0x2,%edx
  106ec8:	e8 e3 1e 00 00       	callq  108db0 <_ZN4core3fmt9Formatter9write_str17hcc9b1929ead6057fE>
  106ecd:	0f b6 f8             	movzbl %al,%edi
  106ed0:	83 e7 01             	and    $0x1,%edi
  106ed3:	e8 e8 4d 00 00       	callq  10bcc0 <_ZN79_$LT$core..result..Result$LT$T$C$E$GT$$u20$as$u20$core..ops..try_trait..Try$GT$6branch17h2454c12ae4d7f827E>
  106ed8:	24 01                	and    $0x1,%al
  106eda:	88 44 24 3f          	mov    %al,0x3f(%rsp)
  106ede:	8a 44 24 3f          	mov    0x3f(%rsp),%al
  106ee2:	24 01                	and    $0x1,%al
  106ee4:	0f b6 c0             	movzbl %al,%eax
  106ee7:	48 83 f8 00          	cmp    $0x0,%rax
  106eeb:	75 74                	jne    106f61 <_ZN4core3fmt8builders10DebugTuple5field28_$u7b$$u7b$closure$u7d$$u7d$17h9926210a1950b090E+0x1b1>
  106eed:	48 c7 44 24 40 00 00 	movq   $0x0,0x40(%rsp)
  106ef4:	00 00 
  106ef6:	e8 05 fb ff ff       	callq  106a00 <_ZN79_$LT$core..fmt..builders..PadAdapterState$u20$as$u20$core..default..Default$GT$7default17hc9ba15def40f6b84E>
  106efb:	88 c1                	mov    %al,%cl
  106efd:	48 8b 44 24 08       	mov    0x8(%rsp),%rax
  106f02:	80 e1 01             	and    $0x1,%cl
  106f05:	88 4c 24 5f          	mov    %cl,0x5f(%rsp)
  106f09:	48 8b 00             	mov    (%rax),%rax
  106f0c:	48 8b 70 08          	mov    0x8(%rax),%rsi
  106f10:	48 8d 7c 24 60       	lea    0x60(%rsp),%rdi
  106f15:	48 8d 54 24 40       	lea    0x40(%rsp),%rdx
  106f1a:	48 8d 4c 24 5f       	lea    0x5f(%rsp),%rcx
  106f1f:	e8 fc fa ff ff       	callq  106a20 <_ZN4core3fmt8builders10PadAdapter4wrap17h6322b86c5cb2e7e3E>
  106f24:	48 8b 44 24 08       	mov    0x8(%rsp),%rax
  106f29:	48 8b 78 08          	mov    0x8(%rax),%rdi
  106f2d:	48 8b 40 10          	mov    0x10(%rax),%rax
  106f31:	48 8d 74 24 60       	lea    0x60(%rsp),%rsi
  106f36:	ff 50 18             	callq  *0x18(%rax)
  106f39:	0f b6 f8             	movzbl %al,%edi
  106f3c:	83 e7 01             	and    $0x1,%edi
  106f3f:	e8 7c 4d 00 00       	callq  10bcc0 <_ZN79_$LT$core..result..Result$LT$T$C$E$GT$$u20$as$u20$core..ops..try_trait..Try$GT$6branch17h2454c12ae4d7f827E>
  106f44:	24 01                	and    $0x1,%al
  106f46:	88 84 24 a7 00 00 00 	mov    %al,0xa7(%rsp)
  106f4d:	8a 84 24 a7 00 00 00 	mov    0xa7(%rsp),%al
  106f54:	24 01                	and    $0x1,%al
  106f56:	0f b6 c0             	movzbl %al,%eax
  106f59:	48 83 f8 00          	cmp    $0x0,%rax
  106f5d:	74 19                	je     106f78 <_ZN4core3fmt8builders10DebugTuple5field28_$u7b$$u7b$closure$u7d$$u7d$17h9926210a1950b090E+0x1c8>
  106f5f:	eb 38                	jmp    106f99 <_ZN4core3fmt8builders10DebugTuple5field28_$u7b$$u7b$closure$u7d$$u7d$17h9926210a1950b090E+0x1e9>
  106f61:	48 8d 3d 40 ad 00 00 	lea    0xad40(%rip),%rdi        # 111ca8 <_ZN4core3fmt2rt12USIZE_MARKER17h1b31419084dfd5e3E+0x2b0>
  106f68:	e8 b3 4d 00 00       	callq  10bd20 <_ZN153_$LT$core..result..Result$LT$T$C$F$GT$$u20$as$u20$core..ops..try_trait..FromResidual$LT$core..result..Result$LT$core..convert..Infallible$C$E$GT$$GT$$GT$13from_residual17hdab11aac15fb79f2E>
  106f6d:	24 01                	and    $0x1,%al
  106f6f:	88 44 24 3e          	mov    %al,0x3e(%rsp)
  106f73:	e9 27 ff ff ff       	jmpq   106e9f <_ZN4core3fmt8builders10DebugTuple5field28_$u7b$$u7b$closure$u7d$$u7d$17h9926210a1950b090E+0xef>
  106f78:	48 8d 7c 24 60       	lea    0x60(%rsp),%rdi
  106f7d:	48 8d 35 e2 9c ff ff 	lea    -0x631e(%rip),%rsi        # 100c66 <str.1+0x1e6>
  106f84:	ba 02 00 00 00       	mov    $0x2,%edx
  106f89:	e8 22 1e 00 00       	callq  108db0 <_ZN4core3fmt9Formatter9write_str17hcc9b1929ead6057fE>
  106f8e:	24 01                	and    $0x1,%al
  106f90:	88 44 24 3e          	mov    %al,0x3e(%rsp)
  106f94:	e9 06 ff ff ff       	jmpq   106e9f <_ZN4core3fmt8builders10DebugTuple5field28_$u7b$$u7b$closure$u7d$$u7d$17h9926210a1950b090E+0xef>
  106f99:	48 8d 3d 20 ad 00 00 	lea    0xad20(%rip),%rdi        # 111cc0 <_ZN4core3fmt2rt12USIZE_MARKER17h1b31419084dfd5e3E+0x2c8>
  106fa0:	e8 7b 4d 00 00       	callq  10bd20 <_ZN153_$LT$core..result..Result$LT$T$C$F$GT$$u20$as$u20$core..ops..try_trait..FromResidual$LT$core..result..Result$LT$core..convert..Infallible$C$E$GT$$GT$$GT$13from_residual17hdab11aac15fb79f2E>
  106fa5:	24 01                	and    $0x1,%al
  106fa7:	88 44 24 3e          	mov    %al,0x3e(%rsp)
  106fab:	e9 ef fe ff ff       	jmpq   106e9f <_ZN4core3fmt8builders10DebugTuple5field28_$u7b$$u7b$closure$u7d$$u7d$17h9926210a1950b090E+0xef>

0000000000106fb0 <_ZN4core3fmt8builders10DebugTuple6finish17hbce62a86a896b0b9E>:
  106fb0:	48 83 ec 18          	sub    $0x18,%rsp
  106fb4:	48 89 3c 24          	mov    %rdi,(%rsp)
  106fb8:	48 89 7c 24 10       	mov    %rdi,0x10(%rsp)
  106fbd:	48 83 3f 00          	cmpq   $0x0,(%rdi)
  106fc1:	77 11                	ja     106fd4 <_ZN4core3fmt8builders10DebugTuple6finish17hbce62a86a896b0b9E+0x24>
  106fc3:	48 8b 04 24          	mov    (%rsp),%rax
  106fc7:	8a 40 10             	mov    0x10(%rax),%al
  106fca:	24 01                	and    $0x1,%al
  106fcc:	0f b6 c0             	movzbl %al,%eax
  106fcf:	48 83 c4 18          	add    $0x18,%rsp
  106fd3:	c3                   	retq   
  106fd4:	48 8b 0c 24          	mov    (%rsp),%rcx
  106fd8:	8a 41 10             	mov    0x10(%rcx),%al
  106fdb:	48 89 4c 24 08       	mov    %rcx,0x8(%rsp)
  106fe0:	48 8b 74 24 08       	mov    0x8(%rsp),%rsi
  106fe5:	24 01                	and    $0x1,%al
  106fe7:	0f b6 f8             	movzbl %al,%edi
  106fea:	e8 01 4b 00 00       	callq  10baf0 <_ZN4core6result19Result$LT$T$C$E$GT$8and_then17hf95c586f8a91f330E>
  106fef:	88 c1                	mov    %al,%cl
  106ff1:	48 8b 04 24          	mov    (%rsp),%rax
  106ff5:	80 e1 01             	and    $0x1,%cl
  106ff8:	88 48 10             	mov    %cl,0x10(%rax)
  106ffb:	eb c6                	jmp    106fc3 <_ZN4core3fmt8builders10DebugTuple6finish17hbce62a86a896b0b9E+0x13>
  106ffd:	cc                   	int3   
  106ffe:	cc                   	int3   
  106fff:	cc                   	int3   

0000000000107000 <_ZN4core3fmt8builders10DebugTuple6finish28_$u7b$$u7b$closure$u7d$$u7d$17h34552c36710dae24E>:
  107000:	48 83 ec 28          	sub    $0x28,%rsp
  107004:	48 89 7c 24 10       	mov    %rdi,0x10(%rsp)
  107009:	48 8b 44 24 10       	mov    0x10(%rsp),%rax
  10700e:	48 83 38 01          	cmpq   $0x1,(%rax)
  107012:	75 10                	jne    107024 <_ZN4core3fmt8builders10DebugTuple6finish28_$u7b$$u7b$closure$u7d$$u7d$17h34552c36710dae24E+0x24>
  107014:	48 8b 44 24 10       	mov    0x10(%rsp),%rax
  107019:	8a 40 11             	mov    0x11(%rax),%al
  10701c:	24 01                	and    $0x1,%al
  10701e:	88 44 24 1e          	mov    %al,0x1e(%rsp)
  107022:	eb 05                	jmp    107029 <_ZN4core3fmt8builders10DebugTuple6finish28_$u7b$$u7b$closure$u7d$$u7d$17h34552c36710dae24E+0x29>
  107024:	c6 44 24 1e 00       	movb   $0x0,0x1e(%rsp)
  107029:	f6 44 24 1e 01       	testb  $0x1,0x1e(%rsp)
  10702e:	75 07                	jne    107037 <_ZN4core3fmt8builders10DebugTuple6finish28_$u7b$$u7b$closure$u7d$$u7d$17h34552c36710dae24E+0x37>
  107030:	c6 44 24 1d 00       	movb   $0x0,0x1d(%rsp)
  107035:	eb 12                	jmp    107049 <_ZN4core3fmt8builders10DebugTuple6finish28_$u7b$$u7b$closure$u7d$$u7d$17h34552c36710dae24E+0x49>
  107037:	48 8b 7c 24 10       	mov    0x10(%rsp),%rdi
  10703c:	e8 8f 00 00 00       	callq  1070d0 <_ZN4core3fmt8builders10DebugTuple9is_pretty17h423af1a3d0710cb7E>
  107041:	34 ff                	xor    $0xff,%al
  107043:	24 01                	and    $0x1,%al
  107045:	88 44 24 1d          	mov    %al,0x1d(%rsp)
  107049:	f6 44 24 1d 01       	testb  $0x1,0x1d(%rsp)
  10704e:	75 22                	jne    107072 <_ZN4core3fmt8builders10DebugTuple6finish28_$u7b$$u7b$closure$u7d$$u7d$17h34552c36710dae24E+0x72>
  107050:	48 8b 44 24 10       	mov    0x10(%rsp),%rax
  107055:	48 8b 78 08          	mov    0x8(%rax),%rdi
  107059:	48 8d 35 30 9c ff ff 	lea    -0x63d0(%rip),%rsi        # 100c90 <str.0+0x20>
  107060:	ba 01 00 00 00       	mov    $0x1,%edx
  107065:	e8 46 1d 00 00       	callq  108db0 <_ZN4core3fmt9Formatter9write_str17hcc9b1929ead6057fE>
  10706a:	24 01                	and    $0x1,%al
  10706c:	88 44 24 1c          	mov    %al,0x1c(%rsp)
  107070:	eb 4c                	jmp    1070be <_ZN4core3fmt8builders10DebugTuple6finish28_$u7b$$u7b$closure$u7d$$u7d$17h34552c36710dae24E+0xbe>
  107072:	48 8b 44 24 10       	mov    0x10(%rsp),%rax
  107077:	48 8b 78 08          	mov    0x8(%rax),%rdi
  10707b:	48 8d 35 0d 9c ff ff 	lea    -0x63f3(%rip),%rsi        # 100c8f <str.0+0x1f>
  107082:	ba 01 00 00 00       	mov    $0x1,%edx
  107087:	e8 24 1d 00 00       	callq  108db0 <_ZN4core3fmt9Formatter9write_str17hcc9b1929ead6057fE>
  10708c:	0f b6 f8             	movzbl %al,%edi
  10708f:	83 e7 01             	and    $0x1,%edi
  107092:	e8 29 4c 00 00       	callq  10bcc0 <_ZN79_$LT$core..result..Result$LT$T$C$E$GT$$u20$as$u20$core..ops..try_trait..Try$GT$6branch17h2454c12ae4d7f827E>
  107097:	24 01                	and    $0x1,%al
  107099:	88 44 24 1f          	mov    %al,0x1f(%rsp)
  10709d:	8a 44 24 1f          	mov    0x1f(%rsp),%al
  1070a1:	24 01                	and    $0x1,%al
  1070a3:	0f b6 c0             	movzbl %al,%eax
  1070a6:	48 83 f8 00          	cmp    $0x0,%rax
  1070aa:	74 a4                	je     107050 <_ZN4core3fmt8builders10DebugTuple6finish28_$u7b$$u7b$closure$u7d$$u7d$17h34552c36710dae24E+0x50>
  1070ac:	48 8d 3d 25 ac 00 00 	lea    0xac25(%rip),%rdi        # 111cd8 <_ZN4core3fmt2rt12USIZE_MARKER17h1b31419084dfd5e3E+0x2e0>
  1070b3:	e8 68 4c 00 00       	callq  10bd20 <_ZN153_$LT$core..result..Result$LT$T$C$F$GT$$u20$as$u20$core..ops..try_trait..FromResidual$LT$core..result..Result$LT$core..convert..Infallible$C$E$GT$$GT$$GT$13from_residual17hdab11aac15fb79f2E>
  1070b8:	24 01                	and    $0x1,%al
  1070ba:	88 44 24 1c          	mov    %al,0x1c(%rsp)
  1070be:	8a 44 24 1c          	mov    0x1c(%rsp),%al
  1070c2:	24 01                	and    $0x1,%al
  1070c4:	0f b6 c0             	movzbl %al,%eax
  1070c7:	48 83 c4 28          	add    $0x28,%rsp
  1070cb:	c3                   	retq   
  1070cc:	cc                   	int3   
  1070cd:	cc                   	int3   
  1070ce:	cc                   	int3   
  1070cf:	cc                   	int3   

00000000001070d0 <_ZN4core3fmt8builders10DebugTuple9is_pretty17h423af1a3d0710cb7E>:
  1070d0:	50                   	push   %rax
  1070d1:	48 89 3c 24          	mov    %rdi,(%rsp)
  1070d5:	48 8b 7f 08          	mov    0x8(%rdi),%rdi
  1070d9:	e8 22 1d 00 00       	callq  108e00 <_ZN4core3fmt9Formatter9alternate17h0c0280c0abf3b3a0E>
  1070de:	24 01                	and    $0x1,%al
  1070e0:	0f b6 c0             	movzbl %al,%eax
  1070e3:	59                   	pop    %rcx
  1070e4:	c3                   	retq   
  1070e5:	cc                   	int3   
  1070e6:	cc                   	int3   
  1070e7:	cc                   	int3   
  1070e8:	cc                   	int3   
  1070e9:	cc                   	int3   
  1070ea:	cc                   	int3   
  1070eb:	cc                   	int3   
  1070ec:	cc                   	int3   
  1070ed:	cc                   	int3   
  1070ee:	cc                   	int3   
  1070ef:	cc                   	int3   

00000000001070f0 <_ZN4core3fmt5Write10write_char17h191d49dcbcf87692E>:
  1070f0:	48 83 ec 28          	sub    $0x28,%rsp
  1070f4:	89 74 24 04          	mov    %esi,0x4(%rsp)
  1070f8:	48 89 7c 24 08       	mov    %rdi,0x8(%rsp)
  1070fd:	48 89 7c 24 18       	mov    %rdi,0x18(%rsp)
  107102:	89 74 24 24          	mov    %esi,0x24(%rsp)
  107106:	48 8d 7c 24 14       	lea    0x14(%rsp),%rdi
  10710b:	31 f6                	xor    %esi,%esi
  10710d:	ba 04 00 00 00       	mov    $0x4,%edx
  107112:	e8 89 8c 00 00       	callq  10fda0 <memset>
  107117:	8b 7c 24 04          	mov    0x4(%rsp),%edi
  10711b:	48 8d 74 24 14       	lea    0x14(%rsp),%rsi
  107120:	ba 04 00 00 00       	mov    $0x4,%edx
  107125:	e8 c6 44 00 00       	callq  10b5f0 <_ZN4core4char7methods22_$LT$impl$u20$char$GT$11encode_utf817h32ff831ead279733E>
  10712a:	48 8b 7c 24 08       	mov    0x8(%rsp),%rdi
  10712f:	48 89 c6             	mov    %rax,%rsi
  107132:	e8 79 f9 ff ff       	callq  106ab0 <_ZN68_$LT$core..fmt..builders..PadAdapter$u20$as$u20$core..fmt..Write$GT$9write_str17hf07ac399485b0190E>
  107137:	24 01                	and    $0x1,%al
  107139:	0f b6 c0             	movzbl %al,%eax
  10713c:	48 83 c4 28          	add    $0x28,%rsp
  107140:	c3                   	retq   
  107141:	cc                   	int3   
  107142:	cc                   	int3   
  107143:	cc                   	int3   
  107144:	cc                   	int3   
  107145:	cc                   	int3   
  107146:	cc                   	int3   
  107147:	cc                   	int3   
  107148:	cc                   	int3   
  107149:	cc                   	int3   
  10714a:	cc                   	int3   
  10714b:	cc                   	int3   
  10714c:	cc                   	int3   
  10714d:	cc                   	int3   
  10714e:	cc                   	int3   
  10714f:	cc                   	int3   

0000000000107150 <_ZN4core3fmt5Write9write_fmt17h74d332a52a83900aE>:
  107150:	48 83 ec 38          	sub    $0x38,%rsp
  107154:	48 89 3c 24          	mov    %rdi,(%rsp)
  107158:	48 8d 7c 24 08       	lea    0x8(%rsp),%rdi
  10715d:	ba 30 00 00 00       	mov    $0x30,%edx
  107162:	e8 09 8b 00 00       	callq  10fc70 <memcpy>
  107167:	48 89 e7             	mov    %rsp,%rdi
  10716a:	48 8d 35 7f ab 00 00 	lea    0xab7f(%rip),%rsi        # 111cf0 <_ZN4core3fmt2rt12USIZE_MARKER17h1b31419084dfd5e3E+0x2f8>
  107171:	48 8d 54 24 08       	lea    0x8(%rsp),%rdx
  107176:	e8 c5 04 00 00       	callq  107640 <_ZN4core3fmt5write17h41b244ea6823b52eE>
  10717b:	24 01                	and    $0x1,%al
  10717d:	0f b6 c0             	movzbl %al,%eax
  107180:	48 83 c4 38          	add    $0x38,%rsp
  107184:	c3                   	retq   
  107185:	cc                   	int3   
  107186:	cc                   	int3   
  107187:	cc                   	int3   
  107188:	cc                   	int3   
  107189:	cc                   	int3   
  10718a:	cc                   	int3   
  10718b:	cc                   	int3   
  10718c:	cc                   	int3   
  10718d:	cc                   	int3   
  10718e:	cc                   	int3   
  10718f:	cc                   	int3   

0000000000107190 <_ZN50_$LT$$RF$mut$u20$W$u20$as$u20$core..fmt..Write$GT$9write_str17h954899d1e7261eb7E>:
  107190:	48 83 ec 18          	sub    $0x18,%rsp
  107194:	48 89 3c 24          	mov    %rdi,(%rsp)
  107198:	48 89 74 24 08       	mov    %rsi,0x8(%rsp)
  10719d:	48 89 54 24 10       	mov    %rdx,0x10(%rsp)
  1071a2:	48 8b 3f             	mov    (%rdi),%rdi
  1071a5:	e8 06 f9 ff ff       	callq  106ab0 <_ZN68_$LT$core..fmt..builders..PadAdapter$u20$as$u20$core..fmt..Write$GT$9write_str17hf07ac399485b0190E>
  1071aa:	24 01                	and    $0x1,%al
  1071ac:	0f b6 c0             	movzbl %al,%eax
  1071af:	48 83 c4 18          	add    $0x18,%rsp
  1071b3:	c3                   	retq   
  1071b4:	cc                   	int3   
  1071b5:	cc                   	int3   
  1071b6:	cc                   	int3   
  1071b7:	cc                   	int3   
  1071b8:	cc                   	int3   
  1071b9:	cc                   	int3   
  1071ba:	cc                   	int3   
  1071bb:	cc                   	int3   
  1071bc:	cc                   	int3   
  1071bd:	cc                   	int3   
  1071be:	cc                   	int3   
  1071bf:	cc                   	int3   

00000000001071c0 <_ZN50_$LT$$RF$mut$u20$W$u20$as$u20$core..fmt..Write$GT$10write_char17h1782c3b2c5637146E>:
  1071c0:	48 83 ec 18          	sub    $0x18,%rsp
  1071c4:	48 89 7c 24 08       	mov    %rdi,0x8(%rsp)
  1071c9:	89 74 24 14          	mov    %esi,0x14(%rsp)
  1071cd:	48 8b 3f             	mov    (%rdi),%rdi
  1071d0:	e8 1b ff ff ff       	callq  1070f0 <_ZN4core3fmt5Write10write_char17h191d49dcbcf87692E>
  1071d5:	24 01                	and    $0x1,%al
  1071d7:	0f b6 c0             	movzbl %al,%eax
  1071da:	48 83 c4 18          	add    $0x18,%rsp
  1071de:	c3                   	retq   
  1071df:	cc                   	int3   

00000000001071e0 <_ZN50_$LT$$RF$mut$u20$W$u20$as$u20$core..fmt..Write$GT$9write_fmt17hdd1be6dbd2f93f96E>:
  1071e0:	48 83 ec 48          	sub    $0x48,%rsp
  1071e4:	48 89 7c 24 10       	mov    %rdi,0x10(%rsp)
  1071e9:	48 8b 07             	mov    (%rdi),%rax
  1071ec:	48 89 44 24 08       	mov    %rax,0x8(%rsp)
  1071f1:	48 8d 7c 24 18       	lea    0x18(%rsp),%rdi
  1071f6:	ba 30 00 00 00       	mov    $0x30,%edx
  1071fb:	e8 70 8a 00 00       	callq  10fc70 <memcpy>
  107200:	48 8b 7c 24 08       	mov    0x8(%rsp),%rdi
  107205:	48 8d 74 24 18       	lea    0x18(%rsp),%rsi
  10720a:	e8 41 ff ff ff       	callq  107150 <_ZN4core3fmt5Write9write_fmt17h74d332a52a83900aE>
  10720f:	24 01                	and    $0x1,%al
  107211:	0f b6 c0             	movzbl %al,%eax
  107214:	48 83 c4 48          	add    $0x48,%rsp
  107218:	c3                   	retq   
  107219:	cc                   	int3   
  10721a:	cc                   	int3   
  10721b:	cc                   	int3   
  10721c:	cc                   	int3   
  10721d:	cc                   	int3   
  10721e:	cc                   	int3   
  10721f:	cc                   	int3   

0000000000107220 <_ZN4core3any6TypeId2of17hba2a513332a57334E>:
  107220:	48 83 ec 30          	sub    $0x30,%rsp
  107224:	48 b8 9e e0 04 f0 4b 	movabs $0x3d14a4bf004e09e,%rax
  10722b:	4a d1 03 
  10722e:	48 89 44 24 18       	mov    %rax,0x18(%rsp)
  107233:	48 b8 ca 7f 71 d8 1e 	movabs $0x30a9911ed8717fca,%rax
  10723a:	91 a9 30 
  10723d:	48 89 44 24 10       	mov    %rax,0x10(%rsp)
  107242:	48 8b 44 24 10       	mov    0x10(%rsp),%rax
  107247:	48 8b 4c 24 18       	mov    0x18(%rsp),%rcx
  10724c:	48 89 4c 24 28       	mov    %rcx,0x28(%rsp)
  107251:	48 89 44 24 20       	mov    %rax,0x20(%rsp)
  107256:	48 89 4c 24 08       	mov    %rcx,0x8(%rsp)
  10725b:	48 89 04 24          	mov    %rax,(%rsp)
  10725f:	48 8b 04 24          	mov    (%rsp),%rax
  107263:	48 8b 54 24 08       	mov    0x8(%rsp),%rdx
  107268:	48 83 c4 30          	add    $0x30,%rsp
  10726c:	c3                   	retq   
  10726d:	cc                   	int3   
  10726e:	cc                   	int3   
  10726f:	cc                   	int3   

0000000000107270 <_ZN4core4char7convert8from_u3217h87d3dec09bc845a4E>:
  107270:	48 83 ec 18          	sub    $0x18,%rsp
  107274:	89 7c 24 10          	mov    %edi,0x10(%rsp)
  107278:	e8 83 00 00 00       	callq  107300 <_ZN4core4char7convert17char_try_from_u3217h54b522d575a8c8d7E>
  10727d:	89 44 24 0c          	mov    %eax,0xc(%rsp)
  107281:	31 c0                	xor    %eax,%eax
  107283:	b9 01 00 00 00       	mov    $0x1,%ecx
  107288:	81 7c 24 0c 00 00 11 	cmpl   $0x110000,0xc(%rsp)
  10728f:	00 
  107290:	48 0f 44 c1          	cmove  %rcx,%rax
  107294:	48 83 f8 00          	cmp    $0x0,%rax
  107298:	75 0e                	jne    1072a8 <_ZN4core4char7convert8from_u3217h87d3dec09bc845a4E+0x38>
  10729a:	8b 44 24 0c          	mov    0xc(%rsp),%eax
  10729e:	89 44 24 14          	mov    %eax,0x14(%rsp)
  1072a2:	89 44 24 08          	mov    %eax,0x8(%rsp)
  1072a6:	eb 08                	jmp    1072b0 <_ZN4core4char7convert8from_u3217h87d3dec09bc845a4E+0x40>
  1072a8:	c7 44 24 08 00 00 11 	movl   $0x110000,0x8(%rsp)
  1072af:	00 
  1072b0:	8b 44 24 08          	mov    0x8(%rsp),%eax
  1072b4:	48 83 c4 18          	add    $0x18,%rsp
  1072b8:	c3                   	retq   
  1072b9:	cc                   	int3   
  1072ba:	cc                   	int3   
  1072bb:	cc                   	int3   
  1072bc:	cc                   	int3   
  1072bd:	cc                   	int3   
  1072be:	cc                   	int3   
  1072bf:	cc                   	int3   

00000000001072c0 <_ZN4core4char7convert18from_u32_unchecked17h31b1524c221d2fdaE>:
  1072c0:	48 83 ec 18          	sub    $0x18,%rsp
  1072c4:	89 7c 24 0c          	mov    %edi,0xc(%rsp)
  1072c8:	89 7c 24 14          	mov    %edi,0x14(%rsp)
  1072cc:	b0 01                	mov    $0x1,%al
  1072ce:	a8 01                	test   $0x1,%al
  1072d0:	75 0a                	jne    1072dc <_ZN4core4char7convert18from_u32_unchecked17h31b1524c221d2fdaE+0x1c>
  1072d2:	8b 44 24 0c          	mov    0xc(%rsp),%eax
  1072d6:	89 44 24 10          	mov    %eax,0x10(%rsp)
  1072da:	eb 1b                	jmp    1072f7 <_ZN4core4char7convert18from_u32_unchecked17h31b1524c221d2fdaE+0x37>
  1072dc:	8b 7c 24 0c          	mov    0xc(%rsp),%edi
  1072e0:	e8 eb 42 00 00       	callq  10b5d0 <_ZN4core4char7methods22_$LT$impl$u20$char$GT$8from_u3217h5d5e3f511671d6adE>
  1072e5:	89 c7                	mov    %eax,%edi
  1072e7:	48 8d 35 32 aa 00 00 	lea    0xaa32(%rip),%rsi        # 111d20 <_ZN4core3fmt2rt12USIZE_MARKER17h1b31419084dfd5e3E+0x328>
  1072ee:	e8 5d 28 00 00       	callq  109b50 <_ZN4core6option15Option$LT$T$GT$6unwrap17h52390f095d991adeE>
  1072f3:	89 44 24 10          	mov    %eax,0x10(%rsp)
  1072f7:	8b 44 24 10          	mov    0x10(%rsp),%eax
  1072fb:	48 83 c4 18          	add    $0x18,%rsp
  1072ff:	c3                   	retq   

0000000000107300 <_ZN4core4char7convert17char_try_from_u3217h54b522d575a8c8d7E>:
  107300:	48 83 ec 14          	sub    $0x14,%rsp
  107304:	89 f8                	mov    %edi,%eax
  107306:	89 04 24             	mov    %eax,(%rsp)
  107309:	89 44 24 08          	mov    %eax,0x8(%rsp)
  10730d:	35 00 d8 00 00       	xor    $0xd800,%eax
  107312:	89 44 24 0c          	mov    %eax,0xc(%rsp)
  107316:	c7 44 24 10 00 08 00 	movl   $0x800,0x10(%rsp)
  10731d:	00 
  10731e:	2d 00 08 00 00       	sub    $0x800,%eax
  107323:	3d 00 f8 10 00       	cmp    $0x10f800,%eax
  107328:	73 09                	jae    107333 <_ZN4core4char7convert17char_try_from_u3217h54b522d575a8c8d7E+0x33>
  10732a:	8b 04 24             	mov    (%rsp),%eax
  10732d:	89 44 24 04          	mov    %eax,0x4(%rsp)
  107331:	eb 08                	jmp    10733b <_ZN4core4char7convert17char_try_from_u3217h54b522d575a8c8d7E+0x3b>
  107333:	c7 44 24 04 00 00 11 	movl   $0x110000,0x4(%rsp)
  10733a:	00 
  10733b:	8b 44 24 04          	mov    0x4(%rsp),%eax
  10733f:	48 83 c4 14          	add    $0x14,%rsp
  107343:	c3                   	retq   
  107344:	cc                   	int3   
  107345:	cc                   	int3   
  107346:	cc                   	int3   
  107347:	cc                   	int3   
  107348:	cc                   	int3   
  107349:	cc                   	int3   
  10734a:	cc                   	int3   
  10734b:	cc                   	int3   
  10734c:	cc                   	int3   
  10734d:	cc                   	int3   
  10734e:	cc                   	int3   
  10734f:	cc                   	int3   

0000000000107350 <_ZN4core4iter8adapters6filter19Filter$LT$I$C$P$GT$3new17h02105f72c67b8c9aE>:
  107350:	48 83 ec 28          	sub    $0x28,%rsp
  107354:	48 89 7c 24 10       	mov    %rdi,0x10(%rsp)
  107359:	48 89 74 24 18       	mov    %rsi,0x18(%rsp)
  10735e:	48 89 3c 24          	mov    %rdi,(%rsp)
  107362:	48 89 74 24 08       	mov    %rsi,0x8(%rsp)
  107367:	48 8b 04 24          	mov    (%rsp),%rax
  10736b:	48 8b 54 24 08       	mov    0x8(%rsp),%rdx
  107370:	48 83 c4 28          	add    $0x28,%rsp
  107374:	c3                   	retq   
  107375:	cc                   	int3   
  107376:	cc                   	int3   
  107377:	cc                   	int3   
  107378:	cc                   	int3   
  107379:	cc                   	int3   
  10737a:	cc                   	int3   
  10737b:	cc                   	int3   
  10737c:	cc                   	int3   
  10737d:	cc                   	int3   
  10737e:	cc                   	int3   
  10737f:	cc                   	int3   

0000000000107380 <_ZN108_$LT$core..iter..adapters..filter..Filter$LT$I$C$P$GT$$u20$as$u20$core..iter..traits..iterator..Iterator$GT$5count17h7b802eac0a1883c8E>:
  107380:	48 83 ec 28          	sub    $0x28,%rsp
  107384:	48 89 74 24 10       	mov    %rsi,0x10(%rsp)
  107389:	48 89 7c 24 08       	mov    %rdi,0x8(%rsp)
  10738e:	48 89 7c 24 18       	mov    %rdi,0x18(%rsp)
  107393:	48 89 74 24 20       	mov    %rsi,0x20(%rsp)
  107398:	e8 23 00 00 00       	callq  1073c0 <_ZN108_$LT$core..iter..adapters..filter..Filter$LT$I$C$P$GT$$u20$as$u20$core..iter..traits..iterator..Iterator$GT$5count8to_usize17hcfe184c1bfe7fe30E>
  10739d:	48 8b 7c 24 08       	mov    0x8(%rsp),%rdi
  1073a2:	48 8b 74 24 10       	mov    0x10(%rsp),%rsi
  1073a7:	e8 94 4a 00 00       	callq  10be40 <_ZN4core4iter6traits8iterator8Iterator3map17h6dd0dff5cc138c59E>
  1073ac:	48 89 c7             	mov    %rax,%rdi
  1073af:	48 89 d6             	mov    %rdx,%rsi
  1073b2:	e8 09 f5 ff ff       	callq  1068c0 <_ZN4core4iter6traits8iterator8Iterator3sum17heee7128337e62b03E>
  1073b7:	48 83 c4 28          	add    $0x28,%rsp
  1073bb:	c3                   	retq   
  1073bc:	cc                   	int3   
  1073bd:	cc                   	int3   
  1073be:	cc                   	int3   
  1073bf:	cc                   	int3   

00000000001073c0 <_ZN108_$LT$core..iter..adapters..filter..Filter$LT$I$C$P$GT$$u20$as$u20$core..iter..traits..iterator..Iterator$GT$5count8to_usize17hcfe184c1bfe7fe30E>:
  1073c0:	50                   	push   %rax
  1073c1:	58                   	pop    %rax
  1073c2:	c3                   	retq   
  1073c3:	cc                   	int3   
  1073c4:	cc                   	int3   
  1073c5:	cc                   	int3   
  1073c6:	cc                   	int3   
  1073c7:	cc                   	int3   
  1073c8:	cc                   	int3   
  1073c9:	cc                   	int3   
  1073ca:	cc                   	int3   
  1073cb:	cc                   	int3   
  1073cc:	cc                   	int3   
  1073cd:	cc                   	int3   
  1073ce:	cc                   	int3   
  1073cf:	cc                   	int3   

00000000001073d0 <_ZN108_$LT$core..iter..adapters..filter..Filter$LT$I$C$P$GT$$u20$as$u20$core..iter..traits..iterator..Iterator$GT$5count8to_usize28_$u7b$$u7b$closure$u7d$$u7d$17hcd91f50a7bca1a16E>:
  1073d0:	48 83 ec 18          	sub    $0x18,%rsp
  1073d4:	48 89 34 24          	mov    %rsi,(%rsp)
  1073d8:	48 89 7c 24 10       	mov    %rdi,0x10(%rsp)
  1073dd:	48 89 e0             	mov    %rsp,%rax
  1073e0:	48 89 44 24 08       	mov    %rax,0x8(%rsp)
  1073e5:	48 8b 74 24 08       	mov    0x8(%rsp),%rsi
  1073ea:	e8 f1 38 00 00       	callq  10ace0 <_ZN4core3str5count23char_count_general_case28_$u7b$$u7b$closure$u7d$$u7d$17h148f73192f53e5efE>
  1073ef:	24 01                	and    $0x1,%al
  1073f1:	0f b6 c0             	movzbl %al,%eax
  1073f4:	48 83 c4 18          	add    $0x18,%rsp
  1073f8:	c3                   	retq   
  1073f9:	cc                   	int3   
  1073fa:	cc                   	int3   
  1073fb:	cc                   	int3   
  1073fc:	cc                   	int3   
  1073fd:	cc                   	int3   
  1073fe:	cc                   	int3   
  1073ff:	cc                   	int3   

0000000000107400 <_ZN4core3fmt9Formatter3new17hf8f6c049704741fdE>:
  107400:	48 83 ec 38          	sub    $0x38,%rsp
  107404:	48 89 f8             	mov    %rdi,%rax
  107407:	48 89 74 24 28       	mov    %rsi,0x28(%rsp)
  10740c:	48 89 54 24 30       	mov    %rdx,0x30(%rsp)
  107411:	c6 44 24 07 03       	movb   $0x3,0x7(%rsp)
  107416:	48 c7 44 24 08 00 00 	movq   $0x0,0x8(%rsp)
  10741d:	00 00 
  10741f:	48 c7 44 24 18 00 00 	movq   $0x0,0x18(%rsp)
  107426:	00 00 
  107428:	c7 47 34 00 00 00 00 	movl   $0x0,0x34(%rdi)
  10742f:	c7 47 30 20 00 00 00 	movl   $0x20,0x30(%rdi)
  107436:	8a 4c 24 07          	mov    0x7(%rsp),%cl
  10743a:	88 4f 38             	mov    %cl,0x38(%rdi)
  10743d:	4c 8b 44 24 08       	mov    0x8(%rsp),%r8
  107442:	48 8b 4c 24 10       	mov    0x10(%rsp),%rcx
  107447:	4c 89 07             	mov    %r8,(%rdi)
  10744a:	48 89 4f 08          	mov    %rcx,0x8(%rdi)
  10744e:	4c 8b 44 24 18       	mov    0x18(%rsp),%r8
  107453:	48 8b 4c 24 20       	mov    0x20(%rsp),%rcx
  107458:	4c 89 47 10          	mov    %r8,0x10(%rdi)
  10745c:	48 89 4f 18          	mov    %rcx,0x18(%rdi)
  107460:	48 89 77 20          	mov    %rsi,0x20(%rdi)
  107464:	48 89 57 28          	mov    %rdx,0x28(%rdi)
  107468:	48 83 c4 38          	add    $0x38,%rsp
  10746c:	c3                   	retq   
  10746d:	cc                   	int3   
  10746e:	cc                   	int3   
  10746f:	cc                   	int3   

0000000000107470 <_ZN4core3fmt9Arguments9new_const17hd728abf84ff8d077E>:
  107470:	48 83 ec 78          	sub    $0x78,%rsp
  107474:	48 89 54 24 08       	mov    %rdx,0x8(%rsp)
  107479:	48 89 74 24 10       	mov    %rsi,0x10(%rsp)
  10747e:	48 89 7c 24 18       	mov    %rdi,0x18(%rsp)
  107483:	48 89 7c 24 20       	mov    %rdi,0x20(%rsp)
  107488:	48 89 74 24 68       	mov    %rsi,0x68(%rsp)
  10748d:	48 89 54 24 70       	mov    %rdx,0x70(%rsp)
  107492:	48 83 fa 01          	cmp    $0x1,%rdx
  107496:	77 4e                	ja     1074e6 <_ZN4core3fmt9Arguments9new_const17hd728abf84ff8d077E+0x76>
  107498:	48 8b 44 24 20       	mov    0x20(%rsp),%rax
  10749d:	48 8b 4c 24 18       	mov    0x18(%rsp),%rcx
  1074a2:	48 8b 54 24 08       	mov    0x8(%rsp),%rdx
  1074a7:	48 8b 74 24 10       	mov    0x10(%rsp),%rsi
  1074ac:	48 c7 44 24 58 00 00 	movq   $0x0,0x58(%rsp)
  1074b3:	00 00 
  1074b5:	48 89 31             	mov    %rsi,(%rcx)
  1074b8:	48 89 51 08          	mov    %rdx,0x8(%rcx)
  1074bc:	48 8b 74 24 58       	mov    0x58(%rsp),%rsi
  1074c1:	48 8b 54 24 60       	mov    0x60(%rsp),%rdx
  1074c6:	48 89 71 20          	mov    %rsi,0x20(%rcx)
  1074ca:	48 89 51 28          	mov    %rdx,0x28(%rcx)
  1074ce:	48 8d 15 8b 98 ff ff 	lea    -0x6775(%rip),%rdx        # 100d60 <str.0+0xb0>
  1074d5:	48 89 51 10          	mov    %rdx,0x10(%rcx)
  1074d9:	48 c7 41 18 00 00 00 	movq   $0x0,0x18(%rcx)
  1074e0:	00 
  1074e1:	48 83 c4 78          	add    $0x78,%rsp
  1074e5:	c3                   	retq   
  1074e6:	48 8d 35 4b a8 00 00 	lea    0xa84b(%rip),%rsi        # 111d38 <_ZN4core3fmt2rt12USIZE_MARKER17h1b31419084dfd5e3E+0x340>
  1074ed:	48 8d 7c 24 28       	lea    0x28(%rsp),%rdi
  1074f2:	48 89 3c 24          	mov    %rdi,(%rsp)
  1074f6:	ba 01 00 00 00       	mov    $0x1,%edx
  1074fb:	e8 70 ff ff ff       	callq  107470 <_ZN4core3fmt9Arguments9new_const17hd728abf84ff8d077E>
  107500:	48 8b 3c 24          	mov    (%rsp),%rdi
  107504:	48 8d 35 3d a8 00 00 	lea    0xa83d(%rip),%rsi        # 111d48 <_ZN4core3fmt2rt12USIZE_MARKER17h1b31419084dfd5e3E+0x350>
  10750b:	e8 70 de ff ff       	callq  105380 <_ZN4core9panicking9panic_fmt17hec0a0bac075b5c3fE>
  107510:	0f 0b                	ud2    
  107512:	cc                   	int3   
  107513:	cc                   	int3   
  107514:	cc                   	int3   
  107515:	cc                   	int3   
  107516:	cc                   	int3   
  107517:	cc                   	int3   
  107518:	cc                   	int3   
  107519:	cc                   	int3   
  10751a:	cc                   	int3   
  10751b:	cc                   	int3   
  10751c:	cc                   	int3   
  10751d:	cc                   	int3   
  10751e:	cc                   	int3   
  10751f:	cc                   	int3   

0000000000107520 <_ZN4core3fmt9Arguments6new_v117hf5fe601b2a956546E>:
  107520:	48 81 ec a8 00 00 00 	sub    $0xa8,%rsp
  107527:	4c 89 44 24 10       	mov    %r8,0x10(%rsp)
  10752c:	48 89 4c 24 18       	mov    %rcx,0x18(%rsp)
  107531:	48 89 54 24 20       	mov    %rdx,0x20(%rsp)
  107536:	48 89 74 24 28       	mov    %rsi,0x28(%rsp)
  10753b:	48 89 7c 24 30       	mov    %rdi,0x30(%rsp)
  107540:	48 89 7c 24 38       	mov    %rdi,0x38(%rsp)
  107545:	48 89 b4 24 88 00 00 	mov    %rsi,0x88(%rsp)
  10754c:	00 
  10754d:	48 89 94 24 90 00 00 	mov    %rdx,0x90(%rsp)
  107554:	00 
  107555:	48 89 8c 24 98 00 00 	mov    %rcx,0x98(%rsp)
  10755c:	00 
  10755d:	4c 89 84 24 a0 00 00 	mov    %r8,0xa0(%rsp)
  107564:	00 
  107565:	4c 39 c2             	cmp    %r8,%rdx
  107568:	72 17                	jb     107581 <_ZN4core3fmt9Arguments6new_v117hf5fe601b2a956546E+0x61>
  10756a:	48 8b 44 24 10       	mov    0x10(%rsp),%rax
  10756f:	48 83 c0 01          	add    $0x1,%rax
  107573:	48 89 44 24 08       	mov    %rax,0x8(%rsp)
  107578:	0f 92 c0             	setb   %al
  10757b:	a8 01                	test   $0x1,%al
  10757d:	75 21                	jne    1075a0 <_ZN4core3fmt9Arguments6new_v117hf5fe601b2a956546E+0x80>
  10757f:	eb 07                	jmp    107588 <_ZN4core3fmt9Arguments6new_v117hf5fe601b2a956546E+0x68>
  107581:	c6 44 24 47 01       	movb   $0x1,0x47(%rsp)
  107586:	eb 32                	jmp    1075ba <_ZN4core3fmt9Arguments6new_v117hf5fe601b2a956546E+0x9a>
  107588:	48 8b 44 24 20       	mov    0x20(%rsp),%rax
  10758d:	48 8b 4c 24 08       	mov    0x8(%rsp),%rcx
  107592:	48 39 c8             	cmp    %rcx,%rax
  107595:	0f 97 c0             	seta   %al
  107598:	24 01                	and    $0x1,%al
  10759a:	88 44 24 47          	mov    %al,0x47(%rsp)
  10759e:	eb 1a                	jmp    1075ba <_ZN4core3fmt9Arguments6new_v117hf5fe601b2a956546E+0x9a>
  1075a0:	48 8d 3d 39 98 ff ff 	lea    -0x67c7(%rip),%rdi        # 100de0 <str.1>
  1075a7:	48 8d 15 b2 a7 00 00 	lea    0xa7b2(%rip),%rdx        # 111d60 <_ZN4core3fmt2rt12USIZE_MARKER17h1b31419084dfd5e3E+0x368>
  1075ae:	be 1c 00 00 00       	mov    $0x1c,%esi
  1075b3:	e8 78 de ff ff       	callq  105430 <_ZN4core9panicking5panic17h4e18ef80ec7677b0E>
  1075b8:	0f 0b                	ud2    
  1075ba:	f6 44 24 47 01       	testb  $0x1,0x47(%rsp)
  1075bf:	75 53                	jne    107614 <_ZN4core3fmt9Arguments6new_v117hf5fe601b2a956546E+0xf4>
  1075c1:	48 8b 44 24 38       	mov    0x38(%rsp),%rax
  1075c6:	48 8b 4c 24 30       	mov    0x30(%rsp),%rcx
  1075cb:	48 8b 54 24 10       	mov    0x10(%rsp),%rdx
  1075d0:	48 8b 74 24 18       	mov    0x18(%rsp),%rsi
  1075d5:	48 8b 7c 24 20       	mov    0x20(%rsp),%rdi
  1075da:	4c 8b 44 24 28       	mov    0x28(%rsp),%r8
  1075df:	48 c7 44 24 78 00 00 	movq   $0x0,0x78(%rsp)
  1075e6:	00 00 
  1075e8:	4c 89 01             	mov    %r8,(%rcx)
  1075eb:	48 89 79 08          	mov    %rdi,0x8(%rcx)
  1075ef:	4c 8b 44 24 78       	mov    0x78(%rsp),%r8
  1075f4:	48 8b bc 24 80 00 00 	mov    0x80(%rsp),%rdi
  1075fb:	00 
  1075fc:	4c 89 41 20          	mov    %r8,0x20(%rcx)
  107600:	48 89 79 28          	mov    %rdi,0x28(%rcx)
  107604:	48 89 71 10          	mov    %rsi,0x10(%rcx)
  107608:	48 89 51 18          	mov    %rdx,0x18(%rcx)
  10760c:	48 81 c4 a8 00 00 00 	add    $0xa8,%rsp
  107613:	c3                   	retq   
  107614:	48 8d 35 1d a7 00 00 	lea    0xa71d(%rip),%rsi        # 111d38 <_ZN4core3fmt2rt12USIZE_MARKER17h1b31419084dfd5e3E+0x340>
  10761b:	48 8d 7c 24 48       	lea    0x48(%rsp),%rdi
  107620:	48 89 3c 24          	mov    %rdi,(%rsp)
  107624:	ba 01 00 00 00       	mov    $0x1,%edx
  107629:	e8 42 fe ff ff       	callq  107470 <_ZN4core3fmt9Arguments9new_const17hd728abf84ff8d077E>
  10762e:	48 8b 3c 24          	mov    (%rsp),%rdi
  107632:	48 8d 35 3f a7 00 00 	lea    0xa73f(%rip),%rsi        # 111d78 <_ZN4core3fmt2rt12USIZE_MARKER17h1b31419084dfd5e3E+0x380>
  107639:	e8 42 dd ff ff       	callq  105380 <_ZN4core9panicking9panic_fmt17hec0a0bac075b5c3fE>
  10763e:	0f 0b                	ud2    

0000000000107640 <_ZN4core3fmt5write17h41b244ea6823b52eE>:
  107640:	48 81 ec 08 02 00 00 	sub    $0x208,%rsp
  107647:	48 89 54 24 30       	mov    %rdx,0x30(%rsp)
  10764c:	48 89 f2             	mov    %rsi,%rdx
  10764f:	48 89 fe             	mov    %rdi,%rsi
  107652:	48 89 b4 24 a0 01 00 	mov    %rsi,0x1a0(%rsp)
  107659:	00 
  10765a:	48 89 94 24 a8 01 00 	mov    %rdx,0x1a8(%rsp)
  107661:	00 
  107662:	48 8d bc 24 88 00 00 	lea    0x88(%rsp),%rdi
  107669:	00 
  10766a:	e8 91 fd ff ff       	callq  107400 <_ZN4core3fmt9Formatter3new17hf8f6c049704741fdE>
  10766f:	48 8b 54 24 30       	mov    0x30(%rsp),%rdx
  107674:	48 c7 84 24 c8 00 00 	movq   $0x0,0xc8(%rsp)
  10767b:	00 00 00 00 00 
  107680:	48 8b 52 20          	mov    0x20(%rdx),%rdx
  107684:	b8 01 00 00 00       	mov    $0x1,%eax
  107689:	31 c9                	xor    %ecx,%ecx
  10768b:	48 83 fa 00          	cmp    $0x0,%rdx
  10768f:	48 0f 44 c1          	cmove  %rcx,%rax
  107693:	48 83 f8 00          	cmp    $0x0,%rax
  107697:	75 69                	jne    107702 <_ZN4core3fmt5write17h41b244ea6823b52eE+0xc2>
  107699:	48 8b 44 24 30       	mov    0x30(%rsp),%rax
  10769e:	48 8b 78 10          	mov    0x10(%rax),%rdi
  1076a2:	48 8b 70 18          	mov    0x18(%rax),%rsi
  1076a6:	e8 f5 d7 ff ff       	callq  104ea0 <_ZN4core5slice29_$LT$impl$u20$$u5b$T$u5d$$GT$4iter17hf37512904ff6c44bE>
  1076ab:	48 89 c6             	mov    %rax,%rsi
  1076ae:	48 8d bc 24 e8 00 00 	lea    0xe8(%rsp),%rdi
  1076b5:	00 
  1076b6:	e8 f5 47 00 00       	callq  10beb0 <_ZN4core4iter6traits8iterator8Iterator9enumerate17hfd88f1c176417c66E>
  1076bb:	48 8d bc 24 d0 00 00 	lea    0xd0(%rsp),%rdi
  1076c2:	00 
  1076c3:	48 8d b4 24 e8 00 00 	lea    0xe8(%rsp),%rsi
  1076ca:	00 
  1076cb:	e8 50 2c 00 00       	callq  10a320 <_ZN63_$LT$I$u20$as$u20$core..iter..traits..collect..IntoIterator$GT$9into_iter17h97c0325e880dd226E>
  1076d0:	48 8b 84 24 d0 00 00 	mov    0xd0(%rsp),%rax
  1076d7:	00 
  1076d8:	48 89 84 24 00 01 00 	mov    %rax,0x100(%rsp)
  1076df:	00 
  1076e0:	48 8b 84 24 d8 00 00 	mov    0xd8(%rsp),%rax
  1076e7:	00 
  1076e8:	48 89 84 24 08 01 00 	mov    %rax,0x108(%rsp)
  1076ef:	00 
  1076f0:	48 8b 84 24 e0 00 00 	mov    0xe0(%rsp),%rax
  1076f7:	00 
  1076f8:	48 89 84 24 10 01 00 	mov    %rax,0x110(%rsp)
  1076ff:	00 
  107700:	eb 7c                	jmp    10777e <_ZN4core3fmt5write17h41b244ea6823b52eE+0x13e>
  107702:	48 8b 44 24 30       	mov    0x30(%rsp),%rax
  107707:	48 8b 78 20          	mov    0x20(%rax),%rdi
  10770b:	48 8b 70 28          	mov    0x28(%rax),%rsi
  10770f:	48 89 bc 24 c8 01 00 	mov    %rdi,0x1c8(%rsp)
  107716:	00 
  107717:	48 89 b4 24 d0 01 00 	mov    %rsi,0x1d0(%rsp)
  10771e:	00 
  10771f:	e8 5c d7 ff ff       	callq  104e80 <_ZN4core5slice29_$LT$impl$u20$$u5b$T$u5d$$GT$4iter17hc88e89af2f6b984fE>
  107724:	48 89 c6             	mov    %rax,%rsi
  107727:	48 8d bc 24 48 01 00 	lea    0x148(%rsp),%rdi
  10772e:	00 
  10772f:	e8 4c 47 00 00       	callq  10be80 <_ZN4core4iter6traits8iterator8Iterator9enumerate17h2ca48fce05fba6a7E>
  107734:	48 8d bc 24 30 01 00 	lea    0x130(%rsp),%rdi
  10773b:	00 
  10773c:	48 8d b4 24 48 01 00 	lea    0x148(%rsp),%rsi
  107743:	00 
  107744:	e8 b7 2b 00 00       	callq  10a300 <_ZN63_$LT$I$u20$as$u20$core..iter..traits..collect..IntoIterator$GT$9into_iter17h1226e94fa3936e6eE>
  107749:	48 8b 84 24 30 01 00 	mov    0x130(%rsp),%rax
  107750:	00 
  107751:	48 89 84 24 60 01 00 	mov    %rax,0x160(%rsp)
  107758:	00 
  107759:	48 8b 84 24 38 01 00 	mov    0x138(%rsp),%rax
  107760:	00 
  107761:	48 89 84 24 68 01 00 	mov    %rax,0x168(%rsp)
  107768:	00 
  107769:	48 8b 84 24 40 01 00 	mov    0x140(%rsp),%rax
  107770:	00 
  107771:	48 89 84 24 70 01 00 	mov    %rax,0x170(%rsp)
  107778:	00 
  107779:	e9 fd 01 00 00       	jmpq   10797b <_ZN4core3fmt5write17h41b244ea6823b52eE+0x33b>
  10777e:	48 8d bc 24 00 01 00 	lea    0x100(%rsp),%rdi
  107785:	00 
  107786:	e8 95 29 00 00       	callq  10a120 <_ZN110_$LT$core..iter..adapters..enumerate..Enumerate$LT$I$GT$$u20$as$u20$core..iter..traits..iterator..Iterator$GT$4next17h2c189fe417d2f8feE>
  10778b:	48 89 94 24 20 01 00 	mov    %rdx,0x120(%rsp)
  107792:	00 
  107793:	48 89 84 24 18 01 00 	mov    %rax,0x118(%rsp)
  10779a:	00 
  10779b:	48 8b 94 24 20 01 00 	mov    0x120(%rsp),%rdx
  1077a2:	00 
  1077a3:	b8 01 00 00 00       	mov    $0x1,%eax
  1077a8:	31 c9                	xor    %ecx,%ecx
  1077aa:	48 83 fa 00          	cmp    $0x0,%rdx
  1077ae:	48 0f 44 c1          	cmove  %rcx,%rax
  1077b2:	48 83 f8 00          	cmp    $0x0,%rax
  1077b6:	75 47                	jne    1077ff <_ZN4core3fmt5write17h41b244ea6823b52eE+0x1bf>
  1077b8:	48 8b 44 24 30       	mov    0x30(%rsp),%rax
  1077bd:	48 8b 38             	mov    (%rax),%rdi
  1077c0:	48 8b 70 08          	mov    0x8(%rax),%rsi
  1077c4:	48 8b 94 24 c8 00 00 	mov    0xc8(%rsp),%rdx
  1077cb:	00 
  1077cc:	e8 6f 70 00 00       	callq  10e840 <_ZN4core5slice29_$LT$impl$u20$$u5b$T$u5d$$GT$3get17h3bdb5ec72e6c792aE>
  1077d1:	48 89 84 24 90 01 00 	mov    %rax,0x190(%rsp)
  1077d8:	00 
  1077d9:	48 8b 94 24 90 01 00 	mov    0x190(%rsp),%rdx
  1077e0:	00 
  1077e1:	b8 01 00 00 00       	mov    $0x1,%eax
  1077e6:	31 c9                	xor    %ecx,%ecx
  1077e8:	48 83 fa 00          	cmp    $0x0,%rdx
  1077ec:	48 0f 44 c1          	cmove  %rcx,%rax
  1077f0:	48 83 f8 01          	cmp    $0x1,%rax
  1077f4:	0f 84 1a 02 00 00    	je     107a14 <_ZN4core3fmt5write17h41b244ea6823b52eE+0x3d4>
  1077fa:	e9 65 02 00 00       	jmpq   107a64 <_ZN4core3fmt5write17h41b244ea6823b52eE+0x424>
  1077ff:	48 8b 44 24 30       	mov    0x30(%rsp),%rax
  107804:	48 8b 94 24 18 01 00 	mov    0x118(%rsp),%rdx
  10780b:	00 
  10780c:	48 89 94 24 b0 01 00 	mov    %rdx,0x1b0(%rsp)
  107813:	00 
  107814:	48 8b 8c 24 20 01 00 	mov    0x120(%rsp),%rcx
  10781b:	00 
  10781c:	48 89 4c 24 20       	mov    %rcx,0x20(%rsp)
  107821:	48 89 8c 24 b8 01 00 	mov    %rcx,0x1b8(%rsp)
  107828:	00 
  107829:	48 8b 38             	mov    (%rax),%rdi
  10782c:	48 8b 70 08          	mov    0x8(%rax),%rsi
  107830:	e8 3b 70 00 00       	callq  10e870 <_ZN4core5slice29_$LT$impl$u20$$u5b$T$u5d$$GT$13get_unchecked17h1f95ad7ac16543d5E>
  107835:	48 89 44 24 28       	mov    %rax,0x28(%rsp)
  10783a:	48 89 84 24 c0 01 00 	mov    %rax,0x1c0(%rsp)
  107841:	00 
  107842:	48 8b 38             	mov    (%rax),%rdi
  107845:	48 8b 70 08          	mov    0x8(%rax),%rsi
  107849:	e8 12 6c 00 00       	callq  10e460 <_ZN4core3str21_$LT$impl$u20$str$GT$8is_empty17ha1e4ec5f24d7978aE>
  10784e:	34 ff                	xor    $0xff,%al
  107850:	a8 01                	test   $0x1,%al
  107852:	75 56                	jne    1078aa <_ZN4core3fmt5write17h41b244ea6823b52eE+0x26a>
  107854:	48 8b 4c 24 20       	mov    0x20(%rsp),%rcx
  107859:	48 89 8c 24 f8 01 00 	mov    %rcx,0x1f8(%rsp)
  107860:	00 
  107861:	48 8d 84 24 88 00 00 	lea    0x88(%rsp),%rax
  107868:	00 
  107869:	48 89 84 24 00 02 00 	mov    %rax,0x200(%rsp)
  107870:	00 
  107871:	48 8b 41 08          	mov    0x8(%rcx),%rax
  107875:	48 8b 39             	mov    (%rcx),%rdi
  107878:	48 8d b4 24 88 00 00 	lea    0x88(%rsp),%rsi
  10787f:	00 
  107880:	ff d0                	callq  *%rax
  107882:	0f b6 f8             	movzbl %al,%edi
  107885:	83 e7 01             	and    $0x1,%edi
  107888:	e8 33 44 00 00       	callq  10bcc0 <_ZN79_$LT$core..result..Result$LT$T$C$E$GT$$u20$as$u20$core..ops..try_trait..Try$GT$6branch17h2454c12ae4d7f827E>
  10788d:	24 01                	and    $0x1,%al
  10788f:	88 84 24 2f 01 00 00 	mov    %al,0x12f(%rsp)
  107896:	8a 84 24 2f 01 00 00 	mov    0x12f(%rsp),%al
  10789d:	24 01                	and    $0x1,%al
  10789f:	0f b6 c0             	movzbl %al,%eax
  1078a2:	48 83 f8 00          	cmp    $0x0,%rax
  1078a6:	74 62                	je     10790a <_ZN4core3fmt5write17h41b244ea6823b52eE+0x2ca>
  1078a8:	eb 7a                	jmp    107924 <_ZN4core3fmt5write17h41b244ea6823b52eE+0x2e4>
  1078aa:	48 8b 4c 24 28       	mov    0x28(%rsp),%rcx
  1078af:	48 8b bc 24 a8 00 00 	mov    0xa8(%rsp),%rdi
  1078b6:	00 
  1078b7:	48 8b 84 24 b0 00 00 	mov    0xb0(%rsp),%rax
  1078be:	00 
  1078bf:	48 8b 31             	mov    (%rcx),%rsi
  1078c2:	48 8b 51 08          	mov    0x8(%rcx),%rdx
  1078c6:	ff 50 18             	callq  *0x18(%rax)
  1078c9:	0f b6 f8             	movzbl %al,%edi
  1078cc:	83 e7 01             	and    $0x1,%edi
  1078cf:	e8 ec 43 00 00       	callq  10bcc0 <_ZN79_$LT$core..result..Result$LT$T$C$E$GT$$u20$as$u20$core..ops..try_trait..Try$GT$6branch17h2454c12ae4d7f827E>
  1078d4:	24 01                	and    $0x1,%al
  1078d6:	88 84 24 2e 01 00 00 	mov    %al,0x12e(%rsp)
  1078dd:	8a 84 24 2e 01 00 00 	mov    0x12e(%rsp),%al
  1078e4:	24 01                	and    $0x1,%al
  1078e6:	0f b6 c0             	movzbl %al,%eax
  1078e9:	48 83 f8 00          	cmp    $0x0,%rax
  1078ed:	0f 84 61 ff ff ff    	je     107854 <_ZN4core3fmt5write17h41b244ea6823b52eE+0x214>
  1078f3:	48 8d 3d c6 a4 00 00 	lea    0xa4c6(%rip),%rdi        # 111dc0 <_ZN4core3fmt2rt12USIZE_MARKER17h1b31419084dfd5e3E+0x3c8>
  1078fa:	e8 21 44 00 00       	callq  10bd20 <_ZN153_$LT$core..result..Result$LT$T$C$F$GT$$u20$as$u20$core..ops..try_trait..FromResidual$LT$core..result..Result$LT$core..convert..Infallible$C$E$GT$$GT$$GT$13from_residual17hdab11aac15fb79f2E>
  1078ff:	24 01                	and    $0x1,%al
  107901:	88 84 24 87 00 00 00 	mov    %al,0x87(%rsp)
  107908:	eb 5d                	jmp    107967 <_ZN4core3fmt5write17h41b244ea6823b52eE+0x327>
  10790a:	48 8b 84 24 c8 00 00 	mov    0xc8(%rsp),%rax
  107911:	00 
  107912:	48 83 c0 01          	add    $0x1,%rax
  107916:	48 89 44 24 18       	mov    %rax,0x18(%rsp)
  10791b:	0f 92 c0             	setb   %al
  10791e:	a8 01                	test   $0x1,%al
  107920:	75 2b                	jne    10794d <_ZN4core3fmt5write17h41b244ea6823b52eE+0x30d>
  107922:	eb 17                	jmp    10793b <_ZN4core3fmt5write17h41b244ea6823b52eE+0x2fb>
  107924:	48 8d 3d 7d a4 00 00 	lea    0xa47d(%rip),%rdi        # 111da8 <_ZN4core3fmt2rt12USIZE_MARKER17h1b31419084dfd5e3E+0x3b0>
  10792b:	e8 f0 43 00 00       	callq  10bd20 <_ZN153_$LT$core..result..Result$LT$T$C$F$GT$$u20$as$u20$core..ops..try_trait..FromResidual$LT$core..result..Result$LT$core..convert..Infallible$C$E$GT$$GT$$GT$13from_residual17hdab11aac15fb79f2E>
  107930:	24 01                	and    $0x1,%al
  107932:	88 84 24 87 00 00 00 	mov    %al,0x87(%rsp)
  107939:	eb 2c                	jmp    107967 <_ZN4core3fmt5write17h41b244ea6823b52eE+0x327>
  10793b:	48 8b 44 24 18       	mov    0x18(%rsp),%rax
  107940:	48 89 84 24 c8 00 00 	mov    %rax,0xc8(%rsp)
  107947:	00 
  107948:	e9 31 fe ff ff       	jmpq   10777e <_ZN4core3fmt5write17h41b244ea6823b52eE+0x13e>
  10794d:	48 8d 3d 8c 94 ff ff 	lea    -0x6b74(%rip),%rdi        # 100de0 <str.1>
  107954:	48 8d 15 35 a4 00 00 	lea    0xa435(%rip),%rdx        # 111d90 <_ZN4core3fmt2rt12USIZE_MARKER17h1b31419084dfd5e3E+0x398>
  10795b:	be 1c 00 00 00       	mov    $0x1c,%esi
  107960:	e8 cb da ff ff       	callq  105430 <_ZN4core9panicking5panic17h4e18ef80ec7677b0E>
  107965:	0f 0b                	ud2    
  107967:	8a 84 24 87 00 00 00 	mov    0x87(%rsp),%al
  10796e:	24 01                	and    $0x1,%al
  107970:	0f b6 c0             	movzbl %al,%eax
  107973:	48 81 c4 08 02 00 00 	add    $0x208,%rsp
  10797a:	c3                   	retq   
  10797b:	48 8d bc 24 60 01 00 	lea    0x160(%rsp),%rdi
  107982:	00 
  107983:	e8 88 28 00 00       	callq  10a210 <_ZN110_$LT$core..iter..adapters..enumerate..Enumerate$LT$I$GT$$u20$as$u20$core..iter..traits..iterator..Iterator$GT$4next17hb858dbb3c3e60f92E>
  107988:	48 89 94 24 80 01 00 	mov    %rdx,0x180(%rsp)
  10798f:	00 
  107990:	48 89 84 24 78 01 00 	mov    %rax,0x178(%rsp)
  107997:	00 
  107998:	48 8b 94 24 80 01 00 	mov    0x180(%rsp),%rdx
  10799f:	00 
  1079a0:	b8 01 00 00 00       	mov    $0x1,%eax
  1079a5:	31 c9                	xor    %ecx,%ecx
  1079a7:	48 83 fa 00          	cmp    $0x0,%rdx
  1079ab:	48 0f 44 c1          	cmove  %rcx,%rax
  1079af:	48 83 f8 00          	cmp    $0x0,%rax
  1079b3:	0f 84 ff fd ff ff    	je     1077b8 <_ZN4core3fmt5write17h41b244ea6823b52eE+0x178>
  1079b9:	48 8b 44 24 30       	mov    0x30(%rsp),%rax
  1079be:	48 8b 94 24 78 01 00 	mov    0x178(%rsp),%rdx
  1079c5:	00 
  1079c6:	48 89 94 24 e0 01 00 	mov    %rdx,0x1e0(%rsp)
  1079cd:	00 
  1079ce:	48 8b 8c 24 80 01 00 	mov    0x180(%rsp),%rcx
  1079d5:	00 
  1079d6:	48 89 4c 24 08       	mov    %rcx,0x8(%rsp)
  1079db:	48 89 8c 24 e8 01 00 	mov    %rcx,0x1e8(%rsp)
  1079e2:	00 
  1079e3:	48 8b 38             	mov    (%rax),%rdi
  1079e6:	48 8b 70 08          	mov    0x8(%rax),%rsi
  1079ea:	e8 81 6e 00 00       	callq  10e870 <_ZN4core5slice29_$LT$impl$u20$$u5b$T$u5d$$GT$13get_unchecked17h1f95ad7ac16543d5E>
  1079ef:	48 89 44 24 10       	mov    %rax,0x10(%rsp)
  1079f4:	48 89 84 24 f0 01 00 	mov    %rax,0x1f0(%rsp)
  1079fb:	00 
  1079fc:	48 8b 38             	mov    (%rax),%rdi
  1079ff:	48 8b 70 08          	mov    0x8(%rax),%rsi
  107a03:	e8 58 6a 00 00       	callq  10e460 <_ZN4core3str21_$LT$impl$u20$str$GT$8is_empty17ha1e4ec5f24d7978aE>
  107a08:	34 ff                	xor    $0xff,%al
  107a0a:	a8 01                	test   $0x1,%al
  107a0c:	0f 85 c0 00 00 00    	jne    107ad2 <_ZN4core3fmt5write17h41b244ea6823b52eE+0x492>
  107a12:	eb 77                	jmp    107a8b <_ZN4core3fmt5write17h41b244ea6823b52eE+0x44b>
  107a14:	48 8b 8c 24 90 01 00 	mov    0x190(%rsp),%rcx
  107a1b:	00 
  107a1c:	48 89 8c 24 d8 01 00 	mov    %rcx,0x1d8(%rsp)
  107a23:	00 
  107a24:	48 8b bc 24 a8 00 00 	mov    0xa8(%rsp),%rdi
  107a2b:	00 
  107a2c:	48 8b 84 24 b0 00 00 	mov    0xb0(%rsp),%rax
  107a33:	00 
  107a34:	48 8b 31             	mov    (%rcx),%rsi
  107a37:	48 8b 51 08          	mov    0x8(%rcx),%rdx
  107a3b:	ff 50 18             	callq  *0x18(%rax)
  107a3e:	0f b6 f8             	movzbl %al,%edi
  107a41:	83 e7 01             	and    $0x1,%edi
  107a44:	e8 77 42 00 00       	callq  10bcc0 <_ZN79_$LT$core..result..Result$LT$T$C$E$GT$$u20$as$u20$core..ops..try_trait..Try$GT$6branch17h2454c12ae4d7f827E>
  107a49:	24 01                	and    $0x1,%al
  107a4b:	88 84 24 9f 01 00 00 	mov    %al,0x19f(%rsp)
  107a52:	8a 84 24 9f 01 00 00 	mov    0x19f(%rsp),%al
  107a59:	24 01                	and    $0x1,%al
  107a5b:	0f b6 c0             	movzbl %al,%eax
  107a5e:	48 83 f8 00          	cmp    $0x0,%rax
  107a62:	75 0d                	jne    107a71 <_ZN4core3fmt5write17h41b244ea6823b52eE+0x431>
  107a64:	c6 84 24 87 00 00 00 	movb   $0x0,0x87(%rsp)
  107a6b:	00 
  107a6c:	e9 f6 fe ff ff       	jmpq   107967 <_ZN4core3fmt5write17h41b244ea6823b52eE+0x327>
  107a71:	48 8d 3d 60 a3 00 00 	lea    0xa360(%rip),%rdi        # 111dd8 <_ZN4core3fmt2rt12USIZE_MARKER17h1b31419084dfd5e3E+0x3e0>
  107a78:	e8 a3 42 00 00       	callq  10bd20 <_ZN153_$LT$core..result..Result$LT$T$C$F$GT$$u20$as$u20$core..ops..try_trait..FromResidual$LT$core..result..Result$LT$core..convert..Infallible$C$E$GT$$GT$$GT$13from_residual17hdab11aac15fb79f2E>
  107a7d:	24 01                	and    $0x1,%al
  107a7f:	88 84 24 87 00 00 00 	mov    %al,0x87(%rsp)
  107a86:	e9 dc fe ff ff       	jmpq   107967 <_ZN4core3fmt5write17h41b244ea6823b52eE+0x327>
  107a8b:	48 8b 74 24 08       	mov    0x8(%rsp),%rsi
  107a90:	48 8b 44 24 30       	mov    0x30(%rsp),%rax
  107a95:	48 8b 50 10          	mov    0x10(%rax),%rdx
  107a99:	48 8b 48 18          	mov    0x18(%rax),%rcx
  107a9d:	48 8d bc 24 88 00 00 	lea    0x88(%rsp),%rdi
  107aa4:	00 
  107aa5:	e8 f6 00 00 00       	callq  107ba0 <_ZN4core3fmt3run17h400b9f745632c13aE>
  107aaa:	0f b6 f8             	movzbl %al,%edi
  107aad:	83 e7 01             	and    $0x1,%edi
  107ab0:	e8 0b 42 00 00       	callq  10bcc0 <_ZN79_$LT$core..result..Result$LT$T$C$E$GT$$u20$as$u20$core..ops..try_trait..Try$GT$6branch17h2454c12ae4d7f827E>
  107ab5:	24 01                	and    $0x1,%al
  107ab7:	88 84 24 8f 01 00 00 	mov    %al,0x18f(%rsp)
  107abe:	8a 84 24 8f 01 00 00 	mov    0x18f(%rsp),%al
  107ac5:	24 01                	and    $0x1,%al
  107ac7:	0f b6 c0             	movzbl %al,%eax
  107aca:	48 83 f8 00          	cmp    $0x0,%rax
  107ace:	74 65                	je     107b35 <_ZN4core3fmt5write17h41b244ea6823b52eE+0x4f5>
  107ad0:	eb 7c                	jmp    107b4e <_ZN4core3fmt5write17h41b244ea6823b52eE+0x50e>
  107ad2:	48 8b 4c 24 10       	mov    0x10(%rsp),%rcx
  107ad7:	48 8b bc 24 a8 00 00 	mov    0xa8(%rsp),%rdi
  107ade:	00 
  107adf:	48 8b 84 24 b0 00 00 	mov    0xb0(%rsp),%rax
  107ae6:	00 
  107ae7:	48 8b 31             	mov    (%rcx),%rsi
  107aea:	48 8b 51 08          	mov    0x8(%rcx),%rdx
  107aee:	ff 50 18             	callq  *0x18(%rax)
  107af1:	0f b6 f8             	movzbl %al,%edi
  107af4:	83 e7 01             	and    $0x1,%edi
  107af7:	e8 c4 41 00 00       	callq  10bcc0 <_ZN79_$LT$core..result..Result$LT$T$C$E$GT$$u20$as$u20$core..ops..try_trait..Try$GT$6branch17h2454c12ae4d7f827E>
  107afc:	24 01                	and    $0x1,%al
  107afe:	88 84 24 8e 01 00 00 	mov    %al,0x18e(%rsp)
  107b05:	8a 84 24 8e 01 00 00 	mov    0x18e(%rsp),%al
  107b0c:	24 01                	and    $0x1,%al
  107b0e:	0f b6 c0             	movzbl %al,%eax
  107b11:	48 83 f8 00          	cmp    $0x0,%rax
  107b15:	0f 84 70 ff ff ff    	je     107a8b <_ZN4core3fmt5write17h41b244ea6823b52eE+0x44b>
  107b1b:	48 8d 3d fe a2 00 00 	lea    0xa2fe(%rip),%rdi        # 111e20 <_ZN4core3fmt2rt12USIZE_MARKER17h1b31419084dfd5e3E+0x428>
  107b22:	e8 f9 41 00 00       	callq  10bd20 <_ZN153_$LT$core..result..Result$LT$T$C$F$GT$$u20$as$u20$core..ops..try_trait..FromResidual$LT$core..result..Result$LT$core..convert..Infallible$C$E$GT$$GT$$GT$13from_residual17hdab11aac15fb79f2E>
  107b27:	24 01                	and    $0x1,%al
  107b29:	88 84 24 87 00 00 00 	mov    %al,0x87(%rsp)
  107b30:	e9 32 fe ff ff       	jmpq   107967 <_ZN4core3fmt5write17h41b244ea6823b52eE+0x327>
  107b35:	48 8b 84 24 c8 00 00 	mov    0xc8(%rsp),%rax
  107b3c:	00 
  107b3d:	48 83 c0 01          	add    $0x1,%rax
  107b41:	48 89 04 24          	mov    %rax,(%rsp)
  107b45:	0f 92 c0             	setb   %al
  107b48:	a8 01                	test   $0x1,%al
  107b4a:	75 2d                	jne    107b79 <_ZN4core3fmt5write17h41b244ea6823b52eE+0x539>
  107b4c:	eb 1a                	jmp    107b68 <_ZN4core3fmt5write17h41b244ea6823b52eE+0x528>
  107b4e:	48 8d 3d b3 a2 00 00 	lea    0xa2b3(%rip),%rdi        # 111e08 <_ZN4core3fmt2rt12USIZE_MARKER17h1b31419084dfd5e3E+0x410>
  107b55:	e8 c6 41 00 00       	callq  10bd20 <_ZN153_$LT$core..result..Result$LT$T$C$F$GT$$u20$as$u20$core..ops..try_trait..FromResidual$LT$core..result..Result$LT$core..convert..Infallible$C$E$GT$$GT$$GT$13from_residual17hdab11aac15fb79f2E>
  107b5a:	24 01                	and    $0x1,%al
  107b5c:	88 84 24 87 00 00 00 	mov    %al,0x87(%rsp)
  107b63:	e9 ff fd ff ff       	jmpq   107967 <_ZN4core3fmt5write17h41b244ea6823b52eE+0x327>
  107b68:	48 8b 04 24          	mov    (%rsp),%rax
  107b6c:	48 89 84 24 c8 00 00 	mov    %rax,0xc8(%rsp)
  107b73:	00 
  107b74:	e9 02 fe ff ff       	jmpq   10797b <_ZN4core3fmt5write17h41b244ea6823b52eE+0x33b>
  107b79:	48 8d 3d 60 92 ff ff 	lea    -0x6da0(%rip),%rdi        # 100de0 <str.1>
  107b80:	48 8d 15 69 a2 00 00 	lea    0xa269(%rip),%rdx        # 111df0 <_ZN4core3fmt2rt12USIZE_MARKER17h1b31419084dfd5e3E+0x3f8>
  107b87:	be 1c 00 00 00       	mov    $0x1c,%esi
  107b8c:	e8 9f d8 ff ff       	callq  105430 <_ZN4core9panicking5panic17h4e18ef80ec7677b0E>
  107b91:	0f 0b                	ud2    
  107b93:	cc                   	int3   
  107b94:	cc                   	int3   
  107b95:	cc                   	int3   
  107b96:	cc                   	int3   
  107b97:	cc                   	int3   
  107b98:	cc                   	int3   
  107b99:	cc                   	int3   
  107b9a:	cc                   	int3   
  107b9b:	cc                   	int3   
  107b9c:	cc                   	int3   
  107b9d:	cc                   	int3   
  107b9e:	cc                   	int3   
  107b9f:	cc                   	int3   

0000000000107ba0 <_ZN4core3fmt3run17h400b9f745632c13aE>:
  107ba0:	48 83 ec 58          	sub    $0x58,%rsp
  107ba4:	48 89 4c 24 08       	mov    %rcx,0x8(%rsp)
  107ba9:	48 89 14 24          	mov    %rdx,(%rsp)
  107bad:	48 89 f2             	mov    %rsi,%rdx
  107bb0:	48 8b 74 24 08       	mov    0x8(%rsp),%rsi
  107bb5:	48 89 54 24 10       	mov    %rdx,0x10(%rsp)
  107bba:	48 89 f8             	mov    %rdi,%rax
  107bbd:	48 8b 3c 24          	mov    (%rsp),%rdi
  107bc1:	48 89 44 24 18       	mov    %rax,0x18(%rsp)
  107bc6:	48 89 44 24 20       	mov    %rax,0x20(%rsp)
  107bcb:	48 89 54 24 28       	mov    %rdx,0x28(%rsp)
  107bd0:	48 89 7c 24 30       	mov    %rdi,0x30(%rsp)
  107bd5:	48 89 74 24 38       	mov    %rsi,0x38(%rsp)
  107bda:	8b 4a 28             	mov    0x28(%rdx),%ecx
  107bdd:	89 48 30             	mov    %ecx,0x30(%rax)
  107be0:	8a 4a 30             	mov    0x30(%rdx),%cl
  107be3:	88 48 38             	mov    %cl,0x38(%rax)
  107be6:	8b 4a 2c             	mov    0x2c(%rdx),%ecx
  107be9:	89 48 34             	mov    %ecx,0x34(%rax)
  107bec:	48 83 c2 10          	add    $0x10,%rdx
  107bf0:	e8 bb 00 00 00       	callq  107cb0 <_ZN4core3fmt8getcount17h80df03d3322563e8E>
  107bf5:	48 8b 3c 24          	mov    (%rsp),%rdi
  107bf9:	48 8b 74 24 08       	mov    0x8(%rsp),%rsi
  107bfe:	49 89 c0             	mov    %rax,%r8
  107c01:	48 8b 44 24 18       	mov    0x18(%rsp),%rax
  107c06:	48 89 d1             	mov    %rdx,%rcx
  107c09:	48 8b 54 24 10       	mov    0x10(%rsp),%rdx
  107c0e:	4c 89 00             	mov    %r8,(%rax)
  107c11:	48 89 48 08          	mov    %rcx,0x8(%rax)
  107c15:	e8 96 00 00 00       	callq  107cb0 <_ZN4core3fmt8getcount17h80df03d3322563e8E>
  107c1a:	48 8b 7c 24 18       	mov    0x18(%rsp),%rdi
  107c1f:	48 89 47 10          	mov    %rax,0x10(%rdi)
  107c23:	48 89 57 18          	mov    %rdx,0x18(%rdi)
  107c27:	b0 01                	mov    $0x1,%al
  107c29:	a8 01                	test   $0x1,%al
  107c2b:	75 41                	jne    107c6e <_ZN4core3fmt3run17h400b9f745632c13aE+0xce>
  107c2d:	48 8b 74 24 08       	mov    0x8(%rsp),%rsi
  107c32:	48 8b 3c 24          	mov    (%rsp),%rdi
  107c36:	48 8b 44 24 10       	mov    0x10(%rsp),%rax
  107c3b:	48 8b 50 20          	mov    0x20(%rax),%rdx
  107c3f:	e8 0c d2 ff ff       	callq  104e50 <_ZN4core5slice29_$LT$impl$u20$$u5b$T$u5d$$GT$13get_unchecked17h56f305ddfc57f8f2E>
  107c44:	48 8b 74 24 18       	mov    0x18(%rsp),%rsi
  107c49:	48 89 c1             	mov    %rax,%rcx
  107c4c:	48 89 4c 24 40       	mov    %rcx,0x40(%rsp)
  107c51:	48 89 4c 24 48       	mov    %rcx,0x48(%rsp)
  107c56:	48 89 74 24 50       	mov    %rsi,0x50(%rsp)
  107c5b:	48 8b 41 08          	mov    0x8(%rcx),%rax
  107c5f:	48 8b 39             	mov    (%rcx),%rdi
  107c62:	ff d0                	callq  *%rax
  107c64:	24 01                	and    $0x1,%al
  107c66:	0f b6 c0             	movzbl %al,%eax
  107c69:	48 83 c4 58          	add    $0x58,%rsp
  107c6d:	c3                   	retq   
  107c6e:	48 8b 44 24 10       	mov    0x10(%rsp),%rax
  107c73:	48 8b 4c 24 08       	mov    0x8(%rsp),%rcx
  107c78:	48 39 48 20          	cmp    %rcx,0x20(%rax)
  107c7c:	0f 92 c0             	setb   %al
  107c7f:	34 ff                	xor    $0xff,%al
  107c81:	a8 01                	test   $0x1,%al
  107c83:	75 02                	jne    107c87 <_ZN4core3fmt3run17h400b9f745632c13aE+0xe7>
  107c85:	eb a6                	jmp    107c2d <_ZN4core3fmt3run17h400b9f745632c13aE+0x8d>
  107c87:	48 8d 3d 6e 91 ff ff 	lea    -0x6e92(%rip),%rdi        # 100dfc <str.1+0x1c>
  107c8e:	48 8d 15 a3 a1 00 00 	lea    0xa1a3(%rip),%rdx        # 111e38 <_ZN4core3fmt2rt12USIZE_MARKER17h1b31419084dfd5e3E+0x440>
  107c95:	be 2b 00 00 00       	mov    $0x2b,%esi
  107c9a:	e8 91 d7 ff ff       	callq  105430 <_ZN4core9panicking5panic17h4e18ef80ec7677b0E>
  107c9f:	0f 0b                	ud2    
  107ca1:	cc                   	int3   
  107ca2:	cc                   	int3   
  107ca3:	cc                   	int3   
  107ca4:	cc                   	int3   
  107ca5:	cc                   	int3   
  107ca6:	cc                   	int3   
  107ca7:	cc                   	int3   
  107ca8:	cc                   	int3   
  107ca9:	cc                   	int3   
  107caa:	cc                   	int3   
  107cab:	cc                   	int3   
  107cac:	cc                   	int3   
  107cad:	cc                   	int3   
  107cae:	cc                   	int3   
  107caf:	cc                   	int3   

0000000000107cb0 <_ZN4core3fmt8getcount17h80df03d3322563e8E>:
  107cb0:	48 81 ec 88 00 00 00 	sub    $0x88,%rsp
  107cb7:	48 89 54 24 18       	mov    %rdx,0x18(%rsp)
  107cbc:	48 89 74 24 20       	mov    %rsi,0x20(%rsp)
  107cc1:	48 89 7c 24 28       	mov    %rdi,0x28(%rsp)
  107cc6:	48 89 7c 24 48       	mov    %rdi,0x48(%rsp)
  107ccb:	48 89 74 24 50       	mov    %rsi,0x50(%rsp)
  107cd0:	48 89 54 24 58       	mov    %rdx,0x58(%rsp)
  107cd5:	48 8b 02             	mov    (%rdx),%rax
  107cd8:	48 89 44 24 30       	mov    %rax,0x30(%rsp)
  107cdd:	48 85 c0             	test   %rax,%rax
  107ce0:	74 13                	je     107cf5 <_ZN4core3fmt8getcount17h80df03d3322563e8E+0x45>
  107ce2:	eb 00                	jmp    107ce4 <_ZN4core3fmt8getcount17h80df03d3322563e8E+0x34>
  107ce4:	48 8b 44 24 30       	mov    0x30(%rsp),%rax
  107ce9:	48 83 e8 01          	sub    $0x1,%rax
  107ced:	74 24                	je     107d13 <_ZN4core3fmt8getcount17h80df03d3322563e8E+0x63>
  107cef:	eb 00                	jmp    107cf1 <_ZN4core3fmt8getcount17h80df03d3322563e8E+0x41>
  107cf1:	eb 3f                	jmp    107d32 <_ZN4core3fmt8getcount17h80df03d3322563e8E+0x82>
  107cf3:	0f 0b                	ud2    
  107cf5:	48 8b 44 24 18       	mov    0x18(%rsp),%rax
  107cfa:	48 8b 40 08          	mov    0x8(%rax),%rax
  107cfe:	48 89 44 24 60       	mov    %rax,0x60(%rsp)
  107d03:	48 89 44 24 40       	mov    %rax,0x40(%rsp)
  107d08:	48 c7 44 24 38 01 00 	movq   $0x1,0x38(%rsp)
  107d0f:	00 00 
  107d11:	eb 28                	jmp    107d3b <_ZN4core3fmt8getcount17h80df03d3322563e8E+0x8b>
  107d13:	48 8b 44 24 18       	mov    0x18(%rsp),%rax
  107d18:	48 8b 40 08          	mov    0x8(%rax),%rax
  107d1c:	48 89 44 24 10       	mov    %rax,0x10(%rsp)
  107d21:	48 89 44 24 68       	mov    %rax,0x68(%rsp)
  107d26:	b0 01                	mov    $0x1,%al
  107d28:	a8 01                	test   $0x1,%al
  107d2a:	0f 85 8b 00 00 00    	jne    107dbb <_ZN4core3fmt8getcount17h80df03d3322563e8E+0x10b>
  107d30:	eb 1b                	jmp    107d4d <_ZN4core3fmt8getcount17h80df03d3322563e8E+0x9d>
  107d32:	48 c7 44 24 38 00 00 	movq   $0x0,0x38(%rsp)
  107d39:	00 00 
  107d3b:	48 8b 44 24 38       	mov    0x38(%rsp),%rax
  107d40:	48 8b 54 24 40       	mov    0x40(%rsp),%rdx
  107d45:	48 81 c4 88 00 00 00 	add    $0x88,%rsp
  107d4c:	c3                   	retq   
  107d4d:	48 8b 54 24 10       	mov    0x10(%rsp),%rdx
  107d52:	48 8b 74 24 20       	mov    0x20(%rsp),%rsi
  107d57:	48 8b 7c 24 28       	mov    0x28(%rsp),%rdi
  107d5c:	e8 ef d0 ff ff       	callq  104e50 <_ZN4core5slice29_$LT$impl$u20$$u5b$T$u5d$$GT$13get_unchecked17h56f305ddfc57f8f2E>
  107d61:	48 89 44 24 08       	mov    %rax,0x8(%rsp)
  107d66:	48 89 84 24 80 00 00 	mov    %rax,0x80(%rsp)
  107d6d:	00 
  107d6e:	48 8b 40 08          	mov    0x8(%rax),%rax
  107d72:	48 8b 0d 3f a8 00 00 	mov    0xa83f(%rip),%rcx        # 1125b8 <_ZN4core3fmt2rt12USIZE_MARKER17h1b31419084dfd5e3E+0xbc0>
  107d79:	48 8b 09             	mov    (%rcx),%rcx
  107d7c:	48 39 c8             	cmp    %rcx,%rax
  107d7f:	74 0b                	je     107d8c <_ZN4core3fmt8getcount17h80df03d3322563e8E+0xdc>
  107d81:	48 c7 44 24 70 00 00 	movq   $0x0,0x70(%rsp)
  107d88:	00 00 
  107d8a:	eb 19                	jmp    107da5 <_ZN4core3fmt8getcount17h80df03d3322563e8E+0xf5>
  107d8c:	48 8b 44 24 08       	mov    0x8(%rsp),%rax
  107d91:	48 8b 00             	mov    (%rax),%rax
  107d94:	48 8b 00             	mov    (%rax),%rax
  107d97:	48 89 44 24 78       	mov    %rax,0x78(%rsp)
  107d9c:	48 c7 44 24 70 01 00 	movq   $0x1,0x70(%rsp)
  107da3:	00 00 
  107da5:	48 8b 44 24 70       	mov    0x70(%rsp),%rax
  107daa:	48 8b 4c 24 78       	mov    0x78(%rsp),%rcx
  107daf:	48 89 4c 24 40       	mov    %rcx,0x40(%rsp)
  107db4:	48 89 44 24 38       	mov    %rax,0x38(%rsp)
  107db9:	eb 80                	jmp    107d3b <_ZN4core3fmt8getcount17h80df03d3322563e8E+0x8b>
  107dbb:	48 8b 44 24 10       	mov    0x10(%rsp),%rax
  107dc0:	48 8b 4c 24 20       	mov    0x20(%rsp),%rcx
  107dc5:	48 39 c8             	cmp    %rcx,%rax
  107dc8:	0f 92 c0             	setb   %al
  107dcb:	34 ff                	xor    $0xff,%al
  107dcd:	a8 01                	test   $0x1,%al
  107dcf:	75 05                	jne    107dd6 <_ZN4core3fmt8getcount17h80df03d3322563e8E+0x126>
  107dd1:	e9 77 ff ff ff       	jmpq   107d4d <_ZN4core3fmt8getcount17h80df03d3322563e8E+0x9d>
  107dd6:	48 8d 3d f4 8a ff ff 	lea    -0x750c(%rip),%rdi        # 1008d1 <str.1+0x61>
  107ddd:	48 8d 15 6c a0 00 00 	lea    0xa06c(%rip),%rdx        # 111e50 <_ZN4core3fmt2rt12USIZE_MARKER17h1b31419084dfd5e3E+0x458>
  107de4:	be 20 00 00 00       	mov    $0x20,%esi
  107de9:	e8 42 d6 ff ff       	callq  105430 <_ZN4core9panicking5panic17h4e18ef80ec7677b0E>
  107dee:	0f 0b                	ud2    

0000000000107df0 <_ZN4core3fmt11PostPadding3new17h043ebf22d708b8ccE>:
  107df0:	48 83 ec 20          	sub    $0x20,%rsp
  107df4:	89 7c 24 14          	mov    %edi,0x14(%rsp)
  107df8:	48 89 74 24 18       	mov    %rsi,0x18(%rsp)
  107dfd:	89 7c 24 08          	mov    %edi,0x8(%rsp)
  107e01:	48 89 34 24          	mov    %rsi,(%rsp)
  107e05:	48 8b 04 24          	mov    (%rsp),%rax
  107e09:	8b 54 24 08          	mov    0x8(%rsp),%edx
  107e0d:	48 83 c4 20          	add    $0x20,%rsp
  107e11:	c3                   	retq   
  107e12:	cc                   	int3   
  107e13:	cc                   	int3   
  107e14:	cc                   	int3   
  107e15:	cc                   	int3   
  107e16:	cc                   	int3   
  107e17:	cc                   	int3   
  107e18:	cc                   	int3   
  107e19:	cc                   	int3   
  107e1a:	cc                   	int3   
  107e1b:	cc                   	int3   
  107e1c:	cc                   	int3   
  107e1d:	cc                   	int3   
  107e1e:	cc                   	int3   
  107e1f:	cc                   	int3   

0000000000107e20 <_ZN4core3fmt11PostPadding5write17h93d920752f24e9c4E>:
  107e20:	48 83 ec 78          	sub    $0x78,%rsp
  107e24:	48 89 54 24 08       	mov    %rdx,0x8(%rsp)
  107e29:	89 74 24 14          	mov    %esi,0x14(%rsp)
  107e2d:	48 89 7c 24 60       	mov    %rdi,0x60(%rsp)
  107e32:	89 74 24 68          	mov    %esi,0x68(%rsp)
  107e36:	48 89 54 24 70       	mov    %rdx,0x70(%rsp)
  107e3b:	48 c7 44 24 28 00 00 	movq   $0x0,0x28(%rsp)
  107e42:	00 00 
  107e44:	48 89 7c 24 30       	mov    %rdi,0x30(%rsp)
  107e49:	48 8b 7c 24 28       	mov    0x28(%rsp),%rdi
  107e4e:	48 8b 74 24 30       	mov    0x30(%rsp),%rsi
  107e53:	e8 b8 4f 00 00       	callq  10ce10 <_ZN63_$LT$I$u20$as$u20$core..iter..traits..collect..IntoIterator$GT$9into_iter17h3e6eed25d9a5d22cE>
  107e58:	48 89 44 24 38       	mov    %rax,0x38(%rsp)
  107e5d:	48 89 54 24 40       	mov    %rdx,0x40(%rsp)
  107e62:	48 8d 7c 24 38       	lea    0x38(%rsp),%rdi
  107e67:	e8 94 4f 00 00       	callq  10ce00 <_ZN4core4iter5range101_$LT$impl$u20$core..iter..traits..iterator..Iterator$u20$for$u20$core..ops..range..Range$LT$A$GT$$GT$4next17h1e143a2b9ee3d11bE>
  107e6c:	48 89 54 24 50       	mov    %rdx,0x50(%rsp)
  107e71:	48 89 44 24 48       	mov    %rax,0x48(%rsp)
  107e76:	48 83 7c 24 48 00    	cmpq   $0x0,0x48(%rsp)
  107e7c:	75 07                	jne    107e85 <_ZN4core3fmt11PostPadding5write17h93d920752f24e9c4E+0x65>
  107e7e:	c6 44 24 27 00       	movb   $0x0,0x27(%rsp)
  107e83:	eb 36                	jmp    107ebb <_ZN4core3fmt11PostPadding5write17h93d920752f24e9c4E+0x9b>
  107e85:	8b 74 24 14          	mov    0x14(%rsp),%esi
  107e89:	48 8b 44 24 08       	mov    0x8(%rsp),%rax
  107e8e:	48 8b 78 20          	mov    0x20(%rax),%rdi
  107e92:	48 8b 40 28          	mov    0x28(%rax),%rax
  107e96:	ff 50 20             	callq  *0x20(%rax)
  107e99:	0f b6 f8             	movzbl %al,%edi
  107e9c:	83 e7 01             	and    $0x1,%edi
  107e9f:	e8 1c 3e 00 00       	callq  10bcc0 <_ZN79_$LT$core..result..Result$LT$T$C$E$GT$$u20$as$u20$core..ops..try_trait..Try$GT$6branch17h2454c12ae4d7f827E>
  107ea4:	24 01                	and    $0x1,%al
  107ea6:	88 44 24 5f          	mov    %al,0x5f(%rsp)
  107eaa:	8a 44 24 5f          	mov    0x5f(%rsp),%al
  107eae:	24 01                	and    $0x1,%al
  107eb0:	0f b6 c0             	movzbl %al,%eax
  107eb3:	48 83 f8 00          	cmp    $0x0,%rax
  107eb7:	74 a9                	je     107e62 <_ZN4core3fmt11PostPadding5write17h93d920752f24e9c4E+0x42>
  107eb9:	eb 0e                	jmp    107ec9 <_ZN4core3fmt11PostPadding5write17h93d920752f24e9c4E+0xa9>
  107ebb:	8a 44 24 27          	mov    0x27(%rsp),%al
  107ebf:	24 01                	and    $0x1,%al
  107ec1:	0f b6 c0             	movzbl %al,%eax
  107ec4:	48 83 c4 78          	add    $0x78,%rsp
  107ec8:	c3                   	retq   
  107ec9:	48 8d 3d 98 9f 00 00 	lea    0x9f98(%rip),%rdi        # 111e68 <_ZN4core3fmt2rt12USIZE_MARKER17h1b31419084dfd5e3E+0x470>
  107ed0:	e8 4b 3e 00 00       	callq  10bd20 <_ZN153_$LT$core..result..Result$LT$T$C$F$GT$$u20$as$u20$core..ops..try_trait..FromResidual$LT$core..result..Result$LT$core..convert..Infallible$C$E$GT$$GT$$GT$13from_residual17hdab11aac15fb79f2E>
  107ed5:	24 01                	and    $0x1,%al
  107ed7:	88 44 24 27          	mov    %al,0x27(%rsp)
  107edb:	eb de                	jmp    107ebb <_ZN4core3fmt11PostPadding5write17h93d920752f24e9c4E+0x9b>
  107edd:	cc                   	int3   
  107ede:	cc                   	int3   
  107edf:	cc                   	int3   

0000000000107ee0 <_ZN4core3fmt9Formatter8wrap_buf17h7fb1a94fd975fdb3E>:
  107ee0:	55                   	push   %rbp
  107ee1:	53                   	push   %rbx
  107ee2:	48 83 ec 58          	sub    $0x58,%rsp
  107ee6:	48 89 4c 24 08       	mov    %rcx,0x8(%rsp)
  107eeb:	48 89 54 24 10       	mov    %rdx,0x10(%rsp)
  107ef0:	48 89 f0             	mov    %rsi,%rax
  107ef3:	48 8b 74 24 08       	mov    0x8(%rsp),%rsi
  107ef8:	48 89 44 24 18       	mov    %rax,0x18(%rsp)
  107efd:	48 89 f9             	mov    %rdi,%rcx
  107f00:	48 8b 7c 24 10       	mov    0x10(%rsp),%rdi
  107f05:	48 89 4c 24 20       	mov    %rcx,0x20(%rsp)
  107f0a:	48 89 4c 24 28       	mov    %rcx,0x28(%rsp)
  107f0f:	48 89 44 24 40       	mov    %rax,0x40(%rsp)
  107f14:	48 89 7c 24 48       	mov    %rdi,0x48(%rsp)
  107f19:	48 89 74 24 50       	mov    %rsi,0x50(%rsp)
  107f1e:	48 8b 48 20          	mov    0x20(%rax),%rcx
  107f22:	48 8b 40 28          	mov    0x28(%rax),%rax
  107f26:	48 89 4c 24 30       	mov    %rcx,0x30(%rsp)
  107f2b:	48 89 44 24 38       	mov    %rax,0x38(%rsp)
  107f30:	48 8b 54 24 30       	mov    0x30(%rsp),%rdx
  107f35:	48 8b 4c 24 38       	mov    0x38(%rsp),%rcx
  107f3a:	e8 21 eb ff ff       	callq  106a60 <_ZN4core3fmt8builders10PadAdapter4wrap28_$u7b$$u7b$closure$u7d$$u7d$17haff8785eee66a5c2E>
  107f3f:	48 8b 74 24 18       	mov    0x18(%rsp),%rsi
  107f44:	48 8b 7c 24 20       	mov    0x20(%rsp),%rdi
  107f49:	48 89 c1             	mov    %rax,%rcx
  107f4c:	48 8b 44 24 28       	mov    0x28(%rsp),%rax
  107f51:	8b 6e 34             	mov    0x34(%rsi),%ebp
  107f54:	8b 5e 30             	mov    0x30(%rsi),%ebx
  107f57:	44 8a 5e 38          	mov    0x38(%rsi),%r11b
  107f5b:	4c 8b 16             	mov    (%rsi),%r10
  107f5e:	4c 8b 4e 08          	mov    0x8(%rsi),%r9
  107f62:	4c 8b 46 10          	mov    0x10(%rsi),%r8
  107f66:	48 8b 76 18          	mov    0x18(%rsi),%rsi
  107f6a:	89 6f 34             	mov    %ebp,0x34(%rdi)
  107f6d:	89 5f 30             	mov    %ebx,0x30(%rdi)
  107f70:	44 88 5f 38          	mov    %r11b,0x38(%rdi)
  107f74:	4c 89 17             	mov    %r10,(%rdi)
  107f77:	4c 89 4f 08          	mov    %r9,0x8(%rdi)
  107f7b:	4c 89 47 10          	mov    %r8,0x10(%rdi)
  107f7f:	48 89 77 18          	mov    %rsi,0x18(%rdi)
  107f83:	48 89 4f 20          	mov    %rcx,0x20(%rdi)
  107f87:	48 89 57 28          	mov    %rdx,0x28(%rdi)
  107f8b:	48 83 c4 58          	add    $0x58,%rsp
  107f8f:	5b                   	pop    %rbx
  107f90:	5d                   	pop    %rbp
  107f91:	c3                   	retq   
  107f92:	cc                   	int3   
  107f93:	cc                   	int3   
  107f94:	cc                   	int3   
  107f95:	cc                   	int3   
  107f96:	cc                   	int3   
  107f97:	cc                   	int3   
  107f98:	cc                   	int3   
  107f99:	cc                   	int3   
  107f9a:	cc                   	int3   
  107f9b:	cc                   	int3   
  107f9c:	cc                   	int3   
  107f9d:	cc                   	int3   
  107f9e:	cc                   	int3   
  107f9f:	cc                   	int3   

0000000000107fa0 <_ZN4core3fmt9Formatter12pad_integral17hdb57515702e30363E>:
  107fa0:	48 81 ec e8 01 00 00 	sub    $0x1e8,%rsp
  107fa7:	4c 89 4c 24 68       	mov    %r9,0x68(%rsp)
  107fac:	4c 89 44 24 70       	mov    %r8,0x70(%rsp)
  107fb1:	48 89 4c 24 58       	mov    %rcx,0x58(%rsp)
  107fb6:	48 89 54 24 60       	mov    %rdx,0x60(%rsp)
  107fbb:	89 f0                	mov    %esi,%eax
  107fbd:	48 8b 74 24 68       	mov    0x68(%rsp),%rsi
  107fc2:	49 89 f8             	mov    %rdi,%r8
  107fc5:	48 8b 7c 24 70       	mov    0x70(%rsp),%rdi
  107fca:	4c 89 44 24 78       	mov    %r8,0x78(%rsp)
  107fcf:	88 84 24 87 00 00 00 	mov    %al,0x87(%rsp)
  107fd6:	4c 89 84 24 68 01 00 	mov    %r8,0x168(%rsp)
  107fdd:	00 
  107fde:	24 01                	and    $0x1,%al
  107fe0:	88 84 24 77 01 00 00 	mov    %al,0x177(%rsp)
  107fe7:	48 89 94 24 78 01 00 	mov    %rdx,0x178(%rsp)
  107fee:	00 
  107fef:	48 89 8c 24 80 01 00 	mov    %rcx,0x180(%rsp)
  107ff6:	00 
  107ff7:	48 89 bc 24 88 01 00 	mov    %rdi,0x188(%rsp)
  107ffe:	00 
  107fff:	48 89 b4 24 90 01 00 	mov    %rsi,0x190(%rsp)
  108006:	00 
  108007:	e8 34 64 00 00       	callq  10e440 <_ZN4core3str21_$LT$impl$u20$str$GT$3len17h6145da0040cceaafE>
  10800c:	48 89 c1             	mov    %rax,%rcx
  10800f:	8a 84 24 87 00 00 00 	mov    0x87(%rsp),%al
  108016:	48 89 8c 24 08 01 00 	mov    %rcx,0x108(%rsp)
  10801d:	00 
  10801e:	c7 84 24 14 01 00 00 	movl   $0x110000,0x114(%rsp)
  108025:	00 00 11 00 
  108029:	34 ff                	xor    $0xff,%al
  10802b:	a8 01                	test   $0x1,%al
  10802d:	75 10                	jne    10803f <_ZN4core3fmt9Formatter12pad_integral17hdb57515702e30363E+0x9f>
  10802f:	48 8b 7c 24 78       	mov    0x78(%rsp),%rdi
  108034:	e8 a7 0d 00 00       	callq  108de0 <_ZN4core3fmt9Formatter9sign_plus17he6916cfe560887a9E>
  108039:	a8 01                	test   $0x1,%al
  10803b:	75 50                	jne    10808d <_ZN4core3fmt9Formatter12pad_integral17hdb57515702e30363E+0xed>
  10803d:	eb 37                	jmp    108076 <_ZN4core3fmt9Formatter12pad_integral17hdb57515702e30363E+0xd6>
  10803f:	c7 84 24 18 01 00 00 	movl   $0x2d,0x118(%rsp)
  108046:	2d 00 00 00 
  10804a:	8b 84 24 18 01 00 00 	mov    0x118(%rsp),%eax
  108051:	89 84 24 14 01 00 00 	mov    %eax,0x114(%rsp)
  108058:	48 8b 84 24 08 01 00 	mov    0x108(%rsp),%rax
  10805f:	00 
  108060:	48 83 c0 01          	add    $0x1,%rax
  108064:	48 89 44 24 50       	mov    %rax,0x50(%rsp)
  108069:	0f 92 c0             	setb   %al
  10806c:	a8 01                	test   $0x1,%al
  10806e:	0f 85 82 00 00 00    	jne    1080f6 <_ZN4core3fmt9Formatter12pad_integral17hdb57515702e30363E+0x156>
  108074:	eb 71                	jmp    1080e7 <_ZN4core3fmt9Formatter12pad_integral17hdb57515702e30363E+0x147>
  108076:	48 8b 7c 24 78       	mov    0x78(%rsp),%rdi
  10807b:	e8 80 0d 00 00       	callq  108e00 <_ZN4core3fmt9Formatter9alternate17h0c0280c0abf3b3a0E>
  108080:	a8 01                	test   $0x1,%al
  108082:	0f 85 96 00 00 00    	jne    10811e <_ZN4core3fmt9Formatter12pad_integral17hdb57515702e30363E+0x17e>
  108088:	e9 83 00 00 00       	jmpq   108110 <_ZN4core3fmt9Formatter12pad_integral17hdb57515702e30363E+0x170>
  10808d:	c7 84 24 1c 01 00 00 	movl   $0x2b,0x11c(%rsp)
  108094:	2b 00 00 00 
  108098:	8b 84 24 1c 01 00 00 	mov    0x11c(%rsp),%eax
  10809f:	89 84 24 14 01 00 00 	mov    %eax,0x114(%rsp)
  1080a6:	48 8b 84 24 08 01 00 	mov    0x108(%rsp),%rax
  1080ad:	00 
  1080ae:	48 83 c0 01          	add    $0x1,%rax
  1080b2:	48 89 44 24 48       	mov    %rax,0x48(%rsp)
  1080b7:	0f 92 c0             	setb   %al
  1080ba:	a8 01                	test   $0x1,%al
  1080bc:	75 0f                	jne    1080cd <_ZN4core3fmt9Formatter12pad_integral17hdb57515702e30363E+0x12d>
  1080be:	48 8b 44 24 48       	mov    0x48(%rsp),%rax
  1080c3:	48 89 84 24 08 01 00 	mov    %rax,0x108(%rsp)
  1080ca:	00 
  1080cb:	eb a9                	jmp    108076 <_ZN4core3fmt9Formatter12pad_integral17hdb57515702e30363E+0xd6>
  1080cd:	48 8d 3d 0c 8d ff ff 	lea    -0x72f4(%rip),%rdi        # 100de0 <str.1>
  1080d4:	48 8d 15 a5 9d 00 00 	lea    0x9da5(%rip),%rdx        # 111e80 <_ZN4core3fmt2rt12USIZE_MARKER17h1b31419084dfd5e3E+0x488>
  1080db:	be 1c 00 00 00       	mov    $0x1c,%esi
  1080e0:	e8 4b d3 ff ff       	callq  105430 <_ZN4core9panicking5panic17h4e18ef80ec7677b0E>
  1080e5:	0f 0b                	ud2    
  1080e7:	48 8b 44 24 50       	mov    0x50(%rsp),%rax
  1080ec:	48 89 84 24 08 01 00 	mov    %rax,0x108(%rsp)
  1080f3:	00 
  1080f4:	eb 80                	jmp    108076 <_ZN4core3fmt9Formatter12pad_integral17hdb57515702e30363E+0xd6>
  1080f6:	48 8d 3d e3 8c ff ff 	lea    -0x731d(%rip),%rdi        # 100de0 <str.1>
  1080fd:	48 8d 15 94 9d 00 00 	lea    0x9d94(%rip),%rdx        # 111e98 <_ZN4core3fmt2rt12USIZE_MARKER17h1b31419084dfd5e3E+0x4a0>
  108104:	be 1c 00 00 00       	mov    $0x1c,%esi
  108109:	e8 22 d3 ff ff       	callq  105430 <_ZN4core9panicking5panic17h4e18ef80ec7677b0E>
  10810e:	0f 0b                	ud2    
  108110:	48 c7 84 24 20 01 00 	movq   $0x0,0x120(%rsp)
  108117:	00 00 00 00 00 
  10811c:	eb 30                	jmp    10814e <_ZN4core3fmt9Formatter12pad_integral17hdb57515702e30363E+0x1ae>
  10811e:	48 8b 74 24 58       	mov    0x58(%rsp),%rsi
  108123:	48 8b 7c 24 60       	mov    0x60(%rsp),%rdi
  108128:	e8 93 64 00 00       	callq  10e5c0 <_ZN4core3str21_$LT$impl$u20$str$GT$5chars17h53006093ff9692abE>
  10812d:	48 89 c7             	mov    %rax,%rdi
  108130:	48 89 d6             	mov    %rdx,%rsi
  108133:	e8 b8 cd ff ff       	callq  104ef0 <_ZN81_$LT$core..str..iter..Chars$u20$as$u20$core..iter..traits..iterator..Iterator$GT$5count17hc993f847aa665e2fE>
  108138:	48 03 84 24 08 01 00 	add    0x108(%rsp),%rax
  10813f:	00 
  108140:	48 89 44 24 40       	mov    %rax,0x40(%rsp)
  108145:	0f 92 c0             	setb   %al
  108148:	a8 01                	test   $0x1,%al
  10814a:	75 3b                	jne    108187 <_ZN4core3fmt9Formatter12pad_integral17hdb57515702e30363E+0x1e7>
  10814c:	eb 10                	jmp    10815e <_ZN4core3fmt9Formatter12pad_integral17hdb57515702e30363E+0x1be>
  10814e:	48 8b 44 24 78       	mov    0x78(%rsp),%rax
  108153:	48 83 38 00          	cmpq   $0x0,(%rax)
  108157:	74 48                	je     1081a1 <_ZN4core3fmt9Formatter12pad_integral17hdb57515702e30363E+0x201>
  108159:	e9 8c 00 00 00       	jmpq   1081ea <_ZN4core3fmt9Formatter12pad_integral17hdb57515702e30363E+0x24a>
  10815e:	48 8b 44 24 58       	mov    0x58(%rsp),%rax
  108163:	48 8b 4c 24 60       	mov    0x60(%rsp),%rcx
  108168:	48 8b 54 24 40       	mov    0x40(%rsp),%rdx
  10816d:	48 89 94 24 08 01 00 	mov    %rdx,0x108(%rsp)
  108174:	00 
  108175:	48 89 8c 24 20 01 00 	mov    %rcx,0x120(%rsp)
  10817c:	00 
  10817d:	48 89 84 24 28 01 00 	mov    %rax,0x128(%rsp)
  108184:	00 
  108185:	eb c7                	jmp    10814e <_ZN4core3fmt9Formatter12pad_integral17hdb57515702e30363E+0x1ae>
  108187:	48 8d 3d 52 8c ff ff 	lea    -0x73ae(%rip),%rdi        # 100de0 <str.1>
  10818e:	48 8d 15 1b 9d 00 00 	lea    0x9d1b(%rip),%rdx        # 111eb0 <_ZN4core3fmt2rt12USIZE_MARKER17h1b31419084dfd5e3E+0x4b8>
  108195:	be 1c 00 00 00       	mov    $0x1c,%esi
  10819a:	e8 91 d2 ff ff       	callq  105430 <_ZN4core9panicking5panic17h4e18ef80ec7677b0E>
  10819f:	0f 0b                	ud2    
  1081a1:	48 8b 7c 24 78       	mov    0x78(%rsp),%rdi
  1081a6:	8b b4 24 14 01 00 00 	mov    0x114(%rsp),%esi
  1081ad:	48 8b 94 24 20 01 00 	mov    0x120(%rsp),%rdx
  1081b4:	00 
  1081b5:	48 8b 8c 24 28 01 00 	mov    0x128(%rsp),%rcx
  1081bc:	00 
  1081bd:	e8 9e 05 00 00       	callq  108760 <_ZN4core3fmt9Formatter12pad_integral12write_prefix17h6e2e52f2fefa4f6fE>
  1081c2:	0f b6 f8             	movzbl %al,%edi
  1081c5:	83 e7 01             	and    $0x1,%edi
  1081c8:	e8 f3 3a 00 00       	callq  10bcc0 <_ZN79_$LT$core..result..Result$LT$T$C$E$GT$$u20$as$u20$core..ops..try_trait..Try$GT$6branch17h2454c12ae4d7f827E>
  1081cd:	24 01                	and    $0x1,%al
  1081cf:	88 84 24 34 01 00 00 	mov    %al,0x134(%rsp)
  1081d6:	8a 84 24 34 01 00 00 	mov    0x134(%rsp),%al
  1081dd:	24 01                	and    $0x1,%al
  1081df:	0f b6 c0             	movzbl %al,%eax
  1081e2:	48 83 f8 00          	cmp    $0x0,%rax
  1081e6:	74 26                	je     10820e <_ZN4core3fmt9Formatter12pad_integral17hdb57515702e30363E+0x26e>
  1081e8:	eb 49                	jmp    108233 <_ZN4core3fmt9Formatter12pad_integral17hdb57515702e30363E+0x293>
  1081ea:	48 8b 4c 24 78       	mov    0x78(%rsp),%rcx
  1081ef:	48 89 c8             	mov    %rcx,%rax
  1081f2:	48 83 c0 08          	add    $0x8,%rax
  1081f6:	48 89 84 24 98 01 00 	mov    %rax,0x198(%rsp)
  1081fd:	00 
  1081fe:	48 8b 84 24 08 01 00 	mov    0x108(%rsp),%rax
  108205:	00 
  108206:	48 3b 41 08          	cmp    0x8(%rcx),%rax
  10820a:	73 73                	jae    10827f <_ZN4core3fmt9Formatter12pad_integral17hdb57515702e30363E+0x2df>
  10820c:	eb 4e                	jmp    10825c <_ZN4core3fmt9Formatter12pad_integral17hdb57515702e30363E+0x2bc>
  10820e:	48 8b 54 24 68       	mov    0x68(%rsp),%rdx
  108213:	48 8b 74 24 70       	mov    0x70(%rsp),%rsi
  108218:	48 8b 44 24 78       	mov    0x78(%rsp),%rax
  10821d:	48 8b 78 20          	mov    0x20(%rax),%rdi
  108221:	48 8b 40 28          	mov    0x28(%rax),%rax
  108225:	ff 50 18             	callq  *0x18(%rax)
  108228:	24 01                	and    $0x1,%al
  10822a:	88 84 24 07 01 00 00 	mov    %al,0x107(%rsp)
  108231:	eb 15                	jmp    108248 <_ZN4core3fmt9Formatter12pad_integral17hdb57515702e30363E+0x2a8>
  108233:	48 8d 3d 8e 9c 00 00 	lea    0x9c8e(%rip),%rdi        # 111ec8 <_ZN4core3fmt2rt12USIZE_MARKER17h1b31419084dfd5e3E+0x4d0>
  10823a:	e8 e1 3a 00 00       	callq  10bd20 <_ZN153_$LT$core..result..Result$LT$T$C$F$GT$$u20$as$u20$core..ops..try_trait..FromResidual$LT$core..result..Result$LT$core..convert..Infallible$C$E$GT$$GT$$GT$13from_residual17hdab11aac15fb79f2E>
  10823f:	24 01                	and    $0x1,%al
  108241:	88 84 24 07 01 00 00 	mov    %al,0x107(%rsp)
  108248:	8a 84 24 07 01 00 00 	mov    0x107(%rsp),%al
  10824f:	24 01                	and    $0x1,%al
  108251:	0f b6 c0             	movzbl %al,%eax
  108254:	48 81 c4 e8 01 00 00 	add    $0x1e8,%rsp
  10825b:	c3                   	retq   
  10825c:	48 8b 7c 24 78       	mov    0x78(%rsp),%rdi
  108261:	48 89 f8             	mov    %rdi,%rax
  108264:	48 83 c0 08          	add    $0x8,%rax
  108268:	48 89 84 24 a0 01 00 	mov    %rax,0x1a0(%rsp)
  10826f:	00 
  108270:	e8 ab 0b 00 00       	callq  108e20 <_ZN4core3fmt9Formatter19sign_aware_zero_pad17h69212a91da92a8beE>
  108275:	a8 01                	test   $0x1,%al
  108277:	0f 85 95 00 00 00    	jne    108312 <_ZN4core3fmt9Formatter12pad_integral17hdb57515702e30363E+0x372>
  10827d:	eb 5c                	jmp    1082db <_ZN4core3fmt9Formatter12pad_integral17hdb57515702e30363E+0x33b>
  10827f:	48 8b 7c 24 78       	mov    0x78(%rsp),%rdi
  108284:	48 8b 47 08          	mov    0x8(%rdi),%rax
  108288:	48 89 84 24 e0 01 00 	mov    %rax,0x1e0(%rsp)
  10828f:	00 
  108290:	8b b4 24 14 01 00 00 	mov    0x114(%rsp),%esi
  108297:	48 8b 94 24 20 01 00 	mov    0x120(%rsp),%rdx
  10829e:	00 
  10829f:	48 8b 8c 24 28 01 00 	mov    0x128(%rsp),%rcx
  1082a6:	00 
  1082a7:	e8 b4 04 00 00       	callq  108760 <_ZN4core3fmt9Formatter12pad_integral12write_prefix17h6e2e52f2fefa4f6fE>
  1082ac:	0f b6 f8             	movzbl %al,%edi
  1082af:	83 e7 01             	and    $0x1,%edi
  1082b2:	e8 09 3a 00 00       	callq  10bcc0 <_ZN79_$LT$core..result..Result$LT$T$C$E$GT$$u20$as$u20$core..ops..try_trait..Try$GT$6branch17h2454c12ae4d7f827E>
  1082b7:	24 01                	and    $0x1,%al
  1082b9:	88 84 24 35 01 00 00 	mov    %al,0x135(%rsp)
  1082c0:	8a 84 24 35 01 00 00 	mov    0x135(%rsp),%al
  1082c7:	24 01                	and    $0x1,%al
  1082c9:	0f b6 c0             	movzbl %al,%eax
  1082cc:	48 83 f8 00          	cmp    $0x0,%rax
  1082d0:	0f 84 39 04 00 00    	je     10870f <_ZN4core3fmt9Formatter12pad_integral17hdb57515702e30363E+0x76f>
  1082d6:	e9 5c 04 00 00       	jmpq   108737 <_ZN4core3fmt9Formatter12pad_integral17hdb57515702e30363E+0x797>
  1082db:	48 8b 44 24 78       	mov    0x78(%rsp),%rax
  1082e0:	48 8b 40 08          	mov    0x8(%rax),%rax
  1082e4:	48 89 84 24 a8 01 00 	mov    %rax,0x1a8(%rsp)
  1082eb:	00 
  1082ec:	48 8b 8c 24 08 01 00 	mov    0x108(%rsp),%rcx
  1082f3:	00 
  1082f4:	48 89 c2             	mov    %rax,%rdx
  1082f7:	48 29 ca             	sub    %rcx,%rdx
  1082fa:	48 89 54 24 38       	mov    %rdx,0x38(%rsp)
  1082ff:	48 39 c8             	cmp    %rcx,%rax
  108302:	0f 92 c0             	setb   %al
  108305:	a8 01                	test   $0x1,%al
  108307:	0f 85 06 01 00 00    	jne    108413 <_ZN4core3fmt9Formatter12pad_integral17hdb57515702e30363E+0x473>
  10830d:	e9 a8 00 00 00       	jmpq   1083ba <_ZN4core3fmt9Formatter12pad_integral17hdb57515702e30363E+0x41a>
  108312:	48 8b 7c 24 78       	mov    0x78(%rsp),%rdi
  108317:	48 8b 47 08          	mov    0x8(%rdi),%rax
  10831b:	48 89 44 24 28       	mov    %rax,0x28(%rsp)
  108320:	48 89 84 24 c0 01 00 	mov    %rax,0x1c0(%rsp)
  108327:	00 
  108328:	48 83 c7 30          	add    $0x30,%rdi
  10832c:	be 30 00 00 00       	mov    $0x30,%esi
  108331:	e8 8a d4 ff ff       	callq  1057c0 <_ZN4core3mem7replace17hddd00f37216a66e7E>
  108336:	48 8b 7c 24 78       	mov    0x78(%rsp),%rdi
  10833b:	89 44 24 30          	mov    %eax,0x30(%rsp)
  10833f:	89 84 24 c8 01 00 00 	mov    %eax,0x1c8(%rsp)
  108346:	48 83 c7 38          	add    $0x38,%rdi
  10834a:	c6 84 24 36 01 00 00 	movb   $0x1,0x136(%rsp)
  108351:	01 
  108352:	0f b6 b4 24 36 01 00 	movzbl 0x136(%rsp),%esi
  108359:	00 
  10835a:	e8 11 d4 ff ff       	callq  105770 <_ZN4core3mem7replace17hcd5cc807d1a20198E>
  10835f:	48 8b 7c 24 78       	mov    0x78(%rsp),%rdi
  108364:	88 44 24 37          	mov    %al,0x37(%rsp)
  108368:	88 84 24 cf 01 00 00 	mov    %al,0x1cf(%rsp)
  10836f:	8b b4 24 14 01 00 00 	mov    0x114(%rsp),%esi
  108376:	48 8b 94 24 20 01 00 	mov    0x120(%rsp),%rdx
  10837d:	00 
  10837e:	48 8b 8c 24 28 01 00 	mov    0x128(%rsp),%rcx
  108385:	00 
  108386:	e8 d5 03 00 00       	callq  108760 <_ZN4core3fmt9Formatter12pad_integral12write_prefix17h6e2e52f2fefa4f6fE>
  10838b:	0f b6 f8             	movzbl %al,%edi
  10838e:	83 e7 01             	and    $0x1,%edi
  108391:	e8 2a 39 00 00       	callq  10bcc0 <_ZN79_$LT$core..result..Result$LT$T$C$E$GT$$u20$as$u20$core..ops..try_trait..Try$GT$6branch17h2454c12ae4d7f827E>
  108396:	24 01                	and    $0x1,%al
  108398:	88 84 24 37 01 00 00 	mov    %al,0x137(%rsp)
  10839f:	8a 84 24 37 01 00 00 	mov    0x137(%rsp),%al
  1083a6:	24 01                	and    $0x1,%al
  1083a8:	0f b6 c0             	movzbl %al,%eax
  1083ab:	48 83 f8 00          	cmp    $0x0,%rax
  1083af:	0f 84 99 01 00 00    	je     10854e <_ZN4core3fmt9Formatter12pad_integral17hdb57515702e30363E+0x5ae>
  1083b5:	e9 b8 01 00 00       	jmpq   108572 <_ZN4core3fmt9Formatter12pad_integral17hdb57515702e30363E+0x5d2>
  1083ba:	48 8b 74 24 38       	mov    0x38(%rsp),%rsi
  1083bf:	48 8b 7c 24 78       	mov    0x78(%rsp),%rdi
  1083c4:	c6 84 24 65 01 00 00 	movb   $0x1,0x165(%rsp)
  1083cb:	01 
  1083cc:	0f b6 94 24 65 01 00 	movzbl 0x165(%rsp),%edx
  1083d3:	00 
  1083d4:	e8 c7 07 00 00       	callq  108ba0 <_ZN4core3fmt9Formatter7padding17hd141a6815d9fb6f5E>
  1083d9:	48 89 c7             	mov    %rax,%rdi
  1083dc:	89 d6                	mov    %edx,%esi
  1083de:	e8 7d 38 00 00       	callq  10bc60 <_ZN79_$LT$core..result..Result$LT$T$C$E$GT$$u20$as$u20$core..ops..try_trait..Try$GT$6branch17h10836ab6199822a1E>
  1083e3:	89 94 24 58 01 00 00 	mov    %edx,0x158(%rsp)
  1083ea:	48 89 84 24 50 01 00 	mov    %rax,0x150(%rsp)
  1083f1:	00 
  1083f2:	31 c0                	xor    %eax,%eax
  1083f4:	b9 01 00 00 00       	mov    $0x1,%ecx
  1083f9:	81 bc 24 58 01 00 00 	cmpl   $0x110000,0x158(%rsp)
  108400:	00 00 11 00 
  108404:	48 0f 44 c1          	cmove  %rcx,%rax
  108408:	48 83 f8 00          	cmp    $0x0,%rax
  10840c:	74 1f                	je     10842d <_ZN4core3fmt9Formatter12pad_integral17hdb57515702e30363E+0x48d>
  10840e:	e9 8a 00 00 00       	jmpq   10849d <_ZN4core3fmt9Formatter12pad_integral17hdb57515702e30363E+0x4fd>
  108413:	48 8d 3d 96 88 ff ff 	lea    -0x776a(%rip),%rdi        # 100cb0 <str.0>
  10841a:	48 8d 15 bf 9a 00 00 	lea    0x9abf(%rip),%rdx        # 111ee0 <_ZN4core3fmt2rt12USIZE_MARKER17h1b31419084dfd5e3E+0x4e8>
  108421:	be 21 00 00 00       	mov    $0x21,%esi
  108426:	e8 05 d0 ff ff       	callq  105430 <_ZN4core9panicking5panic17h4e18ef80ec7677b0E>
  10842b:	0f 0b                	ud2    
  10842d:	48 8b 7c 24 78       	mov    0x78(%rsp),%rdi
  108432:	48 8b 8c 24 50 01 00 	mov    0x150(%rsp),%rcx
  108439:	00 
  10843a:	48 89 4c 24 18       	mov    %rcx,0x18(%rsp)
  10843f:	8b 84 24 58 01 00 00 	mov    0x158(%rsp),%eax
  108446:	89 44 24 24          	mov    %eax,0x24(%rsp)
  10844a:	48 89 8c 24 b0 01 00 	mov    %rcx,0x1b0(%rsp)
  108451:	00 
  108452:	89 84 24 b8 01 00 00 	mov    %eax,0x1b8(%rsp)
  108459:	8b b4 24 14 01 00 00 	mov    0x114(%rsp),%esi
  108460:	48 8b 94 24 20 01 00 	mov    0x120(%rsp),%rdx
  108467:	00 
  108468:	48 8b 8c 24 28 01 00 	mov    0x128(%rsp),%rcx
  10846f:	00 
  108470:	e8 eb 02 00 00       	callq  108760 <_ZN4core3fmt9Formatter12pad_integral12write_prefix17h6e2e52f2fefa4f6fE>
  108475:	0f b6 f8             	movzbl %al,%edi
  108478:	83 e7 01             	and    $0x1,%edi
  10847b:	e8 40 38 00 00       	callq  10bcc0 <_ZN79_$LT$core..result..Result$LT$T$C$E$GT$$u20$as$u20$core..ops..try_trait..Try$GT$6branch17h2454c12ae4d7f827E>
  108480:	24 01                	and    $0x1,%al
  108482:	88 84 24 66 01 00 00 	mov    %al,0x166(%rsp)
  108489:	8a 84 24 66 01 00 00 	mov    0x166(%rsp),%al
  108490:	24 01                	and    $0x1,%al
  108492:	0f b6 c0             	movzbl %al,%eax
  108495:	48 83 f8 00          	cmp    $0x0,%rax
  108499:	74 1c                	je     1084b7 <_ZN4core3fmt9Formatter12pad_integral17hdb57515702e30363E+0x517>
  10849b:	eb 5c                	jmp    1084f9 <_ZN4core3fmt9Formatter12pad_integral17hdb57515702e30363E+0x559>
  10849d:	48 8d 3d 84 9a 00 00 	lea    0x9a84(%rip),%rdi        # 111f28 <_ZN4core3fmt2rt12USIZE_MARKER17h1b31419084dfd5e3E+0x530>
  1084a4:	e8 77 38 00 00       	callq  10bd20 <_ZN153_$LT$core..result..Result$LT$T$C$F$GT$$u20$as$u20$core..ops..try_trait..FromResidual$LT$core..result..Result$LT$core..convert..Infallible$C$E$GT$$GT$$GT$13from_residual17hdab11aac15fb79f2E>
  1084a9:	24 01                	and    $0x1,%al
  1084ab:	88 84 24 07 01 00 00 	mov    %al,0x107(%rsp)
  1084b2:	e9 91 fd ff ff       	jmpq   108248 <_ZN4core3fmt9Formatter12pad_integral17hdb57515702e30363E+0x2a8>
  1084b7:	48 8b 54 24 68       	mov    0x68(%rsp),%rdx
  1084bc:	48 8b 74 24 70       	mov    0x70(%rsp),%rsi
  1084c1:	48 8b 44 24 78       	mov    0x78(%rsp),%rax
  1084c6:	48 8b 78 20          	mov    0x20(%rax),%rdi
  1084ca:	48 8b 40 28          	mov    0x28(%rax),%rax
  1084ce:	ff 50 18             	callq  *0x18(%rax)
  1084d1:	0f b6 f8             	movzbl %al,%edi
  1084d4:	83 e7 01             	and    $0x1,%edi
  1084d7:	e8 e4 37 00 00       	callq  10bcc0 <_ZN79_$LT$core..result..Result$LT$T$C$E$GT$$u20$as$u20$core..ops..try_trait..Try$GT$6branch17h2454c12ae4d7f827E>
  1084dc:	24 01                	and    $0x1,%al
  1084de:	88 84 24 67 01 00 00 	mov    %al,0x167(%rsp)
  1084e5:	8a 84 24 67 01 00 00 	mov    0x167(%rsp),%al
  1084ec:	24 01                	and    $0x1,%al
  1084ee:	0f b6 c0             	movzbl %al,%eax
  1084f1:	48 83 f8 00          	cmp    $0x0,%rax
  1084f5:	74 1c                	je     108513 <_ZN4core3fmt9Formatter12pad_integral17hdb57515702e30363E+0x573>
  1084f7:	eb 3b                	jmp    108534 <_ZN4core3fmt9Formatter12pad_integral17hdb57515702e30363E+0x594>
  1084f9:	48 8d 3d 10 9a 00 00 	lea    0x9a10(%rip),%rdi        # 111f10 <_ZN4core3fmt2rt12USIZE_MARKER17h1b31419084dfd5e3E+0x518>
  108500:	e8 1b 38 00 00       	callq  10bd20 <_ZN153_$LT$core..result..Result$LT$T$C$F$GT$$u20$as$u20$core..ops..try_trait..FromResidual$LT$core..result..Result$LT$core..convert..Infallible$C$E$GT$$GT$$GT$13from_residual17hdab11aac15fb79f2E>
  108505:	24 01                	and    $0x1,%al
  108507:	88 84 24 07 01 00 00 	mov    %al,0x107(%rsp)
  10850e:	e9 35 fd ff ff       	jmpq   108248 <_ZN4core3fmt9Formatter12pad_integral17hdb57515702e30363E+0x2a8>
  108513:	48 8b 54 24 78       	mov    0x78(%rsp),%rdx
  108518:	8b 74 24 24          	mov    0x24(%rsp),%esi
  10851c:	48 8b 7c 24 18       	mov    0x18(%rsp),%rdi
  108521:	e8 fa f8 ff ff       	callq  107e20 <_ZN4core3fmt11PostPadding5write17h93d920752f24e9c4E>
  108526:	24 01                	and    $0x1,%al
  108528:	88 84 24 07 01 00 00 	mov    %al,0x107(%rsp)
  10852f:	e9 14 fd ff ff       	jmpq   108248 <_ZN4core3fmt9Formatter12pad_integral17hdb57515702e30363E+0x2a8>
  108534:	48 8d 3d bd 99 00 00 	lea    0x99bd(%rip),%rdi        # 111ef8 <_ZN4core3fmt2rt12USIZE_MARKER17h1b31419084dfd5e3E+0x500>
  10853b:	e8 e0 37 00 00       	callq  10bd20 <_ZN153_$LT$core..result..Result$LT$T$C$F$GT$$u20$as$u20$core..ops..try_trait..FromResidual$LT$core..result..Result$LT$core..convert..Infallible$C$E$GT$$GT$$GT$13from_residual17hdab11aac15fb79f2E>
  108540:	24 01                	and    $0x1,%al
  108542:	88 84 24 07 01 00 00 	mov    %al,0x107(%rsp)
  108549:	e9 fa fc ff ff       	jmpq   108248 <_ZN4core3fmt9Formatter12pad_integral17hdb57515702e30363E+0x2a8>
  10854e:	48 8b 44 24 28       	mov    0x28(%rsp),%rax
  108553:	48 8b 8c 24 08 01 00 	mov    0x108(%rsp),%rcx
  10855a:	00 
  10855b:	48 89 c2             	mov    %rax,%rdx
  10855e:	48 29 ca             	sub    %rcx,%rdx
  108561:	48 89 54 24 10       	mov    %rdx,0x10(%rsp)
  108566:	48 39 c8             	cmp    %rcx,%rax
  108569:	0f 92 c0             	setb   %al
  10856c:	a8 01                	test   $0x1,%al
  10856e:	75 75                	jne    1085e5 <_ZN4core3fmt9Formatter12pad_integral17hdb57515702e30363E+0x645>
  108570:	eb 1a                	jmp    10858c <_ZN4core3fmt9Formatter12pad_integral17hdb57515702e30363E+0x5ec>
  108572:	48 8d 3d 27 9a 00 00 	lea    0x9a27(%rip),%rdi        # 111fa0 <_ZN4core3fmt2rt12USIZE_MARKER17h1b31419084dfd5e3E+0x5a8>
  108579:	e8 a2 37 00 00       	callq  10bd20 <_ZN153_$LT$core..result..Result$LT$T$C$F$GT$$u20$as$u20$core..ops..try_trait..FromResidual$LT$core..result..Result$LT$core..convert..Infallible$C$E$GT$$GT$$GT$13from_residual17hdab11aac15fb79f2E>
  10857e:	24 01                	and    $0x1,%al
  108580:	88 84 24 07 01 00 00 	mov    %al,0x107(%rsp)
  108587:	e9 bc fc ff ff       	jmpq   108248 <_ZN4core3fmt9Formatter12pad_integral17hdb57515702e30363E+0x2a8>
  10858c:	48 8b 74 24 10       	mov    0x10(%rsp),%rsi
  108591:	48 8b 7c 24 78       	mov    0x78(%rsp),%rdi
  108596:	c6 84 24 4d 01 00 00 	movb   $0x1,0x14d(%rsp)
  10859d:	01 
  10859e:	0f b6 94 24 4d 01 00 	movzbl 0x14d(%rsp),%edx
  1085a5:	00 
  1085a6:	e8 f5 05 00 00       	callq  108ba0 <_ZN4core3fmt9Formatter7padding17hd141a6815d9fb6f5E>
  1085ab:	48 89 c7             	mov    %rax,%rdi
  1085ae:	89 d6                	mov    %edx,%esi
  1085b0:	e8 ab 36 00 00       	callq  10bc60 <_ZN79_$LT$core..result..Result$LT$T$C$E$GT$$u20$as$u20$core..ops..try_trait..Try$GT$6branch17h10836ab6199822a1E>
  1085b5:	89 94 24 40 01 00 00 	mov    %edx,0x140(%rsp)
  1085bc:	48 89 84 24 38 01 00 	mov    %rax,0x138(%rsp)
  1085c3:	00 
  1085c4:	31 c0                	xor    %eax,%eax
  1085c6:	b9 01 00 00 00       	mov    $0x1,%ecx
  1085cb:	81 bc 24 40 01 00 00 	cmpl   $0x110000,0x140(%rsp)
  1085d2:	00 00 11 00 
  1085d6:	48 0f 44 c1          	cmove  %rcx,%rax
  1085da:	48 83 f8 00          	cmp    $0x0,%rax
  1085de:	74 1f                	je     1085ff <_ZN4core3fmt9Formatter12pad_integral17hdb57515702e30363E+0x65f>
  1085e0:	e9 82 00 00 00       	jmpq   108667 <_ZN4core3fmt9Formatter12pad_integral17hdb57515702e30363E+0x6c7>
  1085e5:	48 8d 3d c4 86 ff ff 	lea    -0x793c(%rip),%rdi        # 100cb0 <str.0>
  1085ec:	48 8d 15 4d 99 00 00 	lea    0x994d(%rip),%rdx        # 111f40 <_ZN4core3fmt2rt12USIZE_MARKER17h1b31419084dfd5e3E+0x548>
  1085f3:	be 21 00 00 00       	mov    $0x21,%esi
  1085f8:	e8 33 ce ff ff       	callq  105430 <_ZN4core9panicking5panic17h4e18ef80ec7677b0E>
  1085fd:	0f 0b                	ud2    
  1085ff:	48 8b 54 24 68       	mov    0x68(%rsp),%rdx
  108604:	48 8b 74 24 70       	mov    0x70(%rsp),%rsi
  108609:	48 8b 44 24 78       	mov    0x78(%rsp),%rax
  10860e:	48 8b bc 24 38 01 00 	mov    0x138(%rsp),%rdi
  108615:	00 
  108616:	48 89 3c 24          	mov    %rdi,(%rsp)
  10861a:	8b 8c 24 40 01 00 00 	mov    0x140(%rsp),%ecx
  108621:	89 4c 24 0c          	mov    %ecx,0xc(%rsp)
  108625:	48 89 bc 24 d0 01 00 	mov    %rdi,0x1d0(%rsp)
  10862c:	00 
  10862d:	89 8c 24 d8 01 00 00 	mov    %ecx,0x1d8(%rsp)
  108634:	48 8b 78 20          	mov    0x20(%rax),%rdi
  108638:	48 8b 40 28          	mov    0x28(%rax),%rax
  10863c:	ff 50 18             	callq  *0x18(%rax)
  10863f:	0f b6 f8             	movzbl %al,%edi
  108642:	83 e7 01             	and    $0x1,%edi
  108645:	e8 76 36 00 00       	callq  10bcc0 <_ZN79_$LT$core..result..Result$LT$T$C$E$GT$$u20$as$u20$core..ops..try_trait..Try$GT$6branch17h2454c12ae4d7f827E>
  10864a:	24 01                	and    $0x1,%al
  10864c:	88 84 24 4e 01 00 00 	mov    %al,0x14e(%rsp)
  108653:	8a 84 24 4e 01 00 00 	mov    0x14e(%rsp),%al
  10865a:	24 01                	and    $0x1,%al
  10865c:	0f b6 c0             	movzbl %al,%eax
  10865f:	48 83 f8 00          	cmp    $0x0,%rax
  108663:	74 1c                	je     108681 <_ZN4core3fmt9Formatter12pad_integral17hdb57515702e30363E+0x6e1>
  108665:	eb 54                	jmp    1086bb <_ZN4core3fmt9Formatter12pad_integral17hdb57515702e30363E+0x71b>
  108667:	48 8d 3d 1a 99 00 00 	lea    0x991a(%rip),%rdi        # 111f88 <_ZN4core3fmt2rt12USIZE_MARKER17h1b31419084dfd5e3E+0x590>
  10866e:	e8 ad 36 00 00       	callq  10bd20 <_ZN153_$LT$core..result..Result$LT$T$C$F$GT$$u20$as$u20$core..ops..try_trait..FromResidual$LT$core..result..Result$LT$core..convert..Infallible$C$E$GT$$GT$$GT$13from_residual17hdab11aac15fb79f2E>
  108673:	24 01                	and    $0x1,%al
  108675:	88 84 24 07 01 00 00 	mov    %al,0x107(%rsp)
  10867c:	e9 c7 fb ff ff       	jmpq   108248 <_ZN4core3fmt9Formatter12pad_integral17hdb57515702e30363E+0x2a8>
  108681:	48 8b 54 24 78       	mov    0x78(%rsp),%rdx
  108686:	8b 74 24 0c          	mov    0xc(%rsp),%esi
  10868a:	48 8b 3c 24          	mov    (%rsp),%rdi
  10868e:	e8 8d f7 ff ff       	callq  107e20 <_ZN4core3fmt11PostPadding5write17h93d920752f24e9c4E>
  108693:	0f b6 f8             	movzbl %al,%edi
  108696:	83 e7 01             	and    $0x1,%edi
  108699:	e8 22 36 00 00       	callq  10bcc0 <_ZN79_$LT$core..result..Result$LT$T$C$E$GT$$u20$as$u20$core..ops..try_trait..Try$GT$6branch17h2454c12ae4d7f827E>
  10869e:	24 01                	and    $0x1,%al
  1086a0:	88 84 24 4f 01 00 00 	mov    %al,0x14f(%rsp)
  1086a7:	8a 84 24 4f 01 00 00 	mov    0x14f(%rsp),%al
  1086ae:	24 01                	and    $0x1,%al
  1086b0:	0f b6 c0             	movzbl %al,%eax
  1086b3:	48 83 f8 00          	cmp    $0x0,%rax
  1086b7:	74 1c                	je     1086d5 <_ZN4core3fmt9Formatter12pad_integral17hdb57515702e30363E+0x735>
  1086b9:	eb 3a                	jmp    1086f5 <_ZN4core3fmt9Formatter12pad_integral17hdb57515702e30363E+0x755>
  1086bb:	48 8d 3d ae 98 00 00 	lea    0x98ae(%rip),%rdi        # 111f70 <_ZN4core3fmt2rt12USIZE_MARKER17h1b31419084dfd5e3E+0x578>
  1086c2:	e8 59 36 00 00       	callq  10bd20 <_ZN153_$LT$core..result..Result$LT$T$C$F$GT$$u20$as$u20$core..ops..try_trait..FromResidual$LT$core..result..Result$LT$core..convert..Infallible$C$E$GT$$GT$$GT$13from_residual17hdab11aac15fb79f2E>
  1086c7:	24 01                	and    $0x1,%al
  1086c9:	88 84 24 07 01 00 00 	mov    %al,0x107(%rsp)
  1086d0:	e9 73 fb ff ff       	jmpq   108248 <_ZN4core3fmt9Formatter12pad_integral17hdb57515702e30363E+0x2a8>
  1086d5:	48 8b 44 24 78       	mov    0x78(%rsp),%rax
  1086da:	8a 4c 24 37          	mov    0x37(%rsp),%cl
  1086de:	8b 54 24 30          	mov    0x30(%rsp),%edx
  1086e2:	89 50 30             	mov    %edx,0x30(%rax)
  1086e5:	88 48 38             	mov    %cl,0x38(%rax)
  1086e8:	c6 84 24 07 01 00 00 	movb   $0x0,0x107(%rsp)
  1086ef:	00 
  1086f0:	e9 53 fb ff ff       	jmpq   108248 <_ZN4core3fmt9Formatter12pad_integral17hdb57515702e30363E+0x2a8>
  1086f5:	48 8d 3d 5c 98 00 00 	lea    0x985c(%rip),%rdi        # 111f58 <_ZN4core3fmt2rt12USIZE_MARKER17h1b31419084dfd5e3E+0x560>
  1086fc:	e8 1f 36 00 00       	callq  10bd20 <_ZN153_$LT$core..result..Result$LT$T$C$F$GT$$u20$as$u20$core..ops..try_trait..FromResidual$LT$core..result..Result$LT$core..convert..Infallible$C$E$GT$$GT$$GT$13from_residual17hdab11aac15fb79f2E>
  108701:	24 01                	and    $0x1,%al
  108703:	88 84 24 07 01 00 00 	mov    %al,0x107(%rsp)
  10870a:	e9 39 fb ff ff       	jmpq   108248 <_ZN4core3fmt9Formatter12pad_integral17hdb57515702e30363E+0x2a8>
  10870f:	48 8b 54 24 68       	mov    0x68(%rsp),%rdx
  108714:	48 8b 74 24 70       	mov    0x70(%rsp),%rsi
  108719:	48 8b 44 24 78       	mov    0x78(%rsp),%rax
  10871e:	48 8b 78 20          	mov    0x20(%rax),%rdi
  108722:	48 8b 40 28          	mov    0x28(%rax),%rax
  108726:	ff 50 18             	callq  *0x18(%rax)
  108729:	24 01                	and    $0x1,%al
  10872b:	88 84 24 07 01 00 00 	mov    %al,0x107(%rsp)
  108732:	e9 11 fb ff ff       	jmpq   108248 <_ZN4core3fmt9Formatter12pad_integral17hdb57515702e30363E+0x2a8>
  108737:	48 8d 3d 7a 98 00 00 	lea    0x987a(%rip),%rdi        # 111fb8 <_ZN4core3fmt2rt12USIZE_MARKER17h1b31419084dfd5e3E+0x5c0>
  10873e:	e8 dd 35 00 00       	callq  10bd20 <_ZN153_$LT$core..result..Result$LT$T$C$F$GT$$u20$as$u20$core..ops..try_trait..FromResidual$LT$core..result..Result$LT$core..convert..Infallible$C$E$GT$$GT$$GT$13from_residual17hdab11aac15fb79f2E>
  108743:	24 01                	and    $0x1,%al
  108745:	88 84 24 07 01 00 00 	mov    %al,0x107(%rsp)
  10874c:	e9 f7 fa ff ff       	jmpq   108248 <_ZN4core3fmt9Formatter12pad_integral17hdb57515702e30363E+0x2a8>
  108751:	cc                   	int3   
  108752:	cc                   	int3   
  108753:	cc                   	int3   
  108754:	cc                   	int3   
  108755:	cc                   	int3   
  108756:	cc                   	int3   
  108757:	cc                   	int3   
  108758:	cc                   	int3   
  108759:	cc                   	int3   
  10875a:	cc                   	int3   
  10875b:	cc                   	int3   
  10875c:	cc                   	int3   
  10875d:	cc                   	int3   
  10875e:	cc                   	int3   
  10875f:	cc                   	int3   

0000000000108760 <_ZN4core3fmt9Formatter12pad_integral12write_prefix17h6e2e52f2fefa4f6fE>:
  108760:	48 83 ec 58          	sub    $0x58,%rsp
  108764:	48 89 7c 24 08       	mov    %rdi,0x8(%rsp)
  108769:	89 74 24 1c          	mov    %esi,0x1c(%rsp)
  10876d:	48 89 54 24 20       	mov    %rdx,0x20(%rsp)
  108772:	48 89 4c 24 28       	mov    %rcx,0x28(%rsp)
  108777:	48 89 7c 24 38       	mov    %rdi,0x38(%rsp)
  10877c:	b8 01 00 00 00       	mov    $0x1,%eax
  108781:	31 c9                	xor    %ecx,%ecx
  108783:	81 7c 24 1c 00 00 11 	cmpl   $0x110000,0x1c(%rsp)
  10878a:	00 
  10878b:	48 0f 44 c1          	cmove  %rcx,%rax
  10878f:	48 83 f8 01          	cmp    $0x1,%rax
  108793:	75 38                	jne    1087cd <_ZN4core3fmt9Formatter12pad_integral12write_prefix17h6e2e52f2fefa4f6fE+0x6d>
  108795:	48 8b 44 24 08       	mov    0x8(%rsp),%rax
  10879a:	8b 74 24 1c          	mov    0x1c(%rsp),%esi
  10879e:	89 74 24 44          	mov    %esi,0x44(%rsp)
  1087a2:	48 8b 78 20          	mov    0x20(%rax),%rdi
  1087a6:	48 8b 40 28          	mov    0x28(%rax),%rax
  1087aa:	ff 50 20             	callq  *0x20(%rax)
  1087ad:	0f b6 f8             	movzbl %al,%edi
  1087b0:	83 e7 01             	and    $0x1,%edi
  1087b3:	e8 08 35 00 00       	callq  10bcc0 <_ZN79_$LT$core..result..Result$LT$T$C$E$GT$$u20$as$u20$core..ops..try_trait..Try$GT$6branch17h2454c12ae4d7f827E>
  1087b8:	24 01                	and    $0x1,%al
  1087ba:	88 44 24 37          	mov    %al,0x37(%rsp)
  1087be:	8a 44 24 37          	mov    0x37(%rsp),%al
  1087c2:	24 01                	and    $0x1,%al
  1087c4:	0f b6 c0             	movzbl %al,%eax
  1087c7:	48 83 f8 00          	cmp    $0x0,%rax
  1087cb:	75 1c                	jne    1087e9 <_ZN4core3fmt9Formatter12pad_integral12write_prefix17h6e2e52f2fefa4f6fE+0x89>
  1087cd:	48 8b 54 24 20       	mov    0x20(%rsp),%rdx
  1087d2:	b8 01 00 00 00       	mov    $0x1,%eax
  1087d7:	31 c9                	xor    %ecx,%ecx
  1087d9:	48 83 fa 00          	cmp    $0x0,%rdx
  1087dd:	48 0f 44 c1          	cmove  %rcx,%rax
  1087e1:	48 83 f8 01          	cmp    $0x1,%rax
  1087e5:	74 22                	je     108809 <_ZN4core3fmt9Formatter12pad_integral12write_prefix17h6e2e52f2fefa4f6fE+0xa9>
  1087e7:	eb 4c                	jmp    108835 <_ZN4core3fmt9Formatter12pad_integral12write_prefix17h6e2e52f2fefa4f6fE+0xd5>
  1087e9:	48 8d 3d e0 97 00 00 	lea    0x97e0(%rip),%rdi        # 111fd0 <_ZN4core3fmt2rt12USIZE_MARKER17h1b31419084dfd5e3E+0x5d8>
  1087f0:	e8 2b 35 00 00       	callq  10bd20 <_ZN153_$LT$core..result..Result$LT$T$C$F$GT$$u20$as$u20$core..ops..try_trait..FromResidual$LT$core..result..Result$LT$core..convert..Infallible$C$E$GT$$GT$$GT$13from_residual17hdab11aac15fb79f2E>
  1087f5:	24 01                	and    $0x1,%al
  1087f7:	88 44 24 36          	mov    %al,0x36(%rsp)
  1087fb:	8a 44 24 36          	mov    0x36(%rsp),%al
  1087ff:	24 01                	and    $0x1,%al
  108801:	0f b6 c0             	movzbl %al,%eax
  108804:	48 83 c4 58          	add    $0x58,%rsp
  108808:	c3                   	retq   
  108809:	48 8b 44 24 08       	mov    0x8(%rsp),%rax
  10880e:	48 8b 74 24 20       	mov    0x20(%rsp),%rsi
  108813:	48 8b 54 24 28       	mov    0x28(%rsp),%rdx
  108818:	48 89 74 24 48       	mov    %rsi,0x48(%rsp)
  10881d:	48 89 54 24 50       	mov    %rdx,0x50(%rsp)
  108822:	48 8b 78 20          	mov    0x20(%rax),%rdi
  108826:	48 8b 40 28          	mov    0x28(%rax),%rax
  10882a:	ff 50 18             	callq  *0x18(%rax)
  10882d:	24 01                	and    $0x1,%al
  10882f:	88 44 24 36          	mov    %al,0x36(%rsp)
  108833:	eb c6                	jmp    1087fb <_ZN4core3fmt9Formatter12pad_integral12write_prefix17h6e2e52f2fefa4f6fE+0x9b>
  108835:	c6 44 24 36 00       	movb   $0x0,0x36(%rsp)
  10883a:	eb bf                	jmp    1087fb <_ZN4core3fmt9Formatter12pad_integral12write_prefix17h6e2e52f2fefa4f6fE+0x9b>
  10883c:	cc                   	int3   
  10883d:	cc                   	int3   
  10883e:	cc                   	int3   
  10883f:	cc                   	int3   

0000000000108840 <_ZN4core3fmt9Formatter3pad17hbf7a458d444a2e3cE>:
  108840:	48 81 ec 08 01 00 00 	sub    $0x108,%rsp
  108847:	48 89 7c 24 38       	mov    %rdi,0x38(%rsp)
  10884c:	48 89 74 24 58       	mov    %rsi,0x58(%rsp)
  108851:	48 89 54 24 60       	mov    %rdx,0x60(%rsp)
  108856:	48 89 bc 24 d0 00 00 	mov    %rdi,0xd0(%rsp)
  10885d:	00 
  10885e:	e8 1d 12 00 00       	callq  109a80 <_ZN4core6option15Option$LT$T$GT$7is_none17hee5fa034a2a36550E>
  108863:	a8 01                	test   $0x1,%al
  108865:	75 07                	jne    10886e <_ZN4core3fmt9Formatter3pad17hbf7a458d444a2e3cE+0x2e>
  108867:	c6 44 24 6f 00       	movb   $0x0,0x6f(%rsp)
  10886c:	eb 14                	jmp    108882 <_ZN4core3fmt9Formatter3pad17hbf7a458d444a2e3cE+0x42>
  10886e:	48 8b 7c 24 38       	mov    0x38(%rsp),%rdi
  108873:	48 83 c7 10          	add    $0x10,%rdi
  108877:	e8 04 12 00 00       	callq  109a80 <_ZN4core6option15Option$LT$T$GT$7is_none17hee5fa034a2a36550E>
  10887c:	24 01                	and    $0x1,%al
  10887e:	88 44 24 6f          	mov    %al,0x6f(%rsp)
  108882:	f6 44 24 6f 01       	testb  $0x1,0x6f(%rsp)
  108887:	75 11                	jne    10889a <_ZN4core3fmt9Formatter3pad17hbf7a458d444a2e3cE+0x5a>
  108889:	48 8b 44 24 38       	mov    0x38(%rsp),%rax
  10888e:	48 83 78 10 01       	cmpq   $0x1,0x10(%rax)
  108893:	74 2a                	je     1088bf <_ZN4core3fmt9Formatter3pad17hbf7a458d444a2e3cE+0x7f>
  108895:	e9 93 00 00 00       	jmpq   10892d <_ZN4core3fmt9Formatter3pad17hbf7a458d444a2e3cE+0xed>
  10889a:	48 8b 44 24 38       	mov    0x38(%rsp),%rax
  10889f:	48 8b 78 20          	mov    0x20(%rax),%rdi
  1088a3:	48 8b 40 28          	mov    0x28(%rax),%rax
  1088a7:	48 8b 74 24 58       	mov    0x58(%rsp),%rsi
  1088ac:	48 8b 54 24 60       	mov    0x60(%rsp),%rdx
  1088b1:	ff 50 18             	callq  *0x18(%rax)
  1088b4:	24 01                	and    $0x1,%al
  1088b6:	88 44 24 6e          	mov    %al,0x6e(%rsp)
  1088ba:	e9 5e 01 00 00       	jmpq   108a1d <_ZN4core3fmt9Formatter3pad17hbf7a458d444a2e3cE+0x1dd>
  1088bf:	48 8b 44 24 38       	mov    0x38(%rsp),%rax
  1088c4:	48 8b 40 18          	mov    0x18(%rax),%rax
  1088c8:	48 89 44 24 30       	mov    %rax,0x30(%rsp)
  1088cd:	48 89 84 24 d8 00 00 	mov    %rax,0xd8(%rsp)
  1088d4:	00 
  1088d5:	48 8b 74 24 58       	mov    0x58(%rsp),%rsi
  1088da:	48 8b 54 24 60       	mov    0x60(%rsp),%rdx
  1088df:	48 8d bc 24 90 00 00 	lea    0x90(%rsp),%rdi
  1088e6:	00 
  1088e7:	48 89 7c 24 28       	mov    %rdi,0x28(%rsp)
  1088ec:	e8 0f 5d 00 00       	callq  10e600 <_ZN4core3str21_$LT$impl$u20$str$GT$12char_indices17ha8f11a18cd63348aE>
  1088f1:	48 8b 7c 24 28       	mov    0x28(%rsp),%rdi
  1088f6:	48 8b 74 24 30       	mov    0x30(%rsp),%rsi
  1088fb:	e8 80 bd ff ff       	callq  104680 <_ZN4core4iter6traits8iterator8Iterator3nth17h8bc8d5b5ea80a7d2E>
  108900:	89 94 24 88 00 00 00 	mov    %edx,0x88(%rsp)
  108907:	48 89 84 24 80 00 00 	mov    %rax,0x80(%rsp)
  10890e:	00 
  10890f:	b8 01 00 00 00       	mov    $0x1,%eax
  108914:	31 c9                	xor    %ecx,%ecx
  108916:	81 bc 24 88 00 00 00 	cmpl   $0x110000,0x88(%rsp)
  10891d:	00 00 11 00 
  108921:	48 0f 44 c1          	cmove  %rcx,%rax
  108925:	48 83 f8 01          	cmp    $0x1,%rax
  108929:	74 18                	je     108943 <_ZN4core3fmt9Formatter3pad17hbf7a458d444a2e3cE+0x103>
  10892b:	eb 66                	jmp    108993 <_ZN4core3fmt9Formatter3pad17hbf7a458d444a2e3cE+0x153>
  10892d:	48 8b 4c 24 58       	mov    0x58(%rsp),%rcx
  108932:	48 8b 44 24 60       	mov    0x60(%rsp),%rax
  108937:	48 89 4c 24 70       	mov    %rcx,0x70(%rsp)
  10893c:	48 89 44 24 78       	mov    %rax,0x78(%rsp)
  108941:	eb 64                	jmp    1089a7 <_ZN4core3fmt9Formatter3pad17hbf7a458d444a2e3cE+0x167>
  108943:	48 8b 84 24 80 00 00 	mov    0x80(%rsp),%rax
  10894a:	00 
  10894b:	48 89 84 24 e0 00 00 	mov    %rax,0xe0(%rsp)
  108952:	00 
  108953:	48 8b 7c 24 58       	mov    0x58(%rsp),%rdi
  108958:	48 8b 74 24 60       	mov    0x60(%rsp),%rsi
  10895d:	48 89 84 24 a8 00 00 	mov    %rax,0xa8(%rsp)
  108964:	00 
  108965:	48 8b 94 24 a8 00 00 	mov    0xa8(%rsp),%rdx
  10896c:	00 
  10896d:	e8 de 5b 00 00       	callq  10e550 <_ZN4core3str21_$LT$impl$u20$str$GT$3get17h899ba4b88fb3315aE>
  108972:	48 89 c7             	mov    %rax,%rdi
  108975:	48 89 d6             	mov    %rdx,%rsi
  108978:	48 8b 54 24 58       	mov    0x58(%rsp),%rdx
  10897d:	48 8b 4c 24 60       	mov    0x60(%rsp),%rcx
  108982:	e8 19 12 00 00       	callq  109ba0 <_ZN4core6option15Option$LT$T$GT$9unwrap_or17he98115044b3fc8bdE>
  108987:	48 89 54 24 78       	mov    %rdx,0x78(%rsp)
  10898c:	48 89 44 24 70       	mov    %rax,0x70(%rsp)
  108991:	eb 14                	jmp    1089a7 <_ZN4core3fmt9Formatter3pad17hbf7a458d444a2e3cE+0x167>
  108993:	48 8b 4c 24 58       	mov    0x58(%rsp),%rcx
  108998:	48 8b 44 24 60       	mov    0x60(%rsp),%rax
  10899d:	48 89 4c 24 70       	mov    %rcx,0x70(%rsp)
  1089a2:	48 89 44 24 78       	mov    %rax,0x78(%rsp)
  1089a7:	48 8b 44 24 38       	mov    0x38(%rsp),%rax
  1089ac:	48 83 38 00          	cmpq   $0x0,(%rax)
  1089b0:	75 22                	jne    1089d4 <_ZN4core3fmt9Formatter3pad17hbf7a458d444a2e3cE+0x194>
  1089b2:	48 8b 44 24 38       	mov    0x38(%rsp),%rax
  1089b7:	48 8b 78 20          	mov    0x20(%rax),%rdi
  1089bb:	48 8b 40 28          	mov    0x28(%rax),%rax
  1089bf:	48 8b 74 24 70       	mov    0x70(%rsp),%rsi
  1089c4:	48 8b 54 24 78       	mov    0x78(%rsp),%rdx
  1089c9:	ff 50 18             	callq  *0x18(%rax)
  1089cc:	24 01                	and    $0x1,%al
  1089ce:	88 44 24 6e          	mov    %al,0x6e(%rsp)
  1089d2:	eb 49                	jmp    108a1d <_ZN4core3fmt9Formatter3pad17hbf7a458d444a2e3cE+0x1dd>
  1089d4:	48 8b 44 24 38       	mov    0x38(%rsp),%rax
  1089d9:	48 8b 40 08          	mov    0x8(%rax),%rax
  1089dd:	48 89 44 24 18       	mov    %rax,0x18(%rsp)
  1089e2:	48 89 84 24 e8 00 00 	mov    %rax,0xe8(%rsp)
  1089e9:	00 
  1089ea:	48 8b 7c 24 70       	mov    0x70(%rsp),%rdi
  1089ef:	48 8b 74 24 78       	mov    0x78(%rsp),%rsi
  1089f4:	e8 c7 5b 00 00       	callq  10e5c0 <_ZN4core3str21_$LT$impl$u20$str$GT$5chars17h53006093ff9692abE>
  1089f9:	48 89 c7             	mov    %rax,%rdi
  1089fc:	48 89 d6             	mov    %rdx,%rsi
  1089ff:	e8 ec c4 ff ff       	callq  104ef0 <_ZN81_$LT$core..str..iter..Chars$u20$as$u20$core..iter..traits..iterator..Iterator$GT$5count17hc993f847aa665e2fE>
  108a04:	48 8b 4c 24 18       	mov    0x18(%rsp),%rcx
  108a09:	48 89 44 24 20       	mov    %rax,0x20(%rsp)
  108a0e:	48 89 84 24 f0 00 00 	mov    %rax,0xf0(%rsp)
  108a15:	00 
  108a16:	48 39 c8             	cmp    %rcx,%rax
  108a19:	73 3c                	jae    108a57 <_ZN4core3fmt9Formatter3pad17hbf7a458d444a2e3cE+0x217>
  108a1b:	eb 11                	jmp    108a2e <_ZN4core3fmt9Formatter3pad17hbf7a458d444a2e3cE+0x1ee>
  108a1d:	8a 44 24 6e          	mov    0x6e(%rsp),%al
  108a21:	24 01                	and    $0x1,%al
  108a23:	0f b6 c0             	movzbl %al,%eax
  108a26:	48 81 c4 08 01 00 00 	add    $0x108,%rsp
  108a2d:	c3                   	retq   
  108a2e:	48 8b 44 24 18       	mov    0x18(%rsp),%rax
  108a33:	48 8b 4c 24 20       	mov    0x20(%rsp),%rcx
  108a38:	c6 84 24 b7 00 00 00 	movb   $0x0,0xb7(%rsp)
  108a3f:	00 
  108a40:	48 89 c2             	mov    %rax,%rdx
  108a43:	48 29 ca             	sub    %rcx,%rdx
  108a46:	48 89 54 24 10       	mov    %rdx,0x10(%rsp)
  108a4b:	48 39 c8             	cmp    %rcx,%rax
  108a4e:	0f 92 c0             	setb   %al
  108a51:	a8 01                	test   $0x1,%al
  108a53:	75 75                	jne    108aca <_ZN4core3fmt9Formatter3pad17hbf7a458d444a2e3cE+0x28a>
  108a55:	eb 22                	jmp    108a79 <_ZN4core3fmt9Formatter3pad17hbf7a458d444a2e3cE+0x239>
  108a57:	48 8b 44 24 38       	mov    0x38(%rsp),%rax
  108a5c:	48 8b 78 20          	mov    0x20(%rax),%rdi
  108a60:	48 8b 40 28          	mov    0x28(%rax),%rax
  108a64:	48 8b 74 24 70       	mov    0x70(%rsp),%rsi
  108a69:	48 8b 54 24 78       	mov    0x78(%rsp),%rdx
  108a6e:	ff 50 18             	callq  *0x18(%rax)
  108a71:	24 01                	and    $0x1,%al
  108a73:	88 44 24 6e          	mov    %al,0x6e(%rsp)
  108a77:	eb a4                	jmp    108a1d <_ZN4core3fmt9Formatter3pad17hbf7a458d444a2e3cE+0x1dd>
  108a79:	48 8b 74 24 10       	mov    0x10(%rsp),%rsi
  108a7e:	48 8b 7c 24 38       	mov    0x38(%rsp),%rdi
  108a83:	0f b6 94 24 b7 00 00 	movzbl 0xb7(%rsp),%edx
  108a8a:	00 
  108a8b:	e8 10 01 00 00       	callq  108ba0 <_ZN4core3fmt9Formatter7padding17hd141a6815d9fb6f5E>
  108a90:	48 89 c7             	mov    %rax,%rdi
  108a93:	89 d6                	mov    %edx,%esi
  108a95:	e8 c6 31 00 00       	callq  10bc60 <_ZN79_$LT$core..result..Result$LT$T$C$E$GT$$u20$as$u20$core..ops..try_trait..Try$GT$6branch17h10836ab6199822a1E>
  108a9a:	89 94 24 c0 00 00 00 	mov    %edx,0xc0(%rsp)
  108aa1:	48 89 84 24 b8 00 00 	mov    %rax,0xb8(%rsp)
  108aa8:	00 
  108aa9:	31 c0                	xor    %eax,%eax
  108aab:	b9 01 00 00 00       	mov    $0x1,%ecx
  108ab0:	81 bc 24 c0 00 00 00 	cmpl   $0x110000,0xc0(%rsp)
  108ab7:	00 00 11 00 
  108abb:	48 0f 44 c1          	cmove  %rcx,%rax
  108abf:	48 83 f8 00          	cmp    $0x0,%rax
  108ac3:	74 1f                	je     108ae4 <_ZN4core3fmt9Formatter3pad17hbf7a458d444a2e3cE+0x2a4>
  108ac5:	e9 82 00 00 00       	jmpq   108b4c <_ZN4core3fmt9Formatter3pad17hbf7a458d444a2e3cE+0x30c>
  108aca:	48 8d 3d df 81 ff ff 	lea    -0x7e21(%rip),%rdi        # 100cb0 <str.0>
  108ad1:	48 8d 15 10 95 00 00 	lea    0x9510(%rip),%rdx        # 111fe8 <_ZN4core3fmt2rt12USIZE_MARKER17h1b31419084dfd5e3E+0x5f0>
  108ad8:	be 21 00 00 00       	mov    $0x21,%esi
  108add:	e8 4e c9 ff ff       	callq  105430 <_ZN4core9panicking5panic17h4e18ef80ec7677b0E>
  108ae2:	0f 0b                	ud2    
  108ae4:	48 8b 44 24 38       	mov    0x38(%rsp),%rax
  108ae9:	48 8b 94 24 b8 00 00 	mov    0xb8(%rsp),%rdx
  108af0:	00 
  108af1:	48 89 14 24          	mov    %rdx,(%rsp)
  108af5:	8b 8c 24 c0 00 00 00 	mov    0xc0(%rsp),%ecx
  108afc:	89 4c 24 0c          	mov    %ecx,0xc(%rsp)
  108b00:	48 89 94 24 f8 00 00 	mov    %rdx,0xf8(%rsp)
  108b07:	00 
  108b08:	89 8c 24 00 01 00 00 	mov    %ecx,0x100(%rsp)
  108b0f:	48 8b 78 20          	mov    0x20(%rax),%rdi
  108b13:	48 8b 40 28          	mov    0x28(%rax),%rax
  108b17:	48 8b 74 24 70       	mov    0x70(%rsp),%rsi
  108b1c:	48 8b 54 24 78       	mov    0x78(%rsp),%rdx
  108b21:	ff 50 18             	callq  *0x18(%rax)
  108b24:	0f b6 f8             	movzbl %al,%edi
  108b27:	83 e7 01             	and    $0x1,%edi
  108b2a:	e8 91 31 00 00       	callq  10bcc0 <_ZN79_$LT$core..result..Result$LT$T$C$E$GT$$u20$as$u20$core..ops..try_trait..Try$GT$6branch17h2454c12ae4d7f827E>
  108b2f:	24 01                	and    $0x1,%al
  108b31:	88 84 24 cf 00 00 00 	mov    %al,0xcf(%rsp)
  108b38:	8a 84 24 cf 00 00 00 	mov    0xcf(%rsp),%al
  108b3f:	24 01                	and    $0x1,%al
  108b41:	0f b6 c0             	movzbl %al,%eax
  108b44:	48 83 f8 00          	cmp    $0x0,%rax
  108b48:	74 19                	je     108b63 <_ZN4core3fmt9Formatter3pad17hbf7a458d444a2e3cE+0x323>
  108b4a:	eb 34                	jmp    108b80 <_ZN4core3fmt9Formatter3pad17hbf7a458d444a2e3cE+0x340>
  108b4c:	48 8d 3d c5 94 00 00 	lea    0x94c5(%rip),%rdi        # 112018 <_ZN4core3fmt2rt12USIZE_MARKER17h1b31419084dfd5e3E+0x620>
  108b53:	e8 c8 31 00 00       	callq  10bd20 <_ZN153_$LT$core..result..Result$LT$T$C$F$GT$$u20$as$u20$core..ops..try_trait..FromResidual$LT$core..result..Result$LT$core..convert..Infallible$C$E$GT$$GT$$GT$13from_residual17hdab11aac15fb79f2E>
  108b58:	24 01                	and    $0x1,%al
  108b5a:	88 44 24 6e          	mov    %al,0x6e(%rsp)
  108b5e:	e9 ba fe ff ff       	jmpq   108a1d <_ZN4core3fmt9Formatter3pad17hbf7a458d444a2e3cE+0x1dd>
  108b63:	48 8b 54 24 38       	mov    0x38(%rsp),%rdx
  108b68:	8b 74 24 0c          	mov    0xc(%rsp),%esi
  108b6c:	48 8b 3c 24          	mov    (%rsp),%rdi
  108b70:	e8 ab f2 ff ff       	callq  107e20 <_ZN4core3fmt11PostPadding5write17h93d920752f24e9c4E>
  108b75:	24 01                	and    $0x1,%al
  108b77:	88 44 24 6e          	mov    %al,0x6e(%rsp)
  108b7b:	e9 9d fe ff ff       	jmpq   108a1d <_ZN4core3fmt9Formatter3pad17hbf7a458d444a2e3cE+0x1dd>
  108b80:	48 8d 3d 79 94 00 00 	lea    0x9479(%rip),%rdi        # 112000 <_ZN4core3fmt2rt12USIZE_MARKER17h1b31419084dfd5e3E+0x608>
  108b87:	e8 94 31 00 00       	callq  10bd20 <_ZN153_$LT$core..result..Result$LT$T$C$F$GT$$u20$as$u20$core..ops..try_trait..FromResidual$LT$core..result..Result$LT$core..convert..Infallible$C$E$GT$$GT$$GT$13from_residual17hdab11aac15fb79f2E>
  108b8c:	24 01                	and    $0x1,%al
  108b8e:	88 44 24 6e          	mov    %al,0x6e(%rsp)
  108b92:	e9 86 fe ff ff       	jmpq   108a1d <_ZN4core3fmt9Formatter3pad17hbf7a458d444a2e3cE+0x1dd>
  108b97:	cc                   	int3   
  108b98:	cc                   	int3   
  108b99:	cc                   	int3   
  108b9a:	cc                   	int3   
  108b9b:	cc                   	int3   
  108b9c:	cc                   	int3   
  108b9d:	cc                   	int3   
  108b9e:	cc                   	int3   
  108b9f:	cc                   	int3   

0000000000108ba0 <_ZN4core3fmt9Formatter7padding17hd141a6815d9fb6f5E>:
  108ba0:	48 81 ec d8 00 00 00 	sub    $0xd8,%rsp
  108ba7:	48 89 74 24 20       	mov    %rsi,0x20(%rsp)
  108bac:	48 89 7c 24 28       	mov    %rdi,0x28(%rsp)
  108bb1:	88 d0                	mov    %dl,%al
  108bb3:	88 44 24 37          	mov    %al,0x37(%rsp)
  108bb7:	48 89 bc 24 b0 00 00 	mov    %rdi,0xb0(%rsp)
  108bbe:	00 
  108bbf:	48 89 b4 24 b8 00 00 	mov    %rsi,0xb8(%rsp)
  108bc6:	00 
  108bc7:	88 84 24 c7 00 00 00 	mov    %al,0xc7(%rsp)
  108bce:	0f b6 47 38          	movzbl 0x38(%rdi),%eax
  108bd2:	48 89 44 24 38       	mov    %rax,0x38(%rsp)
  108bd7:	48 8b 44 24 38       	mov    0x38(%rsp),%rax
  108bdc:	48 8d 0d b1 80 ff ff 	lea    -0x7f4f(%rip),%rcx        # 100c94 <str.0+0x24>
  108be3:	48 63 04 81          	movslq (%rcx,%rax,4),%rax
  108be7:	48 01 c8             	add    %rcx,%rax
  108bea:	ff e0                	jmpq   *%rax
  108bec:	0f 0b                	ud2    
  108bee:	c6 44 24 67 00       	movb   $0x0,0x67(%rsp)
  108bf3:	eb 16                	jmp    108c0b <_ZN4core3fmt9Formatter7padding17hd141a6815d9fb6f5E+0x6b>
  108bf5:	c6 44 24 67 01       	movb   $0x1,0x67(%rsp)
  108bfa:	eb 0f                	jmp    108c0b <_ZN4core3fmt9Formatter7padding17hd141a6815d9fb6f5E+0x6b>
  108bfc:	c6 44 24 67 02       	movb   $0x2,0x67(%rsp)
  108c01:	eb 08                	jmp    108c0b <_ZN4core3fmt9Formatter7padding17hd141a6815d9fb6f5E+0x6b>
  108c03:	8a 44 24 37          	mov    0x37(%rsp),%al
  108c07:	88 44 24 67          	mov    %al,0x67(%rsp)
  108c0b:	0f b6 44 24 67       	movzbl 0x67(%rsp),%eax
  108c10:	48 89 44 24 18       	mov    %rax,0x18(%rsp)
  108c15:	48 85 c0             	test   %rax,%rax
  108c18:	74 11                	je     108c2b <_ZN4core3fmt9Formatter7padding17hd141a6815d9fb6f5E+0x8b>
  108c1a:	eb 00                	jmp    108c1c <_ZN4core3fmt9Formatter7padding17hd141a6815d9fb6f5E+0x7c>
  108c1c:	48 8b 44 24 18       	mov    0x18(%rsp),%rax
  108c21:	48 83 e8 01          	sub    $0x1,%rax
  108c25:	74 19                	je     108c40 <_ZN4core3fmt9Formatter7padding17hd141a6815d9fb6f5E+0xa0>
  108c27:	eb 00                	jmp    108c29 <_ZN4core3fmt9Formatter7padding17hd141a6815d9fb6f5E+0x89>
  108c29:	eb 2a                	jmp    108c55 <_ZN4core3fmt9Formatter7padding17hd141a6815d9fb6f5E+0xb5>
  108c2b:	48 8b 44 24 20       	mov    0x20(%rsp),%rax
  108c30:	48 c7 44 24 68 00 00 	movq   $0x0,0x68(%rsp)
  108c37:	00 00 
  108c39:	48 89 44 24 70       	mov    %rax,0x70(%rsp)
  108c3e:	eb 38                	jmp    108c78 <_ZN4core3fmt9Formatter7padding17hd141a6815d9fb6f5E+0xd8>
  108c40:	48 8b 44 24 20       	mov    0x20(%rsp),%rax
  108c45:	48 89 44 24 68       	mov    %rax,0x68(%rsp)
  108c4a:	48 c7 44 24 70 00 00 	movq   $0x0,0x70(%rsp)
  108c51:	00 00 
  108c53:	eb 23                	jmp    108c78 <_ZN4core3fmt9Formatter7padding17hd141a6815d9fb6f5E+0xd8>
  108c55:	48 8b 44 24 20       	mov    0x20(%rsp),%rax
  108c5a:	48 89 c1             	mov    %rax,%rcx
  108c5d:	48 c1 e9 01          	shr    $0x1,%rcx
  108c61:	48 89 4c 24 08       	mov    %rcx,0x8(%rsp)
  108c66:	48 83 c0 01          	add    $0x1,%rax
  108c6a:	48 89 44 24 10       	mov    %rax,0x10(%rsp)
  108c6f:	0f 92 c0             	setb   %al
  108c72:	a8 01                	test   $0x1,%al
  108c74:	75 6f                	jne    108ce5 <_ZN4core3fmt9Formatter7padding17hd141a6815d9fb6f5E+0x145>
  108c76:	eb 53                	jmp    108ccb <_ZN4core3fmt9Formatter7padding17hd141a6815d9fb6f5E+0x12b>
  108c78:	48 8b 44 24 68       	mov    0x68(%rsp),%rax
  108c7d:	48 89 84 24 c8 00 00 	mov    %rax,0xc8(%rsp)
  108c84:	00 
  108c85:	48 8b 4c 24 70       	mov    0x70(%rsp),%rcx
  108c8a:	48 89 0c 24          	mov    %rcx,(%rsp)
  108c8e:	48 89 8c 24 d0 00 00 	mov    %rcx,0xd0(%rsp)
  108c95:	00 
  108c96:	48 c7 44 24 78 00 00 	movq   $0x0,0x78(%rsp)
  108c9d:	00 00 
  108c9f:	48 89 84 24 80 00 00 	mov    %rax,0x80(%rsp)
  108ca6:	00 
  108ca7:	48 8b 7c 24 78       	mov    0x78(%rsp),%rdi
  108cac:	48 8b b4 24 80 00 00 	mov    0x80(%rsp),%rsi
  108cb3:	00 
  108cb4:	e8 57 41 00 00       	callq  10ce10 <_ZN63_$LT$I$u20$as$u20$core..iter..traits..collect..IntoIterator$GT$9into_iter17h3e6eed25d9a5d22cE>
  108cb9:	48 89 84 24 88 00 00 	mov    %rax,0x88(%rsp)
  108cc0:	00 
  108cc1:	48 89 94 24 90 00 00 	mov    %rdx,0x90(%rsp)
  108cc8:	00 
  108cc9:	eb 34                	jmp    108cff <_ZN4core3fmt9Formatter7padding17hd141a6815d9fb6f5E+0x15f>
  108ccb:	48 8b 4c 24 08       	mov    0x8(%rsp),%rcx
  108cd0:	48 8b 44 24 10       	mov    0x10(%rsp),%rax
  108cd5:	48 c1 e8 01          	shr    $0x1,%rax
  108cd9:	48 89 4c 24 68       	mov    %rcx,0x68(%rsp)
  108cde:	48 89 44 24 70       	mov    %rax,0x70(%rsp)
  108ce3:	eb 93                	jmp    108c78 <_ZN4core3fmt9Formatter7padding17hd141a6815d9fb6f5E+0xd8>
  108ce5:	48 8d 3d f4 80 ff ff 	lea    -0x7f0c(%rip),%rdi        # 100de0 <str.1>
  108cec:	48 8d 15 3d 93 00 00 	lea    0x933d(%rip),%rdx        # 112030 <_ZN4core3fmt2rt12USIZE_MARKER17h1b31419084dfd5e3E+0x638>
  108cf3:	be 1c 00 00 00       	mov    $0x1c,%esi
  108cf8:	e8 33 c7 ff ff       	callq  105430 <_ZN4core9panicking5panic17h4e18ef80ec7677b0E>
  108cfd:	0f 0b                	ud2    
  108cff:	48 8d bc 24 88 00 00 	lea    0x88(%rsp),%rdi
  108d06:	00 
  108d07:	e8 f4 40 00 00       	callq  10ce00 <_ZN4core4iter5range101_$LT$impl$u20$core..iter..traits..iterator..Iterator$u20$for$u20$core..ops..range..Range$LT$A$GT$$GT$4next17h1e143a2b9ee3d11bE>
  108d0c:	48 89 94 24 a0 00 00 	mov    %rdx,0xa0(%rsp)
  108d13:	00 
  108d14:	48 89 84 24 98 00 00 	mov    %rax,0x98(%rsp)
  108d1b:	00 
  108d1c:	48 83 bc 24 98 00 00 	cmpq   $0x0,0x98(%rsp)
  108d23:	00 00 
  108d25:	75 1c                	jne    108d43 <_ZN4core3fmt9Formatter7padding17hd141a6815d9fb6f5E+0x1a3>
  108d27:	48 8b 34 24          	mov    (%rsp),%rsi
  108d2b:	48 8b 44 24 28       	mov    0x28(%rsp),%rax
  108d30:	8b 78 30             	mov    0x30(%rax),%edi
  108d33:	e8 b8 f0 ff ff       	callq  107df0 <_ZN4core3fmt11PostPadding3new17h043ebf22d708b8ccE>
  108d38:	48 89 44 24 50       	mov    %rax,0x50(%rsp)
  108d3d:	89 54 24 58          	mov    %edx,0x58(%rsp)
  108d41:	eb 3b                	jmp    108d7e <_ZN4core3fmt9Formatter7padding17hd141a6815d9fb6f5E+0x1de>
  108d43:	48 8b 4c 24 28       	mov    0x28(%rsp),%rcx
  108d48:	48 8b 79 20          	mov    0x20(%rcx),%rdi
  108d4c:	48 8b 41 28          	mov    0x28(%rcx),%rax
  108d50:	8b 71 30             	mov    0x30(%rcx),%esi
  108d53:	ff 50 20             	callq  *0x20(%rax)
  108d56:	0f b6 f8             	movzbl %al,%edi
  108d59:	83 e7 01             	and    $0x1,%edi
  108d5c:	e8 5f 2f 00 00       	callq  10bcc0 <_ZN79_$LT$core..result..Result$LT$T$C$E$GT$$u20$as$u20$core..ops..try_trait..Try$GT$6branch17h2454c12ae4d7f827E>
  108d61:	24 01                	and    $0x1,%al
  108d63:	88 84 24 af 00 00 00 	mov    %al,0xaf(%rsp)
  108d6a:	8a 84 24 af 00 00 00 	mov    0xaf(%rsp),%al
  108d71:	24 01                	and    $0x1,%al
  108d73:	0f b6 c0             	movzbl %al,%eax
  108d76:	48 83 f8 00          	cmp    $0x0,%rax
  108d7a:	74 83                	je     108cff <_ZN4core3fmt9Formatter7padding17hd141a6815d9fb6f5E+0x15f>
  108d7c:	eb 11                	jmp    108d8f <_ZN4core3fmt9Formatter7padding17hd141a6815d9fb6f5E+0x1ef>
  108d7e:	48 8b 44 24 50       	mov    0x50(%rsp),%rax
  108d83:	8b 54 24 58          	mov    0x58(%rsp),%edx
  108d87:	48 81 c4 d8 00 00 00 	add    $0xd8,%rsp
  108d8e:	c3                   	retq   
  108d8f:	48 8d 3d b2 92 00 00 	lea    0x92b2(%rip),%rdi        # 112048 <_ZN4core3fmt2rt12USIZE_MARKER17h1b31419084dfd5e3E+0x650>
  108d96:	e8 65 2f 00 00       	callq  10bd00 <_ZN153_$LT$core..result..Result$LT$T$C$F$GT$$u20$as$u20$core..ops..try_trait..FromResidual$LT$core..result..Result$LT$core..convert..Infallible$C$E$GT$$GT$$GT$13from_residual17h779f95138be469eaE>
  108d9b:	89 54 24 58          	mov    %edx,0x58(%rsp)
  108d9f:	48 89 44 24 50       	mov    %rax,0x50(%rsp)
  108da4:	eb d8                	jmp    108d7e <_ZN4core3fmt9Formatter7padding17hd141a6815d9fb6f5E+0x1de>
  108da6:	cc                   	int3   
  108da7:	cc                   	int3   
  108da8:	cc                   	int3   
  108da9:	cc                   	int3   
  108daa:	cc                   	int3   
  108dab:	cc                   	int3   
  108dac:	cc                   	int3   
  108dad:	cc                   	int3   
  108dae:	cc                   	int3   
  108daf:	cc                   	int3   

0000000000108db0 <_ZN4core3fmt9Formatter9write_str17hcc9b1929ead6057fE>:
  108db0:	48 83 ec 18          	sub    $0x18,%rsp
  108db4:	48 89 f8             	mov    %rdi,%rax
  108db7:	48 89 04 24          	mov    %rax,(%rsp)
  108dbb:	48 89 74 24 08       	mov    %rsi,0x8(%rsp)
  108dc0:	48 89 54 24 10       	mov    %rdx,0x10(%rsp)
  108dc5:	48 8b 78 20          	mov    0x20(%rax),%rdi
  108dc9:	48 8b 40 28          	mov    0x28(%rax),%rax
  108dcd:	ff 50 18             	callq  *0x18(%rax)
  108dd0:	24 01                	and    $0x1,%al
  108dd2:	0f b6 c0             	movzbl %al,%eax
  108dd5:	48 83 c4 18          	add    $0x18,%rsp
  108dd9:	c3                   	retq   
  108dda:	cc                   	int3   
  108ddb:	cc                   	int3   
  108ddc:	cc                   	int3   
  108ddd:	cc                   	int3   
  108dde:	cc                   	int3   
  108ddf:	cc                   	int3   

0000000000108de0 <_ZN4core3fmt9Formatter9sign_plus17he6916cfe560887a9E>:
  108de0:	50                   	push   %rax
  108de1:	48 89 3c 24          	mov    %rdi,(%rsp)
  108de5:	8b 47 34             	mov    0x34(%rdi),%eax
  108de8:	83 e0 01             	and    $0x1,%eax
  108deb:	83 f8 00             	cmp    $0x0,%eax
  108dee:	0f 95 c0             	setne  %al
  108df1:	24 01                	and    $0x1,%al
  108df3:	0f b6 c0             	movzbl %al,%eax
  108df6:	59                   	pop    %rcx
  108df7:	c3                   	retq   
  108df8:	cc                   	int3   
  108df9:	cc                   	int3   
  108dfa:	cc                   	int3   
  108dfb:	cc                   	int3   
  108dfc:	cc                   	int3   
  108dfd:	cc                   	int3   
  108dfe:	cc                   	int3   
  108dff:	cc                   	int3   

0000000000108e00 <_ZN4core3fmt9Formatter9alternate17h0c0280c0abf3b3a0E>:
  108e00:	50                   	push   %rax
  108e01:	48 89 3c 24          	mov    %rdi,(%rsp)
  108e05:	8b 47 34             	mov    0x34(%rdi),%eax
  108e08:	83 e0 04             	and    $0x4,%eax
  108e0b:	83 f8 00             	cmp    $0x0,%eax
  108e0e:	0f 95 c0             	setne  %al
  108e11:	24 01                	and    $0x1,%al
  108e13:	0f b6 c0             	movzbl %al,%eax
  108e16:	59                   	pop    %rcx
  108e17:	c3                   	retq   
  108e18:	cc                   	int3   
  108e19:	cc                   	int3   
  108e1a:	cc                   	int3   
  108e1b:	cc                   	int3   
  108e1c:	cc                   	int3   
  108e1d:	cc                   	int3   
  108e1e:	cc                   	int3   
  108e1f:	cc                   	int3   

0000000000108e20 <_ZN4core3fmt9Formatter19sign_aware_zero_pad17h69212a91da92a8beE>:
  108e20:	50                   	push   %rax
  108e21:	48 89 3c 24          	mov    %rdi,(%rsp)
  108e25:	8b 47 34             	mov    0x34(%rdi),%eax
  108e28:	83 e0 08             	and    $0x8,%eax
  108e2b:	83 f8 00             	cmp    $0x0,%eax
  108e2e:	0f 95 c0             	setne  %al
  108e31:	24 01                	and    $0x1,%al
  108e33:	0f b6 c0             	movzbl %al,%eax
  108e36:	59                   	pop    %rcx
  108e37:	c3                   	retq   
  108e38:	cc                   	int3   
  108e39:	cc                   	int3   
  108e3a:	cc                   	int3   
  108e3b:	cc                   	int3   
  108e3c:	cc                   	int3   
  108e3d:	cc                   	int3   
  108e3e:	cc                   	int3   
  108e3f:	cc                   	int3   

0000000000108e40 <_ZN4core3fmt9Formatter25debug_tuple_field1_finish17h7cfe2f213a700728E>:
  108e40:	48 83 ec 58          	sub    $0x58,%rsp
  108e44:	4c 89 44 24 10       	mov    %r8,0x10(%rsp)
  108e49:	48 89 c8             	mov    %rcx,%rax
  108e4c:	48 89 44 24 08       	mov    %rax,0x8(%rsp)
  108e51:	48 89 d1             	mov    %rdx,%rcx
  108e54:	48 89 f2             	mov    %rsi,%rdx
  108e57:	48 89 fe             	mov    %rdi,%rsi
  108e5a:	48 89 74 24 30       	mov    %rsi,0x30(%rsp)
  108e5f:	48 89 54 24 38       	mov    %rdx,0x38(%rsp)
  108e64:	48 89 4c 24 40       	mov    %rcx,0x40(%rsp)
  108e69:	48 89 44 24 48       	mov    %rax,0x48(%rsp)
  108e6e:	4c 89 44 24 50       	mov    %r8,0x50(%rsp)
  108e73:	48 8d 7c 24 18       	lea    0x18(%rsp),%rdi
  108e78:	e8 03 de ff ff       	callq  106c80 <_ZN4core3fmt8builders15debug_tuple_new17h879a4f5faf5f372cE>
  108e7d:	48 8b 74 24 08       	mov    0x8(%rsp),%rsi
  108e82:	48 8b 54 24 10       	mov    0x10(%rsp),%rdx
  108e87:	48 8d 7c 24 18       	lea    0x18(%rsp),%rdi
  108e8c:	e8 8f de ff ff       	callq  106d20 <_ZN4core3fmt8builders10DebugTuple5field17h4336235e018342ccE>
  108e91:	48 8d 7c 24 18       	lea    0x18(%rsp),%rdi
  108e96:	e8 15 e1 ff ff       	callq  106fb0 <_ZN4core3fmt8builders10DebugTuple6finish17hbce62a86a896b0b9E>
  108e9b:	24 01                	and    $0x1,%al
  108e9d:	0f b6 c0             	movzbl %al,%eax
  108ea0:	48 83 c4 58          	add    $0x58,%rsp
  108ea4:	c3                   	retq   
  108ea5:	cc                   	int3   
  108ea6:	cc                   	int3   
  108ea7:	cc                   	int3   
  108ea8:	cc                   	int3   
  108ea9:	cc                   	int3   
  108eaa:	cc                   	int3   
  108eab:	cc                   	int3   
  108eac:	cc                   	int3   
  108ead:	cc                   	int3   
  108eae:	cc                   	int3   
  108eaf:	cc                   	int3   

0000000000108eb0 <_ZN42_$LT$str$u20$as$u20$core..fmt..Display$GT$3fmt17h96d5546e09ba9805E>:
  108eb0:	48 83 ec 28          	sub    $0x28,%rsp
  108eb4:	48 89 54 24 08       	mov    %rdx,0x8(%rsp)
  108eb9:	48 89 f2             	mov    %rsi,%rdx
  108ebc:	48 89 fe             	mov    %rdi,%rsi
  108ebf:	48 8b 7c 24 08       	mov    0x8(%rsp),%rdi
  108ec4:	48 89 74 24 10       	mov    %rsi,0x10(%rsp)
  108ec9:	48 89 54 24 18       	mov    %rdx,0x18(%rsp)
  108ece:	48 89 7c 24 20       	mov    %rdi,0x20(%rsp)
  108ed3:	e8 68 f9 ff ff       	callq  108840 <_ZN4core3fmt9Formatter3pad17hbf7a458d444a2e3cE>
  108ed8:	24 01                	and    $0x1,%al
  108eda:	0f b6 c0             	movzbl %al,%eax
  108edd:	48 83 c4 28          	add    $0x28,%rsp
  108ee1:	c3                   	retq   
  108ee2:	cc                   	int3   
  108ee3:	cc                   	int3   
  108ee4:	cc                   	int3   
  108ee5:	cc                   	int3   
  108ee6:	cc                   	int3   
  108ee7:	cc                   	int3   
  108ee8:	cc                   	int3   
  108ee9:	cc                   	int3   
  108eea:	cc                   	int3   
  108eeb:	cc                   	int3   
  108eec:	cc                   	int3   
  108eed:	cc                   	int3   
  108eee:	cc                   	int3   
  108eef:	cc                   	int3   

0000000000108ef0 <_ZN45_$LT$$LP$$RP$$u20$as$u20$core..fmt..Debug$GT$3fmt17h55986772c555ed37E>:
  108ef0:	48 83 ec 18          	sub    $0x18,%rsp
  108ef4:	48 89 34 24          	mov    %rsi,(%rsp)
  108ef8:	48 89 f8             	mov    %rdi,%rax
  108efb:	48 8b 3c 24          	mov    (%rsp),%rdi
  108eff:	48 89 44 24 08       	mov    %rax,0x8(%rsp)
  108f04:	48 89 7c 24 10       	mov    %rdi,0x10(%rsp)
  108f09:	48 8d 35 17 7f ff ff 	lea    -0x80e9(%rip),%rsi        # 100e27 <str.1+0x47>
  108f10:	ba 02 00 00 00       	mov    $0x2,%edx
  108f15:	e8 26 f9 ff ff       	callq  108840 <_ZN4core3fmt9Formatter3pad17hbf7a458d444a2e3cE>
  108f1a:	24 01                	and    $0x1,%al
  108f1c:	0f b6 c0             	movzbl %al,%eax
  108f1f:	48 83 c4 18          	add    $0x18,%rsp
  108f23:	c3                   	retq   
  108f24:	cc                   	int3   
  108f25:	cc                   	int3   
  108f26:	cc                   	int3   
  108f27:	cc                   	int3   
  108f28:	cc                   	int3   
  108f29:	cc                   	int3   
  108f2a:	cc                   	int3   
  108f2b:	cc                   	int3   
  108f2c:	cc                   	int3   
  108f2d:	cc                   	int3   
  108f2e:	cc                   	int3   
  108f2f:	cc                   	int3   

0000000000108f30 <_ZN4core5slice5index74_$LT$impl$u20$core..ops..index..Index$LT$I$GT$$u20$for$u20$$u5b$T$u5d$$GT$5index17h48d845ed7b7a358fE>:
  108f30:	48 83 ec 28          	sub    $0x28,%rsp
  108f34:	48 89 54 24 08       	mov    %rdx,0x8(%rsp)
  108f39:	48 89 f2             	mov    %rsi,%rdx
  108f3c:	48 89 fe             	mov    %rdi,%rsi
  108f3f:	48 8b 7c 24 08       	mov    0x8(%rsp),%rdi
  108f44:	48 89 74 24 10       	mov    %rsi,0x10(%rsp)
  108f49:	48 89 54 24 18       	mov    %rdx,0x18(%rsp)
  108f4e:	48 89 7c 24 20       	mov    %rdi,0x20(%rsp)
  108f53:	e8 58 46 00 00       	callq  10d5b0 <_ZN110_$LT$core..ops..range..RangeFrom$LT$usize$GT$$u20$as$u20$core..slice..index..SliceIndex$LT$$u5b$T$u5d$$GT$$GT$5index17h69c257c2be443331E>
  108f58:	48 83 c4 28          	add    $0x28,%rsp
  108f5c:	c3                   	retq   
  108f5d:	cc                   	int3   
  108f5e:	cc                   	int3   
  108f5f:	cc                   	int3   

0000000000108f60 <_ZN4core5slice5index74_$LT$impl$u20$core..ops..index..Index$LT$I$GT$$u20$for$u20$$u5b$T$u5d$$GT$5index17hb2e1033ffd049f25E>:
  108f60:	48 83 ec 38          	sub    $0x38,%rsp
  108f64:	48 89 4c 24 08       	mov    %rcx,0x8(%rsp)
  108f69:	48 89 54 24 10       	mov    %rdx,0x10(%rsp)
  108f6e:	48 89 f1             	mov    %rsi,%rcx
  108f71:	48 8b 74 24 08       	mov    0x8(%rsp),%rsi
  108f76:	48 89 fa             	mov    %rdi,%rdx
  108f79:	48 8b 7c 24 10       	mov    0x10(%rsp),%rdi
  108f7e:	48 89 54 24 18       	mov    %rdx,0x18(%rsp)
  108f83:	48 89 4c 24 20       	mov    %rcx,0x20(%rsp)
  108f88:	48 89 7c 24 28       	mov    %rdi,0x28(%rsp)
  108f8d:	48 89 74 24 30       	mov    %rsi,0x30(%rsp)
  108f92:	e8 79 43 00 00       	callq  10d310 <_ZN106_$LT$core..ops..range..Range$LT$usize$GT$$u20$as$u20$core..slice..index..SliceIndex$LT$$u5b$T$u5d$$GT$$GT$5index17hfa1efe9110b7c12bE>
  108f97:	48 83 c4 38          	add    $0x38,%rsp
  108f9b:	c3                   	retq   
  108f9c:	cc                   	int3   
  108f9d:	cc                   	int3   
  108f9e:	cc                   	int3   
  108f9f:	cc                   	int3   

0000000000108fa0 <_ZN4core5slice5index77_$LT$impl$u20$core..ops..index..IndexMut$LT$I$GT$$u20$for$u20$$u5b$T$u5d$$GT$9index_mut17h3df99aacf5d85e73E>:
  108fa0:	48 83 ec 28          	sub    $0x28,%rsp
  108fa4:	48 89 54 24 08       	mov    %rdx,0x8(%rsp)
  108fa9:	48 89 f2             	mov    %rsi,%rdx
  108fac:	48 89 fe             	mov    %rdi,%rsi
  108faf:	48 8b 7c 24 08       	mov    0x8(%rsp),%rdi
  108fb4:	48 89 74 24 10       	mov    %rsi,0x10(%rsp)
  108fb9:	48 89 54 24 18       	mov    %rdx,0x18(%rsp)
  108fbe:	48 89 7c 24 20       	mov    %rdi,0x20(%rsp)
  108fc3:	e8 68 44 00 00       	callq  10d430 <_ZN108_$LT$core..ops..range..RangeTo$LT$usize$GT$$u20$as$u20$core..slice..index..SliceIndex$LT$$u5b$T$u5d$$GT$$GT$9index_mut17h4479a0204ae328caE>
  108fc8:	48 83 c4 28          	add    $0x28,%rsp
  108fcc:	c3                   	retq   
  108fcd:	cc                   	int3   
  108fce:	cc                   	int3   
  108fcf:	cc                   	int3   

0000000000108fd0 <_ZN4core5slice5index77_$LT$impl$u20$core..ops..index..IndexMut$LT$I$GT$$u20$for$u20$$u5b$T$u5d$$GT$9index_mut17h5584393f5494c413E>:
  108fd0:	48 83 ec 18          	sub    $0x18,%rsp
  108fd4:	48 89 3c 24          	mov    %rdi,(%rsp)
  108fd8:	48 89 74 24 08       	mov    %rsi,0x8(%rsp)
  108fdd:	e8 2e 46 00 00       	callq  10d610 <_ZN97_$LT$core..ops..range..RangeFull$u20$as$u20$core..slice..index..SliceIndex$LT$$u5b$T$u5d$$GT$$GT$9index_mut17h1d6296a9abf6fae6E>
  108fe2:	48 83 c4 18          	add    $0x18,%rsp
  108fe6:	c3                   	retq   
  108fe7:	cc                   	int3   
  108fe8:	cc                   	int3   
  108fe9:	cc                   	int3   
  108fea:	cc                   	int3   
  108feb:	cc                   	int3   
  108fec:	cc                   	int3   
  108fed:	cc                   	int3   
  108fee:	cc                   	int3   
  108fef:	cc                   	int3   

0000000000108ff0 <_ZN4core5slice5index26slice_start_index_len_fail17hd0e8f5ae1e1fbd13E>:
  108ff0:	48 83 ec 28          	sub    $0x28,%rsp
  108ff4:	48 89 7c 24 18       	mov    %rdi,0x18(%rsp)
  108ff9:	48 89 74 24 20       	mov    %rsi,0x20(%rsp)
  108ffe:	48 89 7c 24 08       	mov    %rdi,0x8(%rsp)
  109003:	48 89 74 24 10       	mov    %rsi,0x10(%rsp)
  109008:	48 8b 7c 24 08       	mov    0x8(%rsp),%rdi
  10900d:	48 8b 74 24 10       	mov    0x10(%rsp),%rsi
  109012:	e8 09 00 00 00       	callq  109020 <_ZN4core5slice5index29slice_start_index_len_fail_rt17h3c01f3c8a49e19a5E>
  109017:	0f 0b                	ud2    
  109019:	cc                   	int3   
  10901a:	cc                   	int3   
  10901b:	cc                   	int3   
  10901c:	cc                   	int3   
  10901d:	cc                   	int3   
  10901e:	cc                   	int3   
  10901f:	cc                   	int3   

0000000000109020 <_ZN4core5slice5index29slice_start_index_len_fail_rt17h3c01f3c8a49e19a5E>:
  109020:	48 81 ec c8 00 00 00 	sub    $0xc8,%rsp
  109027:	48 89 54 24 10       	mov    %rdx,0x10(%rsp)
  10902c:	48 89 7c 24 18       	mov    %rdi,0x18(%rsp)
  109031:	48 89 74 24 20       	mov    %rsi,0x20(%rsp)
  109036:	48 8d 4c 24 18       	lea    0x18(%rsp),%rcx
  10903b:	48 89 8c 24 a0 00 00 	mov    %rcx,0xa0(%rsp)
  109042:	00 
  109043:	48 89 8c 24 b8 00 00 	mov    %rcx,0xb8(%rsp)
  10904a:	00 
  10904b:	48 8b 05 4e 95 00 00 	mov    0x954e(%rip),%rax        # 1125a0 <_ZN4core3fmt2rt12USIZE_MARKER17h1b31419084dfd5e3E+0xba8>
  109052:	48 89 84 24 c0 00 00 	mov    %rax,0xc0(%rsp)
  109059:	00 
  10905a:	48 89 8c 24 a8 00 00 	mov    %rcx,0xa8(%rsp)
  109061:	00 
  109062:	48 89 84 24 b0 00 00 	mov    %rax,0xb0(%rsp)
  109069:	00 
  10906a:	48 8b b4 24 a8 00 00 	mov    0xa8(%rsp),%rsi
  109071:	00 
  109072:	48 8b 94 24 b0 00 00 	mov    0xb0(%rsp),%rdx
  109079:	00 
  10907a:	48 8d 4c 24 20       	lea    0x20(%rsp),%rcx
  10907f:	48 89 4c 24 78       	mov    %rcx,0x78(%rsp)
  109084:	48 89 8c 24 90 00 00 	mov    %rcx,0x90(%rsp)
  10908b:	00 
  10908c:	48 89 84 24 98 00 00 	mov    %rax,0x98(%rsp)
  109093:	00 
  109094:	48 89 8c 24 80 00 00 	mov    %rcx,0x80(%rsp)
  10909b:	00 
  10909c:	48 89 84 24 88 00 00 	mov    %rax,0x88(%rsp)
  1090a3:	00 
  1090a4:	48 8b 8c 24 80 00 00 	mov    0x80(%rsp),%rcx
  1090ab:	00 
  1090ac:	48 8b 84 24 88 00 00 	mov    0x88(%rsp),%rax
  1090b3:	00 
  1090b4:	48 89 74 24 58       	mov    %rsi,0x58(%rsp)
  1090b9:	48 89 54 24 60       	mov    %rdx,0x60(%rsp)
  1090be:	48 89 4c 24 68       	mov    %rcx,0x68(%rsp)
  1090c3:	48 89 44 24 70       	mov    %rax,0x70(%rsp)
  1090c8:	48 8d 35 91 8f 00 00 	lea    0x8f91(%rip),%rsi        # 112060 <_ZN4core3fmt2rt12USIZE_MARKER17h1b31419084dfd5e3E+0x668>
  1090cf:	48 8d 7c 24 28       	lea    0x28(%rsp),%rdi
  1090d4:	48 89 7c 24 08       	mov    %rdi,0x8(%rsp)
  1090d9:	48 8d 4c 24 58       	lea    0x58(%rsp),%rcx
  1090de:	41 b8 02 00 00 00    	mov    $0x2,%r8d
  1090e4:	4c 89 c2             	mov    %r8,%rdx
  1090e7:	e8 34 e4 ff ff       	callq  107520 <_ZN4core3fmt9Arguments6new_v117hf5fe601b2a956546E>
  1090ec:	48 8b 7c 24 08       	mov    0x8(%rsp),%rdi
  1090f1:	48 8b 74 24 10       	mov    0x10(%rsp),%rsi
  1090f6:	e8 85 c2 ff ff       	callq  105380 <_ZN4core9panicking9panic_fmt17hec0a0bac075b5c3fE>
  1090fb:	0f 0b                	ud2    
  1090fd:	cc                   	int3   
  1090fe:	cc                   	int3   
  1090ff:	cc                   	int3   

0000000000109100 <_ZN4core5slice5index24slice_end_index_len_fail17hcb665b9362076296E>:
  109100:	48 83 ec 28          	sub    $0x28,%rsp
  109104:	48 89 7c 24 18       	mov    %rdi,0x18(%rsp)
  109109:	48 89 74 24 20       	mov    %rsi,0x20(%rsp)
  10910e:	48 89 7c 24 08       	mov    %rdi,0x8(%rsp)
  109113:	48 89 74 24 10       	mov    %rsi,0x10(%rsp)
  109118:	48 8b 7c 24 08       	mov    0x8(%rsp),%rdi
  10911d:	48 8b 74 24 10       	mov    0x10(%rsp),%rsi
  109122:	e8 09 00 00 00       	callq  109130 <_ZN4core5slice5index27slice_end_index_len_fail_rt17h48f4eec84eb560e4E>
  109127:	0f 0b                	ud2    
  109129:	cc                   	int3   
  10912a:	cc                   	int3   
  10912b:	cc                   	int3   
  10912c:	cc                   	int3   
  10912d:	cc                   	int3   
  10912e:	cc                   	int3   
  10912f:	cc                   	int3   

0000000000109130 <_ZN4core5slice5index27slice_end_index_len_fail_rt17h48f4eec84eb560e4E>:
  109130:	48 81 ec c8 00 00 00 	sub    $0xc8,%rsp
  109137:	48 89 54 24 10       	mov    %rdx,0x10(%rsp)
  10913c:	48 89 7c 24 18       	mov    %rdi,0x18(%rsp)
  109141:	48 89 74 24 20       	mov    %rsi,0x20(%rsp)
  109146:	48 8d 4c 24 18       	lea    0x18(%rsp),%rcx
  10914b:	48 89 8c 24 a0 00 00 	mov    %rcx,0xa0(%rsp)
  109152:	00 
  109153:	48 89 8c 24 b8 00 00 	mov    %rcx,0xb8(%rsp)
  10915a:	00 
  10915b:	48 8b 05 3e 94 00 00 	mov    0x943e(%rip),%rax        # 1125a0 <_ZN4core3fmt2rt12USIZE_MARKER17h1b31419084dfd5e3E+0xba8>
  109162:	48 89 84 24 c0 00 00 	mov    %rax,0xc0(%rsp)
  109169:	00 
  10916a:	48 89 8c 24 a8 00 00 	mov    %rcx,0xa8(%rsp)
  109171:	00 
  109172:	48 89 84 24 b0 00 00 	mov    %rax,0xb0(%rsp)
  109179:	00 
  10917a:	48 8b b4 24 a8 00 00 	mov    0xa8(%rsp),%rsi
  109181:	00 
  109182:	48 8b 94 24 b0 00 00 	mov    0xb0(%rsp),%rdx
  109189:	00 
  10918a:	48 8d 4c 24 20       	lea    0x20(%rsp),%rcx
  10918f:	48 89 4c 24 78       	mov    %rcx,0x78(%rsp)
  109194:	48 89 8c 24 90 00 00 	mov    %rcx,0x90(%rsp)
  10919b:	00 
  10919c:	48 89 84 24 98 00 00 	mov    %rax,0x98(%rsp)
  1091a3:	00 
  1091a4:	48 89 8c 24 80 00 00 	mov    %rcx,0x80(%rsp)
  1091ab:	00 
  1091ac:	48 89 84 24 88 00 00 	mov    %rax,0x88(%rsp)
  1091b3:	00 
  1091b4:	48 8b 8c 24 80 00 00 	mov    0x80(%rsp),%rcx
  1091bb:	00 
  1091bc:	48 8b 84 24 88 00 00 	mov    0x88(%rsp),%rax
  1091c3:	00 
  1091c4:	48 89 74 24 58       	mov    %rsi,0x58(%rsp)
  1091c9:	48 89 54 24 60       	mov    %rdx,0x60(%rsp)
  1091ce:	48 89 4c 24 68       	mov    %rcx,0x68(%rsp)
  1091d3:	48 89 44 24 70       	mov    %rax,0x70(%rsp)
  1091d8:	48 8d 35 a1 8e 00 00 	lea    0x8ea1(%rip),%rsi        # 112080 <_ZN4core3fmt2rt12USIZE_MARKER17h1b31419084dfd5e3E+0x688>
  1091df:	48 8d 7c 24 28       	lea    0x28(%rsp),%rdi
  1091e4:	48 89 7c 24 08       	mov    %rdi,0x8(%rsp)
  1091e9:	48 8d 4c 24 58       	lea    0x58(%rsp),%rcx
  1091ee:	41 b8 02 00 00 00    	mov    $0x2,%r8d
  1091f4:	4c 89 c2             	mov    %r8,%rdx
  1091f7:	e8 24 e3 ff ff       	callq  107520 <_ZN4core3fmt9Arguments6new_v117hf5fe601b2a956546E>
  1091fc:	48 8b 7c 24 08       	mov    0x8(%rsp),%rdi
  109201:	48 8b 74 24 10       	mov    0x10(%rsp),%rsi
  109206:	e8 75 c1 ff ff       	callq  105380 <_ZN4core9panicking9panic_fmt17hec0a0bac075b5c3fE>
  10920b:	0f 0b                	ud2    
  10920d:	cc                   	int3   
  10920e:	cc                   	int3   
  10920f:	cc                   	int3   

0000000000109210 <_ZN4core5slice5index22slice_index_order_fail17hf528346f735002e9E>:
  109210:	48 83 ec 28          	sub    $0x28,%rsp
  109214:	48 89 7c 24 18       	mov    %rdi,0x18(%rsp)
  109219:	48 89 74 24 20       	mov    %rsi,0x20(%rsp)
  10921e:	48 89 7c 24 08       	mov    %rdi,0x8(%rsp)
  109223:	48 89 74 24 10       	mov    %rsi,0x10(%rsp)
  109228:	48 8b 7c 24 08       	mov    0x8(%rsp),%rdi
  10922d:	48 8b 74 24 10       	mov    0x10(%rsp),%rsi
  109232:	e8 09 00 00 00       	callq  109240 <_ZN4core5slice5index25slice_index_order_fail_rt17h4017ffd9d3c4a973E>
  109237:	0f 0b                	ud2    
  109239:	cc                   	int3   
  10923a:	cc                   	int3   
  10923b:	cc                   	int3   
  10923c:	cc                   	int3   
  10923d:	cc                   	int3   
  10923e:	cc                   	int3   
  10923f:	cc                   	int3   

0000000000109240 <_ZN4core5slice5index25slice_index_order_fail_rt17h4017ffd9d3c4a973E>:
  109240:	48 81 ec c8 00 00 00 	sub    $0xc8,%rsp
  109247:	48 89 54 24 10       	mov    %rdx,0x10(%rsp)
  10924c:	48 89 7c 24 18       	mov    %rdi,0x18(%rsp)
  109251:	48 89 74 24 20       	mov    %rsi,0x20(%rsp)
  109256:	48 8d 4c 24 18       	lea    0x18(%rsp),%rcx
  10925b:	48 89 8c 24 a0 00 00 	mov    %rcx,0xa0(%rsp)
  109262:	00 
  109263:	48 89 8c 24 b8 00 00 	mov    %rcx,0xb8(%rsp)
  10926a:	00 
  10926b:	48 8b 05 2e 93 00 00 	mov    0x932e(%rip),%rax        # 1125a0 <_ZN4core3fmt2rt12USIZE_MARKER17h1b31419084dfd5e3E+0xba8>
  109272:	48 89 84 24 c0 00 00 	mov    %rax,0xc0(%rsp)
  109279:	00 
  10927a:	48 89 8c 24 a8 00 00 	mov    %rcx,0xa8(%rsp)
  109281:	00 
  109282:	48 89 84 24 b0 00 00 	mov    %rax,0xb0(%rsp)
  109289:	00 
  10928a:	48 8b b4 24 a8 00 00 	mov    0xa8(%rsp),%rsi
  109291:	00 
  109292:	48 8b 94 24 b0 00 00 	mov    0xb0(%rsp),%rdx
  109299:	00 
  10929a:	48 8d 4c 24 20       	lea    0x20(%rsp),%rcx
  10929f:	48 89 4c 24 78       	mov    %rcx,0x78(%rsp)
  1092a4:	48 89 8c 24 90 00 00 	mov    %rcx,0x90(%rsp)
  1092ab:	00 
  1092ac:	48 89 84 24 98 00 00 	mov    %rax,0x98(%rsp)
  1092b3:	00 
  1092b4:	48 89 8c 24 80 00 00 	mov    %rcx,0x80(%rsp)
  1092bb:	00 
  1092bc:	48 89 84 24 88 00 00 	mov    %rax,0x88(%rsp)
  1092c3:	00 
  1092c4:	48 8b 8c 24 80 00 00 	mov    0x80(%rsp),%rcx
  1092cb:	00 
  1092cc:	48 8b 84 24 88 00 00 	mov    0x88(%rsp),%rax
  1092d3:	00 
  1092d4:	48 89 74 24 58       	mov    %rsi,0x58(%rsp)
  1092d9:	48 89 54 24 60       	mov    %rdx,0x60(%rsp)
  1092de:	48 89 4c 24 68       	mov    %rcx,0x68(%rsp)
  1092e3:	48 89 44 24 70       	mov    %rax,0x70(%rsp)
  1092e8:	48 8d 35 b1 8d 00 00 	lea    0x8db1(%rip),%rsi        # 1120a0 <_ZN4core3fmt2rt12USIZE_MARKER17h1b31419084dfd5e3E+0x6a8>
  1092ef:	48 8d 7c 24 28       	lea    0x28(%rsp),%rdi
  1092f4:	48 89 7c 24 08       	mov    %rdi,0x8(%rsp)
  1092f9:	48 8d 4c 24 58       	lea    0x58(%rsp),%rcx
  1092fe:	41 b8 02 00 00 00    	mov    $0x2,%r8d
  109304:	4c 89 c2             	mov    %r8,%rdx
  109307:	e8 14 e2 ff ff       	callq  107520 <_ZN4core3fmt9Arguments6new_v117hf5fe601b2a956546E>
  10930c:	48 8b 7c 24 08       	mov    0x8(%rsp),%rdi
  109311:	48 8b 74 24 10       	mov    0x10(%rsp),%rsi
  109316:	e8 65 c0 ff ff       	callq  105380 <_ZN4core9panicking9panic_fmt17hec0a0bac075b5c3fE>
  10931b:	0f 0b                	ud2    
  10931d:	cc                   	int3   
  10931e:	cc                   	int3   
  10931f:	cc                   	int3   

0000000000109320 <_ZN75_$LT$usize$u20$as$u20$core..slice..index..SliceIndex$LT$$u5b$T$u5d$$GT$$GT$3get17h703bdff533589bd8E>:
  109320:	48 83 ec 38          	sub    $0x38,%rsp
  109324:	48 89 14 24          	mov    %rdx,(%rsp)
  109328:	48 89 74 24 08       	mov    %rsi,0x8(%rsp)
  10932d:	48 89 7c 24 10       	mov    %rdi,0x10(%rsp)
  109332:	48 89 7c 24 20       	mov    %rdi,0x20(%rsp)
  109337:	48 89 74 24 28       	mov    %rsi,0x28(%rsp)
  10933c:	48 89 54 24 30       	mov    %rdx,0x30(%rsp)
  109341:	48 39 d7             	cmp    %rdx,%rdi
  109344:	72 0b                	jb     109351 <_ZN75_$LT$usize$u20$as$u20$core..slice..index..SliceIndex$LT$$u5b$T$u5d$$GT$$GT$3get17h703bdff533589bd8E+0x31>
  109346:	48 c7 44 24 18 00 00 	movq   $0x0,0x18(%rsp)
  10934d:	00 00 
  10934f:	eb 18                	jmp    109369 <_ZN75_$LT$usize$u20$as$u20$core..slice..index..SliceIndex$LT$$u5b$T$u5d$$GT$$GT$3get17h703bdff533589bd8E+0x49>
  109351:	48 8b 14 24          	mov    (%rsp),%rdx
  109355:	48 8b 74 24 08       	mov    0x8(%rsp),%rsi
  10935a:	48 8b 7c 24 10       	mov    0x10(%rsp),%rdi
  10935f:	e8 7c 00 00 00       	callq  1093e0 <_ZN75_$LT$usize$u20$as$u20$core..slice..index..SliceIndex$LT$$u5b$T$u5d$$GT$$GT$13get_unchecked17h92b206c5dfd3eab3E>
  109364:	48 89 44 24 18       	mov    %rax,0x18(%rsp)
  109369:	48 8b 44 24 18       	mov    0x18(%rsp),%rax
  10936e:	48 83 c4 38          	add    $0x38,%rsp
  109372:	c3                   	retq   
  109373:	cc                   	int3   
  109374:	cc                   	int3   
  109375:	cc                   	int3   
  109376:	cc                   	int3   
  109377:	cc                   	int3   
  109378:	cc                   	int3   
  109379:	cc                   	int3   
  10937a:	cc                   	int3   
  10937b:	cc                   	int3   
  10937c:	cc                   	int3   
  10937d:	cc                   	int3   
  10937e:	cc                   	int3   
  10937f:	cc                   	int3   

0000000000109380 <_ZN75_$LT$usize$u20$as$u20$core..slice..index..SliceIndex$LT$$u5b$T$u5d$$GT$$GT$3get17ha8a51191502e36b4E>:
  109380:	48 83 ec 38          	sub    $0x38,%rsp
  109384:	48 89 14 24          	mov    %rdx,(%rsp)
  109388:	48 89 74 24 08       	mov    %rsi,0x8(%rsp)
  10938d:	48 89 7c 24 10       	mov    %rdi,0x10(%rsp)
  109392:	48 89 7c 24 20       	mov    %rdi,0x20(%rsp)
  109397:	48 89 74 24 28       	mov    %rsi,0x28(%rsp)
  10939c:	48 89 54 24 30       	mov    %rdx,0x30(%rsp)
  1093a1:	48 39 d7             	cmp    %rdx,%rdi
  1093a4:	72 0b                	jb     1093b1 <_ZN75_$LT$usize$u20$as$u20$core..slice..index..SliceIndex$LT$$u5b$T$u5d$$GT$$GT$3get17ha8a51191502e36b4E+0x31>
  1093a6:	48 c7 44 24 18 00 00 	movq   $0x0,0x18(%rsp)
  1093ad:	00 00 
  1093af:	eb 18                	jmp    1093c9 <_ZN75_$LT$usize$u20$as$u20$core..slice..index..SliceIndex$LT$$u5b$T$u5d$$GT$$GT$3get17ha8a51191502e36b4E+0x49>
  1093b1:	48 8b 14 24          	mov    (%rsp),%rdx
  1093b5:	48 8b 74 24 08       	mov    0x8(%rsp),%rsi
  1093ba:	48 8b 7c 24 10       	mov    0x10(%rsp),%rdi
  1093bf:	e8 ec 00 00 00       	callq  1094b0 <_ZN75_$LT$usize$u20$as$u20$core..slice..index..SliceIndex$LT$$u5b$T$u5d$$GT$$GT$13get_unchecked17haf88ff837e4db5d0E>
  1093c4:	48 89 44 24 18       	mov    %rax,0x18(%rsp)
  1093c9:	48 8b 44 24 18       	mov    0x18(%rsp),%rax
  1093ce:	48 83 c4 38          	add    $0x38,%rsp
  1093d2:	c3                   	retq   
  1093d3:	cc                   	int3   
  1093d4:	cc                   	int3   
  1093d5:	cc                   	int3   
  1093d6:	cc                   	int3   
  1093d7:	cc                   	int3   
  1093d8:	cc                   	int3   
  1093d9:	cc                   	int3   
  1093da:	cc                   	int3   
  1093db:	cc                   	int3   
  1093dc:	cc                   	int3   
  1093dd:	cc                   	int3   
  1093de:	cc                   	int3   
  1093df:	cc                   	int3   

00000000001093e0 <_ZN75_$LT$usize$u20$as$u20$core..slice..index..SliceIndex$LT$$u5b$T$u5d$$GT$$GT$13get_unchecked17h92b206c5dfd3eab3E>:
  1093e0:	48 83 ec 78          	sub    $0x78,%rsp
  1093e4:	48 89 54 24 08       	mov    %rdx,0x8(%rsp)
  1093e9:	48 89 74 24 10       	mov    %rsi,0x10(%rsp)
  1093ee:	48 89 7c 24 18       	mov    %rdi,0x18(%rsp)
  1093f3:	48 89 7c 24 38       	mov    %rdi,0x38(%rsp)
  1093f8:	48 89 74 24 40       	mov    %rsi,0x40(%rsp)
  1093fd:	48 89 54 24 48       	mov    %rdx,0x48(%rsp)
  109402:	b0 01                	mov    $0x1,%al
  109404:	a8 01                	test   $0x1,%al
  109406:	75 2a                	jne    109432 <_ZN75_$LT$usize$u20$as$u20$core..slice..index..SliceIndex$LT$$u5b$T$u5d$$GT$$GT$13get_unchecked17h92b206c5dfd3eab3E+0x52>
  109408:	48 8b 74 24 08       	mov    0x8(%rsp),%rsi
  10940d:	48 8b 7c 24 10       	mov    0x10(%rsp),%rdi
  109412:	e8 39 21 00 00       	callq  10b550 <_ZN4core3ptr9const_ptr43_$LT$impl$u20$$BP$const$u20$$u5b$T$u5d$$GT$6as_ptr17h5a31eacfe2b655fcE>
  109417:	48 8b 4c 24 18       	mov    0x18(%rsp),%rcx
  10941c:	48 89 44 24 50       	mov    %rax,0x50(%rsp)
  109421:	48 89 4c 24 58       	mov    %rcx,0x58(%rsp)
  109426:	48 c1 e1 04          	shl    $0x4,%rcx
  10942a:	48 01 c8             	add    %rcx,%rax
  10942d:	48 83 c4 78          	add    $0x78,%rsp
  109431:	c3                   	retq   
  109432:	48 8b 44 24 08       	mov    0x8(%rsp),%rax
  109437:	48 8b 4c 24 10       	mov    0x10(%rsp),%rcx
  10943c:	48 8b 54 24 18       	mov    0x18(%rsp),%rdx
  109441:	48 89 54 24 20       	mov    %rdx,0x20(%rsp)
  109446:	48 89 4c 24 28       	mov    %rcx,0x28(%rsp)
  10944b:	48 89 44 24 30       	mov    %rax,0x30(%rsp)
  109450:	48 8b 44 24 20       	mov    0x20(%rsp),%rax
  109455:	48 89 04 24          	mov    %rax,(%rsp)
  109459:	48 8b 7c 24 28       	mov    0x28(%rsp),%rdi
  10945e:	48 8b 74 24 30       	mov    0x30(%rsp),%rsi
  109463:	48 89 44 24 60       	mov    %rax,0x60(%rsp)
  109468:	48 89 7c 24 68       	mov    %rdi,0x68(%rsp)
  10946d:	48 89 74 24 70       	mov    %rsi,0x70(%rsp)
  109472:	e8 59 20 00 00       	callq  10b4d0 <_ZN4core3ptr9const_ptr43_$LT$impl$u20$$BP$const$u20$$u5b$T$u5d$$GT$3len17h302f7c928e774910E>
  109477:	48 89 c1             	mov    %rax,%rcx
  10947a:	48 8b 04 24          	mov    (%rsp),%rax
  10947e:	48 39 c8             	cmp    %rcx,%rax
  109481:	0f 92 c0             	setb   %al
  109484:	34 ff                	xor    $0xff,%al
  109486:	a8 01                	test   $0x1,%al
  109488:	75 02                	jne    10948c <_ZN75_$LT$usize$u20$as$u20$core..slice..index..SliceIndex$LT$$u5b$T$u5d$$GT$$GT$13get_unchecked17h92b206c5dfd3eab3E+0xac>
  10948a:	eb 13                	jmp    10949f <_ZN75_$LT$usize$u20$as$u20$core..slice..index..SliceIndex$LT$$u5b$T$u5d$$GT$$GT$13get_unchecked17h92b206c5dfd3eab3E+0xbf>
  10948c:	48 8d 3d 0e 7b ff ff 	lea    -0x84f2(%rip),%rdi        # 100fa1 <str.2+0xa1>
  109493:	be 61 00 00 00       	mov    $0x61,%esi
  109498:	e8 e3 bf ff ff       	callq  105480 <_ZN4core9panicking14panic_nounwind17hbf97f84b8fd59176E>
  10949d:	0f 0b                	ud2    
  10949f:	e9 64 ff ff ff       	jmpq   109408 <_ZN75_$LT$usize$u20$as$u20$core..slice..index..SliceIndex$LT$$u5b$T$u5d$$GT$$GT$13get_unchecked17h92b206c5dfd3eab3E+0x28>
  1094a4:	cc                   	int3   
  1094a5:	cc                   	int3   
  1094a6:	cc                   	int3   
  1094a7:	cc                   	int3   
  1094a8:	cc                   	int3   
  1094a9:	cc                   	int3   
  1094aa:	cc                   	int3   
  1094ab:	cc                   	int3   
  1094ac:	cc                   	int3   
  1094ad:	cc                   	int3   
  1094ae:	cc                   	int3   
  1094af:	cc                   	int3   

00000000001094b0 <_ZN75_$LT$usize$u20$as$u20$core..slice..index..SliceIndex$LT$$u5b$T$u5d$$GT$$GT$13get_unchecked17haf88ff837e4db5d0E>:
  1094b0:	48 83 ec 78          	sub    $0x78,%rsp
  1094b4:	48 89 54 24 08       	mov    %rdx,0x8(%rsp)
  1094b9:	48 89 74 24 10       	mov    %rsi,0x10(%rsp)
  1094be:	48 89 7c 24 18       	mov    %rdi,0x18(%rsp)
  1094c3:	48 89 7c 24 38       	mov    %rdi,0x38(%rsp)
  1094c8:	48 89 74 24 40       	mov    %rsi,0x40(%rsp)
  1094cd:	48 89 54 24 48       	mov    %rdx,0x48(%rsp)
  1094d2:	b0 01                	mov    $0x1,%al
  1094d4:	a8 01                	test   $0x1,%al
  1094d6:	75 26                	jne    1094fe <_ZN75_$LT$usize$u20$as$u20$core..slice..index..SliceIndex$LT$$u5b$T$u5d$$GT$$GT$13get_unchecked17haf88ff837e4db5d0E+0x4e>
  1094d8:	48 8b 74 24 08       	mov    0x8(%rsp),%rsi
  1094dd:	48 8b 7c 24 10       	mov    0x10(%rsp),%rdi
  1094e2:	e8 29 20 00 00       	callq  10b510 <_ZN4core3ptr9const_ptr43_$LT$impl$u20$$BP$const$u20$$u5b$T$u5d$$GT$6as_ptr17h41b895457b254e1bE>
  1094e7:	48 8b 4c 24 18       	mov    0x18(%rsp),%rcx
  1094ec:	48 89 44 24 50       	mov    %rax,0x50(%rsp)
  1094f1:	48 89 4c 24 58       	mov    %rcx,0x58(%rsp)
  1094f6:	48 01 c8             	add    %rcx,%rax
  1094f9:	48 83 c4 78          	add    $0x78,%rsp
  1094fd:	c3                   	retq   
  1094fe:	48 8b 44 24 08       	mov    0x8(%rsp),%rax
  109503:	48 8b 4c 24 10       	mov    0x10(%rsp),%rcx
  109508:	48 8b 54 24 18       	mov    0x18(%rsp),%rdx
  10950d:	48 89 54 24 20       	mov    %rdx,0x20(%rsp)
  109512:	48 89 4c 24 28       	mov    %rcx,0x28(%rsp)
  109517:	48 89 44 24 30       	mov    %rax,0x30(%rsp)
  10951c:	48 8b 44 24 20       	mov    0x20(%rsp),%rax
  109521:	48 89 04 24          	mov    %rax,(%rsp)
  109525:	48 8b 7c 24 28       	mov    0x28(%rsp),%rdi
  10952a:	48 8b 74 24 30       	mov    0x30(%rsp),%rsi
  10952f:	48 89 44 24 60       	mov    %rax,0x60(%rsp)
  109534:	48 89 7c 24 68       	mov    %rdi,0x68(%rsp)
  109539:	48 89 74 24 70       	mov    %rsi,0x70(%rsp)
  10953e:	e8 6d 1f 00 00       	callq  10b4b0 <_ZN4core3ptr9const_ptr43_$LT$impl$u20$$BP$const$u20$$u5b$T$u5d$$GT$3len17h2025d8233704ca40E>
  109543:	48 89 c1             	mov    %rax,%rcx
  109546:	48 8b 04 24          	mov    (%rsp),%rax
  10954a:	48 39 c8             	cmp    %rcx,%rax
  10954d:	0f 92 c0             	setb   %al
  109550:	34 ff                	xor    $0xff,%al
  109552:	a8 01                	test   $0x1,%al
  109554:	75 02                	jne    109558 <_ZN75_$LT$usize$u20$as$u20$core..slice..index..SliceIndex$LT$$u5b$T$u5d$$GT$$GT$13get_unchecked17haf88ff837e4db5d0E+0xa8>
  109556:	eb 13                	jmp    10956b <_ZN75_$LT$usize$u20$as$u20$core..slice..index..SliceIndex$LT$$u5b$T$u5d$$GT$$GT$13get_unchecked17haf88ff837e4db5d0E+0xbb>
  109558:	48 8d 3d 42 7a ff ff 	lea    -0x85be(%rip),%rdi        # 100fa1 <str.2+0xa1>
  10955f:	be 61 00 00 00       	mov    $0x61,%esi
  109564:	e8 17 bf ff ff       	callq  105480 <_ZN4core9panicking14panic_nounwind17hbf97f84b8fd59176E>
  109569:	0f 0b                	ud2    
  10956b:	e9 68 ff ff ff       	jmpq   1094d8 <_ZN75_$LT$usize$u20$as$u20$core..slice..index..SliceIndex$LT$$u5b$T$u5d$$GT$$GT$13get_unchecked17haf88ff837e4db5d0E+0x28>

0000000000109570 <_ZN75_$LT$usize$u20$as$u20$core..slice..index..SliceIndex$LT$$u5b$T$u5d$$GT$$GT$13get_unchecked17hde94c2de95e20f1cE>:
  109570:	48 83 ec 78          	sub    $0x78,%rsp
  109574:	48 89 54 24 08       	mov    %rdx,0x8(%rsp)
  109579:	48 89 74 24 10       	mov    %rsi,0x10(%rsp)
  10957e:	48 89 7c 24 18       	mov    %rdi,0x18(%rsp)
  109583:	48 89 7c 24 38       	mov    %rdi,0x38(%rsp)
  109588:	48 89 74 24 40       	mov    %rsi,0x40(%rsp)
  10958d:	48 89 54 24 48       	mov    %rdx,0x48(%rsp)
  109592:	b0 01                	mov    $0x1,%al
  109594:	a8 01                	test   $0x1,%al
  109596:	75 2a                	jne    1095c2 <_ZN75_$LT$usize$u20$as$u20$core..slice..index..SliceIndex$LT$$u5b$T$u5d$$GT$$GT$13get_unchecked17hde94c2de95e20f1cE+0x52>
  109598:	48 8b 74 24 08       	mov    0x8(%rsp),%rsi
  10959d:	48 8b 7c 24 10       	mov    0x10(%rsp),%rdi
  1095a2:	e8 f9 ae ff ff       	callq  1044a0 <_ZN4core3ptr9const_ptr43_$LT$impl$u20$$BP$const$u20$$u5b$T$u5d$$GT$6as_ptr17h3ee07bd535457ddcE>
  1095a7:	48 8b 4c 24 18       	mov    0x18(%rsp),%rcx
  1095ac:	48 89 44 24 50       	mov    %rax,0x50(%rsp)
  1095b1:	48 89 4c 24 58       	mov    %rcx,0x58(%rsp)
  1095b6:	48 c1 e1 04          	shl    $0x4,%rcx
  1095ba:	48 01 c8             	add    %rcx,%rax
  1095bd:	48 83 c4 78          	add    $0x78,%rsp
  1095c1:	c3                   	retq   
  1095c2:	48 8b 44 24 08       	mov    0x8(%rsp),%rax
  1095c7:	48 8b 4c 24 10       	mov    0x10(%rsp),%rcx
  1095cc:	48 8b 54 24 18       	mov    0x18(%rsp),%rdx
  1095d1:	48 89 54 24 20       	mov    %rdx,0x20(%rsp)
  1095d6:	48 89 4c 24 28       	mov    %rcx,0x28(%rsp)
  1095db:	48 89 44 24 30       	mov    %rax,0x30(%rsp)
  1095e0:	48 8b 44 24 20       	mov    0x20(%rsp),%rax
  1095e5:	48 89 04 24          	mov    %rax,(%rsp)
  1095e9:	48 8b 7c 24 28       	mov    0x28(%rsp),%rdi
  1095ee:	48 8b 74 24 30       	mov    0x30(%rsp),%rsi
  1095f3:	48 89 44 24 60       	mov    %rax,0x60(%rsp)
  1095f8:	48 89 7c 24 68       	mov    %rdi,0x68(%rsp)
  1095fd:	48 89 74 24 70       	mov    %rsi,0x70(%rsp)
  109602:	e8 79 ae ff ff       	callq  104480 <_ZN4core3ptr9const_ptr43_$LT$impl$u20$$BP$const$u20$$u5b$T$u5d$$GT$3len17h89a0db460d286445E>
  109607:	48 89 c1             	mov    %rax,%rcx
  10960a:	48 8b 04 24          	mov    (%rsp),%rax
  10960e:	48 39 c8             	cmp    %rcx,%rax
  109611:	0f 92 c0             	setb   %al
  109614:	34 ff                	xor    $0xff,%al
  109616:	a8 01                	test   $0x1,%al
  109618:	75 02                	jne    10961c <_ZN75_$LT$usize$u20$as$u20$core..slice..index..SliceIndex$LT$$u5b$T$u5d$$GT$$GT$13get_unchecked17hde94c2de95e20f1cE+0xac>
  10961a:	eb 13                	jmp    10962f <_ZN75_$LT$usize$u20$as$u20$core..slice..index..SliceIndex$LT$$u5b$T$u5d$$GT$$GT$13get_unchecked17hde94c2de95e20f1cE+0xbf>
  10961c:	48 8d 3d 7e 79 ff ff 	lea    -0x8682(%rip),%rdi        # 100fa1 <str.2+0xa1>
  109623:	be 61 00 00 00       	mov    $0x61,%esi
  109628:	e8 53 be ff ff       	callq  105480 <_ZN4core9panicking14panic_nounwind17hbf97f84b8fd59176E>
  10962d:	0f 0b                	ud2    
  10962f:	e9 64 ff ff ff       	jmpq   109598 <_ZN75_$LT$usize$u20$as$u20$core..slice..index..SliceIndex$LT$$u5b$T$u5d$$GT$$GT$13get_unchecked17hde94c2de95e20f1cE+0x28>
  109634:	cc                   	int3   
  109635:	cc                   	int3   
  109636:	cc                   	int3   
  109637:	cc                   	int3   
  109638:	cc                   	int3   
  109639:	cc                   	int3   
  10963a:	cc                   	int3   
  10963b:	cc                   	int3   
  10963c:	cc                   	int3   
  10963d:	cc                   	int3   
  10963e:	cc                   	int3   
  10963f:	cc                   	int3   

0000000000109640 <_ZN4core3str8converts19from_utf8_unchecked17haad3881056278f70E>:
  109640:	48 83 ec 10          	sub    $0x10,%rsp
  109644:	48 89 f2             	mov    %rsi,%rdx
  109647:	48 89 f8             	mov    %rdi,%rax
  10964a:	48 89 04 24          	mov    %rax,(%rsp)
  10964e:	48 89 54 24 08       	mov    %rdx,0x8(%rsp)
  109653:	48 83 c4 10          	add    $0x10,%rsp
  109657:	c3                   	retq   
  109658:	cc                   	int3   
  109659:	cc                   	int3   
  10965a:	cc                   	int3   
  10965b:	cc                   	int3   
  10965c:	cc                   	int3   
  10965d:	cc                   	int3   
  10965e:	cc                   	int3   
  10965f:	cc                   	int3   

0000000000109660 <_ZN4core3str8converts23from_utf8_unchecked_mut17h7940259ddb8974fdE>:
  109660:	48 83 ec 10          	sub    $0x10,%rsp
  109664:	48 89 f2             	mov    %rsi,%rdx
  109667:	48 89 f8             	mov    %rdi,%rax
  10966a:	48 89 04 24          	mov    %rax,(%rsp)
  10966e:	48 89 54 24 08       	mov    %rdx,0x8(%rsp)
  109673:	48 83 c4 10          	add    $0x10,%rsp
  109677:	c3                   	retq   
  109678:	cc                   	int3   
  109679:	cc                   	int3   
  10967a:	cc                   	int3   
  10967b:	cc                   	int3   
  10967c:	cc                   	int3   
  10967d:	cc                   	int3   
  10967e:	cc                   	int3   
  10967f:	cc                   	int3   

0000000000109680 <_ZN4core3str11validations15utf8_first_byte17h520599b004ad1b09E>:
  109680:	48 83 ec 18          	sub    $0x18,%rsp
  109684:	89 74 24 0c          	mov    %esi,0xc(%rsp)
  109688:	40 88 f8             	mov    %dil,%al
  10968b:	88 44 24 12          	mov    %al,0x12(%rsp)
  10968f:	88 44 24 13          	mov    %al,0x13(%rsp)
  109693:	89 74 24 14          	mov    %esi,0x14(%rsp)
  109697:	83 fe 08             	cmp    $0x8,%esi
  10969a:	0f 92 c0             	setb   %al
  10969d:	a8 01                	test   $0x1,%al
  10969f:	75 02                	jne    1096a3 <_ZN4core3str11validations15utf8_first_byte17h520599b004ad1b09E+0x23>
  1096a1:	eb 1b                	jmp    1096be <_ZN4core3str11validations15utf8_first_byte17h520599b004ad1b09E+0x3e>
  1096a3:	8a 44 24 12          	mov    0x12(%rsp),%al
  1096a7:	8b 4c 24 0c          	mov    0xc(%rsp),%ecx
  1096ab:	80 e1 07             	and    $0x7,%cl
  1096ae:	b2 7f                	mov    $0x7f,%dl
  1096b0:	d2 ea                	shr    %cl,%dl
  1096b2:	88 d1                	mov    %dl,%cl
  1096b4:	20 c8                	and    %cl,%al
  1096b6:	0f b6 c0             	movzbl %al,%eax
  1096b9:	48 83 c4 18          	add    $0x18,%rsp
  1096bd:	c3                   	retq   
  1096be:	48 8d 3d 3b 78 ff ff 	lea    -0x87c5(%rip),%rdi        # 100f00 <str.2>
  1096c5:	48 8d 15 f4 89 00 00 	lea    0x89f4(%rip),%rdx        # 1120c0 <_ZN4core3fmt2rt12USIZE_MARKER17h1b31419084dfd5e3E+0x6c8>
  1096cc:	be 24 00 00 00       	mov    $0x24,%esi
  1096d1:	e8 5a bd ff ff       	callq  105430 <_ZN4core9panicking5panic17h4e18ef80ec7677b0E>
  1096d6:	0f 0b                	ud2    
  1096d8:	cc                   	int3   
  1096d9:	cc                   	int3   
  1096da:	cc                   	int3   
  1096db:	cc                   	int3   
  1096dc:	cc                   	int3   
  1096dd:	cc                   	int3   
  1096de:	cc                   	int3   
  1096df:	cc                   	int3   

00000000001096e0 <_ZN4core3str11validations18utf8_acc_cont_byte17h77d56749725a52a8E>:
  1096e0:	50                   	push   %rax
  1096e1:	89 f8                	mov    %edi,%eax
  1096e3:	40 88 f1             	mov    %sil,%cl
  1096e6:	89 04 24             	mov    %eax,(%rsp)
  1096e9:	88 4c 24 07          	mov    %cl,0x7(%rsp)
  1096ed:	c1 e0 06             	shl    $0x6,%eax
  1096f0:	80 e1 3f             	and    $0x3f,%cl
  1096f3:	0f b6 c9             	movzbl %cl,%ecx
  1096f6:	09 c8                	or     %ecx,%eax
  1096f8:	59                   	pop    %rcx
  1096f9:	c3                   	retq   
  1096fa:	cc                   	int3   
  1096fb:	cc                   	int3   
  1096fc:	cc                   	int3   
  1096fd:	cc                   	int3   
  1096fe:	cc                   	int3   
  1096ff:	cc                   	int3   

0000000000109700 <_ZN4core3str11validations17utf8_is_cont_byte17h728ce8c29172e033E>:
  109700:	48 83 ec 01          	sub    $0x1,%rsp
  109704:	40 88 f8             	mov    %dil,%al
  109707:	88 04 24             	mov    %al,(%rsp)
  10970a:	3c c0                	cmp    $0xc0,%al
  10970c:	0f 9c c0             	setl   %al
  10970f:	24 01                	and    $0x1,%al
  109711:	0f b6 c0             	movzbl %al,%eax
  109714:	48 83 c4 01          	add    $0x1,%rsp
  109718:	c3                   	retq   
  109719:	cc                   	int3   
  10971a:	cc                   	int3   
  10971b:	cc                   	int3   
  10971c:	cc                   	int3   
  10971d:	cc                   	int3   
  10971e:	cc                   	int3   
  10971f:	cc                   	int3   

0000000000109720 <_ZN4core3str11validations15next_code_point17h988cf8f6f8f53428E>:
  109720:	48 83 ec 68          	sub    $0x68,%rsp
  109724:	48 89 7c 24 18       	mov    %rdi,0x18(%rsp)
  109729:	48 89 7c 24 40       	mov    %rdi,0x40(%rsp)
  10972e:	e8 0d 2f 00 00       	callq  10c640 <_ZN91_$LT$core..slice..iter..Iter$LT$T$GT$$u20$as$u20$core..iter..traits..iterator..Iterator$GT$4next17hadf447fe4e457bdcE>
  109733:	48 89 c7             	mov    %rax,%rdi
  109736:	e8 05 08 00 00       	callq  109f40 <_ZN75_$LT$core..option..Option$LT$T$GT$$u20$as$u20$core..ops..try_trait..Try$GT$6branch17hde22d0733497056fE>
  10973b:	48 89 44 24 30       	mov    %rax,0x30(%rsp)
  109740:	48 8b 54 24 30       	mov    0x30(%rsp),%rdx
  109745:	31 c0                	xor    %eax,%eax
  109747:	b9 01 00 00 00       	mov    $0x1,%ecx
  10974c:	48 83 fa 00          	cmp    $0x0,%rdx
  109750:	48 0f 44 c1          	cmove  %rcx,%rax
  109754:	48 83 f8 00          	cmp    $0x0,%rax
  109758:	75 1a                	jne    109774 <_ZN4core3str11validations15next_code_point17h988cf8f6f8f53428E+0x54>
  10975a:	48 8b 44 24 30       	mov    0x30(%rsp),%rax
  10975f:	48 89 44 24 48       	mov    %rax,0x48(%rsp)
  109764:	8a 00                	mov    (%rax),%al
  109766:	88 44 24 17          	mov    %al,0x17(%rsp)
  10976a:	88 44 24 57          	mov    %al,0x57(%rsp)
  10976e:	3c 80                	cmp    $0x80,%al
  109770:	72 6c                	jb     1097de <_ZN4core3str11validations15next_code_point17h988cf8f6f8f53428E+0xbe>
  109772:	eb 12                	jmp    109786 <_ZN4core3str11validations15next_code_point17h988cf8f6f8f53428E+0x66>
  109774:	e8 37 08 00 00       	callq  109fb0 <_ZN84_$LT$core..option..Option$LT$T$GT$$u20$as$u20$core..ops..try_trait..FromResidual$GT$13from_residual17h69423d71766a17bbE>
  109779:	89 54 24 2c          	mov    %edx,0x2c(%rsp)
  10977d:	89 44 24 28          	mov    %eax,0x28(%rsp)
  109781:	e9 1f 01 00 00       	jmpq   1098a5 <_ZN4core3str11validations15next_code_point17h988cf8f6f8f53428E+0x185>
  109786:	8a 44 24 17          	mov    0x17(%rsp),%al
  10978a:	be 02 00 00 00       	mov    $0x2,%esi
  10978f:	0f b6 f8             	movzbl %al,%edi
  109792:	e8 e9 fe ff ff       	callq  109680 <_ZN4core3str11validations15utf8_first_byte17h520599b004ad1b09E>
  109797:	48 8b 7c 24 18       	mov    0x18(%rsp),%rdi
  10979c:	89 44 24 10          	mov    %eax,0x10(%rsp)
  1097a0:	89 44 24 58          	mov    %eax,0x58(%rsp)
  1097a4:	e8 97 2e 00 00       	callq  10c640 <_ZN91_$LT$core..slice..iter..Iter$LT$T$GT$$u20$as$u20$core..iter..traits..iterator..Iterator$GT$4next17hadf447fe4e457bdcE>
  1097a9:	48 89 c7             	mov    %rax,%rdi
  1097ac:	48 8d 35 25 89 00 00 	lea    0x8925(%rip),%rsi        # 1120d8 <_ZN4core3fmt2rt12USIZE_MARKER17h1b31419084dfd5e3E+0x6e0>
  1097b3:	e8 f8 04 00 00       	callq  109cb0 <_ZN4core6option15Option$LT$T$GT$16unwrap_unchecked17haf2caca11907119bE>
  1097b8:	8b 7c 24 10          	mov    0x10(%rsp),%edi
  1097bc:	8a 00                	mov    (%rax),%al
  1097be:	88 44 24 16          	mov    %al,0x16(%rsp)
  1097c2:	88 44 24 5e          	mov    %al,0x5e(%rsp)
  1097c6:	0f b6 f0             	movzbl %al,%esi
  1097c9:	e8 12 ff ff ff       	callq  1096e0 <_ZN4core3str11validations18utf8_acc_cont_byte17h77d56749725a52a8E>
  1097ce:	89 c1                	mov    %eax,%ecx
  1097d0:	8a 44 24 17          	mov    0x17(%rsp),%al
  1097d4:	89 4c 24 3c          	mov    %ecx,0x3c(%rsp)
  1097d8:	3c e0                	cmp    $0xe0,%al
  1097da:	73 2f                	jae    10980b <_ZN4core3str11validations15next_code_point17h988cf8f6f8f53428E+0xeb>
  1097dc:	eb 18                	jmp    1097f6 <_ZN4core3str11validations15next_code_point17h988cf8f6f8f53428E+0xd6>
  1097de:	8a 44 24 17          	mov    0x17(%rsp),%al
  1097e2:	0f b6 c0             	movzbl %al,%eax
  1097e5:	89 44 24 2c          	mov    %eax,0x2c(%rsp)
  1097e9:	c7 44 24 28 01 00 00 	movl   $0x1,0x28(%rsp)
  1097f0:	00 
  1097f1:	e9 af 00 00 00       	jmpq   1098a5 <_ZN4core3str11validations15next_code_point17h988cf8f6f8f53428E+0x185>
  1097f6:	8b 44 24 3c          	mov    0x3c(%rsp),%eax
  1097fa:	89 44 24 2c          	mov    %eax,0x2c(%rsp)
  1097fe:	c7 44 24 28 01 00 00 	movl   $0x1,0x28(%rsp)
  109805:	00 
  109806:	e9 9a 00 00 00       	jmpq   1098a5 <_ZN4core3str11validations15next_code_point17h988cf8f6f8f53428E+0x185>
  10980b:	48 8b 7c 24 18       	mov    0x18(%rsp),%rdi
  109810:	e8 2b 2e 00 00       	callq  10c640 <_ZN91_$LT$core..slice..iter..Iter$LT$T$GT$$u20$as$u20$core..iter..traits..iterator..Iterator$GT$4next17hadf447fe4e457bdcE>
  109815:	48 89 c7             	mov    %rax,%rdi
  109818:	48 8d 35 d1 88 00 00 	lea    0x88d1(%rip),%rsi        # 1120f0 <_ZN4core3fmt2rt12USIZE_MARKER17h1b31419084dfd5e3E+0x6f8>
  10981f:	e8 8c 04 00 00       	callq  109cb0 <_ZN4core6option15Option$LT$T$GT$16unwrap_unchecked17haf2caca11907119bE>
  109824:	8a 4c 24 16          	mov    0x16(%rsp),%cl
  109828:	8a 00                	mov    (%rax),%al
  10982a:	88 44 24 5f          	mov    %al,0x5f(%rsp)
  10982e:	80 e1 3f             	and    $0x3f,%cl
  109831:	0f b6 f9             	movzbl %cl,%edi
  109834:	0f b6 f0             	movzbl %al,%esi
  109837:	e8 a4 fe ff ff       	callq  1096e0 <_ZN4core3str11validations18utf8_acc_cont_byte17h77d56749725a52a8E>
  10983c:	8b 4c 24 10          	mov    0x10(%rsp),%ecx
  109840:	89 c2                	mov    %eax,%edx
  109842:	8a 44 24 17          	mov    0x17(%rsp),%al
  109846:	89 54 24 0c          	mov    %edx,0xc(%rsp)
  10984a:	89 54 24 60          	mov    %edx,0x60(%rsp)
  10984e:	c1 e1 0c             	shl    $0xc,%ecx
  109851:	09 d1                	or     %edx,%ecx
  109853:	89 4c 24 3c          	mov    %ecx,0x3c(%rsp)
  109857:	3c f0                	cmp    $0xf0,%al
  109859:	72 9b                	jb     1097f6 <_ZN4core3str11validations15next_code_point17h988cf8f6f8f53428E+0xd6>
  10985b:	48 8b 7c 24 18       	mov    0x18(%rsp),%rdi
  109860:	e8 db 2d 00 00       	callq  10c640 <_ZN91_$LT$core..slice..iter..Iter$LT$T$GT$$u20$as$u20$core..iter..traits..iterator..Iterator$GT$4next17hadf447fe4e457bdcE>
  109865:	48 89 c7             	mov    %rax,%rdi
  109868:	48 8d 35 99 88 00 00 	lea    0x8899(%rip),%rsi        # 112108 <_ZN4core3fmt2rt12USIZE_MARKER17h1b31419084dfd5e3E+0x710>
  10986f:	e8 3c 04 00 00       	callq  109cb0 <_ZN4core6option15Option$LT$T$GT$16unwrap_unchecked17haf2caca11907119bE>
  109874:	8b 4c 24 10          	mov    0x10(%rsp),%ecx
  109878:	8b 7c 24 0c          	mov    0xc(%rsp),%edi
  10987c:	8a 00                	mov    (%rax),%al
  10987e:	88 44 24 67          	mov    %al,0x67(%rsp)
  109882:	83 e1 07             	and    $0x7,%ecx
  109885:	c1 e1 12             	shl    $0x12,%ecx
  109888:	89 4c 24 08          	mov    %ecx,0x8(%rsp)
  10988c:	0f b6 f0             	movzbl %al,%esi
  10988f:	e8 4c fe ff ff       	callq  1096e0 <_ZN4core3str11validations18utf8_acc_cont_byte17h77d56749725a52a8E>
  109894:	89 c1                	mov    %eax,%ecx
  109896:	8b 44 24 08          	mov    0x8(%rsp),%eax
  10989a:	09 c8                	or     %ecx,%eax
  10989c:	89 44 24 3c          	mov    %eax,0x3c(%rsp)
  1098a0:	e9 51 ff ff ff       	jmpq   1097f6 <_ZN4core3str11validations15next_code_point17h988cf8f6f8f53428E+0xd6>
  1098a5:	8b 44 24 28          	mov    0x28(%rsp),%eax
  1098a9:	8b 54 24 2c          	mov    0x2c(%rsp),%edx
  1098ad:	48 83 c4 68          	add    $0x68,%rsp
  1098b1:	c3                   	retq   
  1098b2:	cc                   	int3   
  1098b3:	cc                   	int3   
  1098b4:	cc                   	int3   
  1098b5:	cc                   	int3   
  1098b6:	cc                   	int3   
  1098b7:	cc                   	int3   
  1098b8:	cc                   	int3   
  1098b9:	cc                   	int3   
  1098ba:	cc                   	int3   
  1098bb:	cc                   	int3   
  1098bc:	cc                   	int3   
  1098bd:	cc                   	int3   
  1098be:	cc                   	int3   
  1098bf:	cc                   	int3   

00000000001098c0 <_ZN56_$LT$usize$u20$as$u20$core..iter..traits..accum..Sum$GT$3sum17hbe6885f64eb07e0bE>:
  1098c0:	48 83 ec 18          	sub    $0x18,%rsp
  1098c4:	48 89 7c 24 08       	mov    %rdi,0x8(%rsp)
  1098c9:	48 89 74 24 10       	mov    %rsi,0x10(%rsp)
  1098ce:	31 c0                	xor    %eax,%eax
  1098d0:	89 c2                	mov    %eax,%edx
  1098d2:	e8 a9 cf ff ff       	callq  106880 <_ZN102_$LT$core..iter..adapters..map..Map$LT$I$C$F$GT$$u20$as$u20$core..iter..traits..iterator..Iterator$GT$4fold17h6e5d22aadc3b7834E>
  1098d7:	48 83 c4 18          	add    $0x18,%rsp
  1098db:	c3                   	retq   
  1098dc:	cc                   	int3   
  1098dd:	cc                   	int3   
  1098de:	cc                   	int3   
  1098df:	cc                   	int3   

00000000001098e0 <_ZN56_$LT$usize$u20$as$u20$core..iter..traits..accum..Sum$GT$3sum28_$u7b$$u7b$closure$u7d$$u7d$17h18c5d51212d03a9eE>:
  1098e0:	48 83 ec 28          	sub    $0x28,%rsp
  1098e4:	48 89 7c 24 10       	mov    %rdi,0x10(%rsp)
  1098e9:	48 89 74 24 18       	mov    %rsi,0x18(%rsp)
  1098ee:	48 89 54 24 20       	mov    %rdx,0x20(%rsp)
  1098f3:	48 01 d6             	add    %rdx,%rsi
  1098f6:	48 89 74 24 08       	mov    %rsi,0x8(%rsp)
  1098fb:	0f 92 c0             	setb   %al
  1098fe:	a8 01                	test   $0x1,%al
  109900:	75 0a                	jne    10990c <_ZN56_$LT$usize$u20$as$u20$core..iter..traits..accum..Sum$GT$3sum28_$u7b$$u7b$closure$u7d$$u7d$17h18c5d51212d03a9eE+0x2c>
  109902:	48 8b 44 24 08       	mov    0x8(%rsp),%rax
  109907:	48 83 c4 28          	add    $0x28,%rsp
  10990b:	c3                   	retq   
  10990c:	48 8d 3d cd 74 ff ff 	lea    -0x8b33(%rip),%rdi        # 100de0 <str.1>
  109913:	48 8d 15 06 88 00 00 	lea    0x8806(%rip),%rdx        # 112120 <_ZN4core3fmt2rt12USIZE_MARKER17h1b31419084dfd5e3E+0x728>
  10991a:	be 1c 00 00 00       	mov    $0x1c,%esi
  10991f:	e8 0c bb ff ff       	callq  105430 <_ZN4core9panicking5panic17h4e18ef80ec7677b0E>
  109924:	0f 0b                	ud2    
  109926:	cc                   	int3   
  109927:	cc                   	int3   
  109928:	cc                   	int3   
  109929:	cc                   	int3   
  10992a:	cc                   	int3   
  10992b:	cc                   	int3   
  10992c:	cc                   	int3   
  10992d:	cc                   	int3   
  10992e:	cc                   	int3   
  10992f:	cc                   	int3   

0000000000109930 <_ZN42_$LT$$RF$T$u20$as$u20$core..fmt..Debug$GT$3fmt17h1c33a6a234fcff41E>:
  109930:	48 83 ec 18          	sub    $0x18,%rsp
  109934:	48 89 f8             	mov    %rdi,%rax
  109937:	48 89 44 24 08       	mov    %rax,0x8(%rsp)
  10993c:	48 89 74 24 10       	mov    %rsi,0x10(%rsp)
  109941:	48 8b 38             	mov    (%rax),%rdi
  109944:	48 8b 40 08          	mov    0x8(%rax),%rax
  109948:	ff 50 18             	callq  *0x18(%rax)
  10994b:	24 01                	and    $0x1,%al
  10994d:	0f b6 c0             	movzbl %al,%eax
  109950:	48 83 c4 18          	add    $0x18,%rsp
  109954:	c3                   	retq   
  109955:	cc                   	int3   
  109956:	cc                   	int3   
  109957:	cc                   	int3   
  109958:	cc                   	int3   
  109959:	cc                   	int3   
  10995a:	cc                   	int3   
  10995b:	cc                   	int3   
  10995c:	cc                   	int3   
  10995d:	cc                   	int3   
  10995e:	cc                   	int3   
  10995f:	cc                   	int3   

0000000000109960 <_ZN42_$LT$$RF$T$u20$as$u20$core..fmt..Debug$GT$3fmt17hf6a882c0939d3b82E>:
  109960:	48 83 ec 18          	sub    $0x18,%rsp
  109964:	48 89 7c 24 08       	mov    %rdi,0x8(%rsp)
  109969:	48 89 74 24 10       	mov    %rsi,0x10(%rsp)
  10996e:	48 8b 3f             	mov    (%rdi),%rdi
  109971:	e8 7a f5 ff ff       	callq  108ef0 <_ZN45_$LT$$LP$$RP$$u20$as$u20$core..fmt..Debug$GT$3fmt17h55986772c555ed37E>
  109976:	24 01                	and    $0x1,%al
  109978:	0f b6 c0             	movzbl %al,%eax
  10997b:	48 83 c4 18          	add    $0x18,%rsp
  10997f:	c3                   	retq   

0000000000109980 <_ZN44_$LT$$RF$T$u20$as$u20$core..fmt..Display$GT$3fmt17hd95313ebe52fa760E>:
  109980:	48 83 ec 18          	sub    $0x18,%rsp
  109984:	48 89 f2             	mov    %rsi,%rdx
  109987:	48 89 f8             	mov    %rdi,%rax
  10998a:	48 89 44 24 08       	mov    %rax,0x8(%rsp)
  10998f:	48 89 54 24 10       	mov    %rdx,0x10(%rsp)
  109994:	48 8b 38             	mov    (%rax),%rdi
  109997:	48 8b 70 08          	mov    0x8(%rax),%rsi
  10999b:	e8 10 f5 ff ff       	callq  108eb0 <_ZN42_$LT$str$u20$as$u20$core..fmt..Display$GT$3fmt17h96d5546e09ba9805E>
  1099a0:	24 01                	and    $0x1,%al
  1099a2:	0f b6 c0             	movzbl %al,%eax
  1099a5:	48 83 c4 18          	add    $0x18,%rsp
  1099a9:	c3                   	retq   
  1099aa:	cc                   	int3   
  1099ab:	cc                   	int3   
  1099ac:	cc                   	int3   
  1099ad:	cc                   	int3   
  1099ae:	cc                   	int3   
  1099af:	cc                   	int3   

00000000001099b0 <_ZN4core6option15Option$LT$T$GT$7is_some17h37d287905bf68111E>:
  1099b0:	50                   	push   %rax
  1099b1:	48 89 3c 24          	mov    %rdi,(%rsp)
  1099b5:	48 8b 17             	mov    (%rdi),%rdx
  1099b8:	b8 01 00 00 00       	mov    $0x1,%eax
  1099bd:	31 c9                	xor    %ecx,%ecx
  1099bf:	48 83 fa 00          	cmp    $0x0,%rdx
  1099c3:	48 0f 44 c1          	cmove  %rcx,%rax
  1099c7:	48 83 f8 01          	cmp    $0x1,%rax
  1099cb:	0f 94 c0             	sete   %al
  1099ce:	24 01                	and    $0x1,%al
  1099d0:	0f b6 c0             	movzbl %al,%eax
  1099d3:	59                   	pop    %rcx
  1099d4:	c3                   	retq   
  1099d5:	cc                   	int3   
  1099d6:	cc                   	int3   
  1099d7:	cc                   	int3   
  1099d8:	cc                   	int3   
  1099d9:	cc                   	int3   
  1099da:	cc                   	int3   
  1099db:	cc                   	int3   
  1099dc:	cc                   	int3   
  1099dd:	cc                   	int3   
  1099de:	cc                   	int3   
  1099df:	cc                   	int3   

00000000001099e0 <_ZN4core6option15Option$LT$T$GT$7is_some17hadac9aff431b539bE>:
  1099e0:	50                   	push   %rax
  1099e1:	48 89 3c 24          	mov    %rdi,(%rsp)
  1099e5:	b8 01 00 00 00       	mov    $0x1,%eax
  1099ea:	31 c9                	xor    %ecx,%ecx
  1099ec:	81 7f 08 00 00 11 00 	cmpl   $0x110000,0x8(%rdi)
  1099f3:	48 0f 44 c1          	cmove  %rcx,%rax
  1099f7:	48 83 f8 01          	cmp    $0x1,%rax
  1099fb:	0f 94 c0             	sete   %al
  1099fe:	24 01                	and    $0x1,%al
  109a00:	0f b6 c0             	movzbl %al,%eax
  109a03:	59                   	pop    %rcx
  109a04:	c3                   	retq   
  109a05:	cc                   	int3   
  109a06:	cc                   	int3   
  109a07:	cc                   	int3   
  109a08:	cc                   	int3   
  109a09:	cc                   	int3   
  109a0a:	cc                   	int3   
  109a0b:	cc                   	int3   
  109a0c:	cc                   	int3   
  109a0d:	cc                   	int3   
  109a0e:	cc                   	int3   
  109a0f:	cc                   	int3   

0000000000109a10 <_ZN4core6option15Option$LT$T$GT$7is_some17hba8f4b07f48a4bb9E>:
  109a10:	50                   	push   %rax
  109a11:	48 89 3c 24          	mov    %rdi,(%rsp)
  109a15:	48 83 3f 01          	cmpq   $0x1,(%rdi)
  109a19:	0f 94 c0             	sete   %al
  109a1c:	24 01                	and    $0x1,%al
  109a1e:	0f b6 c0             	movzbl %al,%eax
  109a21:	59                   	pop    %rcx
  109a22:	c3                   	retq   
  109a23:	cc                   	int3   
  109a24:	cc                   	int3   
  109a25:	cc                   	int3   
  109a26:	cc                   	int3   
  109a27:	cc                   	int3   
  109a28:	cc                   	int3   
  109a29:	cc                   	int3   
  109a2a:	cc                   	int3   
  109a2b:	cc                   	int3   
  109a2c:	cc                   	int3   
  109a2d:	cc                   	int3   
  109a2e:	cc                   	int3   
  109a2f:	cc                   	int3   

0000000000109a30 <_ZN4core6option15Option$LT$T$GT$7is_some17hf324e65b0335ac2bE>:
  109a30:	50                   	push   %rax
  109a31:	48 89 3c 24          	mov    %rdi,(%rsp)
  109a35:	48 8b 17             	mov    (%rdi),%rdx
  109a38:	b8 01 00 00 00       	mov    $0x1,%eax
  109a3d:	31 c9                	xor    %ecx,%ecx
  109a3f:	48 83 fa 00          	cmp    $0x0,%rdx
  109a43:	48 0f 44 c1          	cmove  %rcx,%rax
  109a47:	48 83 f8 01          	cmp    $0x1,%rax
  109a4b:	0f 94 c0             	sete   %al
  109a4e:	24 01                	and    $0x1,%al
  109a50:	0f b6 c0             	movzbl %al,%eax
  109a53:	59                   	pop    %rcx
  109a54:	c3                   	retq   
  109a55:	cc                   	int3   
  109a56:	cc                   	int3   
  109a57:	cc                   	int3   
  109a58:	cc                   	int3   
  109a59:	cc                   	int3   
  109a5a:	cc                   	int3   
  109a5b:	cc                   	int3   
  109a5c:	cc                   	int3   
  109a5d:	cc                   	int3   
  109a5e:	cc                   	int3   
  109a5f:	cc                   	int3   

0000000000109a60 <_ZN4core6option15Option$LT$T$GT$7is_none17h822b411a70578d05E>:
  109a60:	50                   	push   %rax
  109a61:	48 89 3c 24          	mov    %rdi,(%rsp)
  109a65:	e8 76 ff ff ff       	callq  1099e0 <_ZN4core6option15Option$LT$T$GT$7is_some17hadac9aff431b539bE>
  109a6a:	34 ff                	xor    $0xff,%al
  109a6c:	24 01                	and    $0x1,%al
  109a6e:	0f b6 c0             	movzbl %al,%eax
  109a71:	59                   	pop    %rcx
  109a72:	c3                   	retq   
  109a73:	cc                   	int3   
  109a74:	cc                   	int3   
  109a75:	cc                   	int3   
  109a76:	cc                   	int3   
  109a77:	cc                   	int3   
  109a78:	cc                   	int3   
  109a79:	cc                   	int3   
  109a7a:	cc                   	int3   
  109a7b:	cc                   	int3   
  109a7c:	cc                   	int3   
  109a7d:	cc                   	int3   
  109a7e:	cc                   	int3   
  109a7f:	cc                   	int3   

0000000000109a80 <_ZN4core6option15Option$LT$T$GT$7is_none17hee5fa034a2a36550E>:
  109a80:	50                   	push   %rax
  109a81:	48 89 3c 24          	mov    %rdi,(%rsp)
  109a85:	e8 86 ff ff ff       	callq  109a10 <_ZN4core6option15Option$LT$T$GT$7is_some17hba8f4b07f48a4bb9E>
  109a8a:	34 ff                	xor    $0xff,%al
  109a8c:	24 01                	and    $0x1,%al
  109a8e:	0f b6 c0             	movzbl %al,%eax
  109a91:	59                   	pop    %rcx
  109a92:	c3                   	retq   
  109a93:	cc                   	int3   
  109a94:	cc                   	int3   
  109a95:	cc                   	int3   
  109a96:	cc                   	int3   
  109a97:	cc                   	int3   
  109a98:	cc                   	int3   
  109a99:	cc                   	int3   
  109a9a:	cc                   	int3   
  109a9b:	cc                   	int3   
  109a9c:	cc                   	int3   
  109a9d:	cc                   	int3   
  109a9e:	cc                   	int3   
  109a9f:	cc                   	int3   

0000000000109aa0 <_ZN4core6option15Option$LT$T$GT$6as_mut17hd7d654ef913791f3E>:
  109aa0:	48 83 ec 20          	sub    $0x20,%rsp
  109aa4:	48 89 3c 24          	mov    %rdi,(%rsp)
  109aa8:	48 89 7c 24 10       	mov    %rdi,0x10(%rsp)
  109aad:	48 8b 17             	mov    (%rdi),%rdx
  109ab0:	b8 01 00 00 00       	mov    $0x1,%eax
  109ab5:	31 c9                	xor    %ecx,%ecx
  109ab7:	48 83 fa 00          	cmp    $0x0,%rdx
  109abb:	48 0f 44 c1          	cmove  %rcx,%rax
  109abf:	48 83 f8 00          	cmp    $0x0,%rax
  109ac3:	75 0b                	jne    109ad0 <_ZN4core6option15Option$LT$T$GT$6as_mut17hd7d654ef913791f3E+0x30>
  109ac5:	48 c7 44 24 08 00 00 	movq   $0x0,0x8(%rsp)
  109acc:	00 00 
  109ace:	eb 0e                	jmp    109ade <_ZN4core6option15Option$LT$T$GT$6as_mut17hd7d654ef913791f3E+0x3e>
  109ad0:	48 8b 04 24          	mov    (%rsp),%rax
  109ad4:	48 89 44 24 18       	mov    %rax,0x18(%rsp)
  109ad9:	48 89 44 24 08       	mov    %rax,0x8(%rsp)
  109ade:	48 8b 44 24 08       	mov    0x8(%rsp),%rax
  109ae3:	48 83 c4 20          	add    $0x20,%rsp
  109ae7:	c3                   	retq   
  109ae8:	cc                   	int3   
  109ae9:	cc                   	int3   
  109aea:	cc                   	int3   
  109aeb:	cc                   	int3   
  109aec:	cc                   	int3   
  109aed:	cc                   	int3   
  109aee:	cc                   	int3   
  109aef:	cc                   	int3   

0000000000109af0 <_ZN4core6option15Option$LT$T$GT$6expect17h6715039b95b378a5E>:
  109af0:	48 83 ec 48          	sub    $0x48,%rsp
  109af4:	4c 89 44 24 08       	mov    %r8,0x8(%rsp)
  109af9:	48 89 4c 24 10       	mov    %rcx,0x10(%rsp)
  109afe:	48 89 54 24 18       	mov    %rdx,0x18(%rsp)
  109b03:	48 89 7c 24 20       	mov    %rdi,0x20(%rsp)
  109b08:	48 89 74 24 28       	mov    %rsi,0x28(%rsp)
  109b0d:	48 89 54 24 30       	mov    %rdx,0x30(%rsp)
  109b12:	48 89 4c 24 38       	mov    %rcx,0x38(%rsp)
  109b17:	48 83 7c 24 20 00    	cmpq   $0x0,0x20(%rsp)
  109b1d:	75 16                	jne    109b35 <_ZN4core6option15Option$LT$T$GT$6expect17h6715039b95b378a5E+0x45>
  109b1f:	48 8b 54 24 08       	mov    0x8(%rsp),%rdx
  109b24:	48 8b 74 24 10       	mov    0x10(%rsp),%rsi
  109b29:	48 8b 7c 24 18       	mov    0x18(%rsp),%rdi
  109b2e:	e8 ad 02 00 00       	callq  109de0 <_ZN4core6option13expect_failed17hd8db7942ac8bbddfE>
  109b33:	0f 0b                	ud2    
  109b35:	48 8b 44 24 28       	mov    0x28(%rsp),%rax
  109b3a:	48 89 44 24 40       	mov    %rax,0x40(%rsp)
  109b3f:	48 83 c4 48          	add    $0x48,%rsp
  109b43:	c3                   	retq   
  109b44:	cc                   	int3   
  109b45:	cc                   	int3   
  109b46:	cc                   	int3   
  109b47:	cc                   	int3   
  109b48:	cc                   	int3   
  109b49:	cc                   	int3   
  109b4a:	cc                   	int3   
  109b4b:	cc                   	int3   
  109b4c:	cc                   	int3   
  109b4d:	cc                   	int3   
  109b4e:	cc                   	int3   
  109b4f:	cc                   	int3   

0000000000109b50 <_ZN4core6option15Option$LT$T$GT$6unwrap17h52390f095d991adeE>:
  109b50:	48 83 ec 18          	sub    $0x18,%rsp
  109b54:	48 89 74 24 08       	mov    %rsi,0x8(%rsp)
  109b59:	89 7c 24 10          	mov    %edi,0x10(%rsp)
  109b5d:	b8 01 00 00 00       	mov    $0x1,%eax
  109b62:	31 c9                	xor    %ecx,%ecx
  109b64:	81 7c 24 10 00 00 11 	cmpl   $0x110000,0x10(%rsp)
  109b6b:	00 
  109b6c:	48 0f 44 c1          	cmove  %rcx,%rax
  109b70:	48 83 f8 00          	cmp    $0x0,%rax
  109b74:	75 18                	jne    109b8e <_ZN4core6option15Option$LT$T$GT$6unwrap17h52390f095d991adeE+0x3e>
  109b76:	48 8b 54 24 08       	mov    0x8(%rsp),%rdx
  109b7b:	48 8d 3d 80 74 ff ff 	lea    -0x8b80(%rip),%rdi        # 101002 <str.2+0x102>
  109b82:	be 2b 00 00 00       	mov    $0x2b,%esi
  109b87:	e8 a4 b8 ff ff       	callq  105430 <_ZN4core9panicking5panic17h4e18ef80ec7677b0E>
  109b8c:	0f 0b                	ud2    
  109b8e:	8b 44 24 10          	mov    0x10(%rsp),%eax
  109b92:	89 44 24 14          	mov    %eax,0x14(%rsp)
  109b96:	48 83 c4 18          	add    $0x18,%rsp
  109b9a:	c3                   	retq   
  109b9b:	cc                   	int3   
  109b9c:	cc                   	int3   
  109b9d:	cc                   	int3   
  109b9e:	cc                   	int3   
  109b9f:	cc                   	int3   

0000000000109ba0 <_ZN4core6option15Option$LT$T$GT$9unwrap_or17he98115044b3fc8bdE>:
  109ba0:	48 83 ec 58          	sub    $0x58,%rsp
  109ba4:	48 89 0c 24          	mov    %rcx,(%rsp)
  109ba8:	48 89 54 24 08       	mov    %rdx,0x8(%rsp)
  109bad:	48 89 7c 24 10       	mov    %rdi,0x10(%rsp)
  109bb2:	48 89 74 24 18       	mov    %rsi,0x18(%rsp)
  109bb7:	48 89 54 24 38       	mov    %rdx,0x38(%rsp)
  109bbc:	48 89 4c 24 40       	mov    %rcx,0x40(%rsp)
  109bc1:	c6 44 24 37 00       	movb   $0x0,0x37(%rsp)
  109bc6:	c6 44 24 37 01       	movb   $0x1,0x37(%rsp)
  109bcb:	48 8b 54 24 10       	mov    0x10(%rsp),%rdx
  109bd0:	b8 01 00 00 00       	mov    $0x1,%eax
  109bd5:	31 c9                	xor    %ecx,%ecx
  109bd7:	48 83 fa 00          	cmp    $0x0,%rdx
  109bdb:	48 0f 44 c1          	cmove  %rcx,%rax
  109bdf:	48 83 f8 00          	cmp    $0x0,%rax
  109be3:	75 1a                	jne    109bff <_ZN4core6option15Option$LT$T$GT$9unwrap_or17he98115044b3fc8bdE+0x5f>
  109be5:	48 8b 04 24          	mov    (%rsp),%rax
  109be9:	48 8b 4c 24 08       	mov    0x8(%rsp),%rcx
  109bee:	c6 44 24 37 00       	movb   $0x0,0x37(%rsp)
  109bf3:	48 89 4c 24 20       	mov    %rcx,0x20(%rsp)
  109bf8:	48 89 44 24 28       	mov    %rax,0x28(%rsp)
  109bfd:	eb 1e                	jmp    109c1d <_ZN4core6option15Option$LT$T$GT$9unwrap_or17he98115044b3fc8bdE+0x7d>
  109bff:	48 8b 4c 24 10       	mov    0x10(%rsp),%rcx
  109c04:	48 8b 44 24 18       	mov    0x18(%rsp),%rax
  109c09:	48 89 4c 24 48       	mov    %rcx,0x48(%rsp)
  109c0e:	48 89 44 24 50       	mov    %rax,0x50(%rsp)
  109c13:	48 89 4c 24 20       	mov    %rcx,0x20(%rsp)
  109c18:	48 89 44 24 28       	mov    %rax,0x28(%rsp)
  109c1d:	f6 44 24 37 01       	testb  $0x1,0x37(%rsp)
  109c22:	75 0f                	jne    109c33 <_ZN4core6option15Option$LT$T$GT$9unwrap_or17he98115044b3fc8bdE+0x93>
  109c24:	48 8b 44 24 20       	mov    0x20(%rsp),%rax
  109c29:	48 8b 54 24 28       	mov    0x28(%rsp),%rdx
  109c2e:	48 83 c4 58          	add    $0x58,%rsp
  109c32:	c3                   	retq   
  109c33:	eb ef                	jmp    109c24 <_ZN4core6option15Option$LT$T$GT$9unwrap_or17he98115044b3fc8bdE+0x84>
  109c35:	cc                   	int3   
  109c36:	cc                   	int3   
  109c37:	cc                   	int3   
  109c38:	cc                   	int3   
  109c39:	cc                   	int3   
  109c3a:	cc                   	int3   
  109c3b:	cc                   	int3   
  109c3c:	cc                   	int3   
  109c3d:	cc                   	int3   
  109c3e:	cc                   	int3   
  109c3f:	cc                   	int3   

0000000000109c40 <_ZN4core6option15Option$LT$T$GT$16unwrap_unchecked17h5ca499da220c00afE>:
  109c40:	48 83 ec 18          	sub    $0x18,%rsp
  109c44:	48 89 34 24          	mov    %rsi,(%rsp)
  109c48:	48 89 7c 24 08       	mov    %rdi,0x8(%rsp)
  109c4d:	b0 01                	mov    $0x1,%al
  109c4f:	a8 01                	test   $0x1,%al
  109c51:	75 1c                	jne    109c6f <_ZN4core6option15Option$LT$T$GT$16unwrap_unchecked17h5ca499da220c00afE+0x2f>
  109c53:	48 8b 54 24 08       	mov    0x8(%rsp),%rdx
  109c58:	b8 01 00 00 00       	mov    $0x1,%eax
  109c5d:	31 c9                	xor    %ecx,%ecx
  109c5f:	48 83 fa 00          	cmp    $0x0,%rdx
  109c63:	48 0f 44 c1          	cmove  %rcx,%rax
  109c67:	48 83 f8 00          	cmp    $0x0,%rax
  109c6b:	74 2b                	je     109c98 <_ZN4core6option15Option$LT$T$GT$16unwrap_unchecked17h5ca499da220c00afE+0x58>
  109c6d:	eb 30                	jmp    109c9f <_ZN4core6option15Option$LT$T$GT$16unwrap_unchecked17h5ca499da220c00afE+0x5f>
  109c6f:	48 8d 7c 24 08       	lea    0x8(%rsp),%rdi
  109c74:	e8 37 fd ff ff       	callq  1099b0 <_ZN4core6option15Option$LT$T$GT$7is_some17h37d287905bf68111E>
  109c79:	34 ff                	xor    $0xff,%al
  109c7b:	a8 01                	test   $0x1,%al
  109c7d:	75 02                	jne    109c81 <_ZN4core6option15Option$LT$T$GT$16unwrap_unchecked17h5ca499da220c00afE+0x41>
  109c7f:	eb d2                	jmp    109c53 <_ZN4core6option15Option$LT$T$GT$16unwrap_unchecked17h5ca499da220c00afE+0x13>
  109c81:	48 8b 14 24          	mov    (%rsp),%rdx
  109c85:	48 8d 3d 05 6c ff ff 	lea    -0x93fb(%rip),%rdi        # 100891 <str.1+0x21>
  109c8c:	be 20 00 00 00       	mov    $0x20,%esi
  109c91:	e8 9a b7 ff ff       	callq  105430 <_ZN4core9panicking5panic17h4e18ef80ec7677b0E>
  109c96:	0f 0b                	ud2    
  109c98:	e8 d3 a2 ff ff       	callq  103f70 <_ZN4core4hint21unreachable_unchecked17he0154c08f1602db1E>
  109c9d:	0f 0b                	ud2    
  109c9f:	48 8b 44 24 08       	mov    0x8(%rsp),%rax
  109ca4:	48 89 44 24 10       	mov    %rax,0x10(%rsp)
  109ca9:	48 83 c4 18          	add    $0x18,%rsp
  109cad:	c3                   	retq   
  109cae:	cc                   	int3   
  109caf:	cc                   	int3   

0000000000109cb0 <_ZN4core6option15Option$LT$T$GT$16unwrap_unchecked17haf2caca11907119bE>:
  109cb0:	48 83 ec 18          	sub    $0x18,%rsp
  109cb4:	48 89 34 24          	mov    %rsi,(%rsp)
  109cb8:	48 89 7c 24 08       	mov    %rdi,0x8(%rsp)
  109cbd:	b0 01                	mov    $0x1,%al
  109cbf:	a8 01                	test   $0x1,%al
  109cc1:	75 1c                	jne    109cdf <_ZN4core6option15Option$LT$T$GT$16unwrap_unchecked17haf2caca11907119bE+0x2f>
  109cc3:	48 8b 54 24 08       	mov    0x8(%rsp),%rdx
  109cc8:	b8 01 00 00 00       	mov    $0x1,%eax
  109ccd:	31 c9                	xor    %ecx,%ecx
  109ccf:	48 83 fa 00          	cmp    $0x0,%rdx
  109cd3:	48 0f 44 c1          	cmove  %rcx,%rax
  109cd7:	48 83 f8 00          	cmp    $0x0,%rax
  109cdb:	74 2b                	je     109d08 <_ZN4core6option15Option$LT$T$GT$16unwrap_unchecked17haf2caca11907119bE+0x58>
  109cdd:	eb 30                	jmp    109d0f <_ZN4core6option15Option$LT$T$GT$16unwrap_unchecked17haf2caca11907119bE+0x5f>
  109cdf:	48 8d 7c 24 08       	lea    0x8(%rsp),%rdi
  109ce4:	e8 47 fd ff ff       	callq  109a30 <_ZN4core6option15Option$LT$T$GT$7is_some17hf324e65b0335ac2bE>
  109ce9:	34 ff                	xor    $0xff,%al
  109ceb:	a8 01                	test   $0x1,%al
  109ced:	75 02                	jne    109cf1 <_ZN4core6option15Option$LT$T$GT$16unwrap_unchecked17haf2caca11907119bE+0x41>
  109cef:	eb d2                	jmp    109cc3 <_ZN4core6option15Option$LT$T$GT$16unwrap_unchecked17haf2caca11907119bE+0x13>
  109cf1:	48 8b 14 24          	mov    (%rsp),%rdx
  109cf5:	48 8d 3d 95 6b ff ff 	lea    -0x946b(%rip),%rdi        # 100891 <str.1+0x21>
  109cfc:	be 20 00 00 00       	mov    $0x20,%esi
  109d01:	e8 2a b7 ff ff       	callq  105430 <_ZN4core9panicking5panic17h4e18ef80ec7677b0E>
  109d06:	0f 0b                	ud2    
  109d08:	e8 63 a2 ff ff       	callq  103f70 <_ZN4core4hint21unreachable_unchecked17he0154c08f1602db1E>
  109d0d:	0f 0b                	ud2    
  109d0f:	48 8b 44 24 08       	mov    0x8(%rsp),%rax
  109d14:	48 89 44 24 10       	mov    %rax,0x10(%rsp)
  109d19:	48 83 c4 18          	add    $0x18,%rsp
  109d1d:	c3                   	retq   
  109d1e:	cc                   	int3   
  109d1f:	cc                   	int3   

0000000000109d20 <_ZN4core6option15Option$LT$T$GT$3map17h98b2951c4f70eb23E>:
  109d20:	48 83 ec 28          	sub    $0x28,%rsp
  109d24:	89 7c 24 08          	mov    %edi,0x8(%rsp)
  109d28:	89 74 24 0c          	mov    %esi,0xc(%rsp)
  109d2c:	c6 44 24 1f 00       	movb   $0x0,0x1f(%rsp)
  109d31:	c6 44 24 1f 01       	movb   $0x1,0x1f(%rsp)
  109d36:	8b 44 24 08          	mov    0x8(%rsp),%eax
  109d3a:	48 83 f8 00          	cmp    $0x0,%rax
  109d3e:	75 0a                	jne    109d4a <_ZN4core6option15Option$LT$T$GT$3map17h98b2951c4f70eb23E+0x2a>
  109d40:	c7 44 24 14 00 00 11 	movl   $0x110000,0x14(%rsp)
  109d47:	00 
  109d48:	eb 1e                	jmp    109d68 <_ZN4core6option15Option$LT$T$GT$3map17h98b2951c4f70eb23E+0x48>
  109d4a:	8b 44 24 0c          	mov    0xc(%rsp),%eax
  109d4e:	89 44 24 24          	mov    %eax,0x24(%rsp)
  109d52:	c6 44 24 1f 00       	movb   $0x0,0x1f(%rsp)
  109d57:	89 44 24 18          	mov    %eax,0x18(%rsp)
  109d5b:	8b 7c 24 18          	mov    0x18(%rsp),%edi
  109d5f:	e8 7c b1 ff ff       	callq  104ee0 <_ZN81_$LT$core..str..iter..Chars$u20$as$u20$core..iter..traits..iterator..Iterator$GT$4next28_$u7b$$u7b$closure$u7d$$u7d$17h38ee9dc24863a79aE>
  109d64:	89 44 24 14          	mov    %eax,0x14(%rsp)
  109d68:	f6 44 24 1f 01       	testb  $0x1,0x1f(%rsp)
  109d6d:	75 09                	jne    109d78 <_ZN4core6option15Option$LT$T$GT$3map17h98b2951c4f70eb23E+0x58>
  109d6f:	8b 44 24 14          	mov    0x14(%rsp),%eax
  109d73:	48 83 c4 28          	add    $0x28,%rsp
  109d77:	c3                   	retq   
  109d78:	eb f5                	jmp    109d6f <_ZN4core6option15Option$LT$T$GT$3map17h98b2951c4f70eb23E+0x4f>
  109d7a:	cc                   	int3   
  109d7b:	cc                   	int3   
  109d7c:	cc                   	int3   
  109d7d:	cc                   	int3   
  109d7e:	cc                   	int3   
  109d7f:	cc                   	int3   

0000000000109d80 <_ZN4core6option15Option$LT$T$GT$6insert17hf527e71078e5780eE>:
  109d80:	48 83 ec 28          	sub    $0x28,%rsp
  109d84:	48 89 7c 24 20       	mov    %rdi,0x20(%rsp)
  109d89:	48 8b 06             	mov    (%rsi),%rax
  109d8c:	48 89 44 24 08       	mov    %rax,0x8(%rsp)
  109d91:	48 8b 46 08          	mov    0x8(%rsi),%rax
  109d95:	48 89 44 24 10       	mov    %rax,0x10(%rsp)
  109d9a:	48 8b 46 10          	mov    0x10(%rsi),%rax
  109d9e:	48 89 44 24 18       	mov    %rax,0x18(%rsp)
  109da3:	48 8b 44 24 08       	mov    0x8(%rsp),%rax
  109da8:	48 89 07             	mov    %rax,(%rdi)
  109dab:	48 8b 44 24 10       	mov    0x10(%rsp),%rax
  109db0:	48 89 47 08          	mov    %rax,0x8(%rdi)
  109db4:	48 8b 44 24 18       	mov    0x18(%rsp),%rax
  109db9:	48 89 47 10          	mov    %rax,0x10(%rdi)
  109dbd:	e8 de fc ff ff       	callq  109aa0 <_ZN4core6option15Option$LT$T$GT$6as_mut17hd7d654ef913791f3E>
  109dc2:	48 89 c7             	mov    %rax,%rdi
  109dc5:	48 8d 35 6c 83 00 00 	lea    0x836c(%rip),%rsi        # 112138 <_ZN4core3fmt2rt12USIZE_MARKER17h1b31419084dfd5e3E+0x740>
  109dcc:	e8 6f fe ff ff       	callq  109c40 <_ZN4core6option15Option$LT$T$GT$16unwrap_unchecked17h5ca499da220c00afE>
  109dd1:	48 83 c4 28          	add    $0x28,%rsp
  109dd5:	c3                   	retq   
  109dd6:	cc                   	int3   
  109dd7:	cc                   	int3   
  109dd8:	cc                   	int3   
  109dd9:	cc                   	int3   
  109dda:	cc                   	int3   
  109ddb:	cc                   	int3   
  109ddc:	cc                   	int3   
  109ddd:	cc                   	int3   
  109dde:	cc                   	int3   
  109ddf:	cc                   	int3   

0000000000109de0 <_ZN4core6option13expect_failed17hd8db7942ac8bbddfE>:
  109de0:	48 83 ec 18          	sub    $0x18,%rsp
  109de4:	48 89 7c 24 08       	mov    %rdi,0x8(%rsp)
  109de9:	48 89 74 24 10       	mov    %rsi,0x10(%rsp)
  109dee:	e8 dd b6 ff ff       	callq  1054d0 <_ZN4core9panicking9panic_str17h991b9aac80059701E>
  109df3:	0f 0b                	ud2    
  109df5:	cc                   	int3   
  109df6:	cc                   	int3   
  109df7:	cc                   	int3   
  109df8:	cc                   	int3   
  109df9:	cc                   	int3   
  109dfa:	cc                   	int3   
  109dfb:	cc                   	int3   
  109dfc:	cc                   	int3   
  109dfd:	cc                   	int3   
  109dfe:	cc                   	int3   
  109dff:	cc                   	int3   

0000000000109e00 <_ZN75_$LT$core..option..Option$LT$T$GT$$u20$as$u20$core..ops..try_trait..Try$GT$6branch17h26fbbccdd3459f58E>:
  109e00:	48 83 ec 10          	sub    $0x10,%rsp
  109e04:	40 88 f8             	mov    %dil,%al
  109e07:	24 01                	and    $0x1,%al
  109e09:	88 44 24 06          	mov    %al,0x6(%rsp)
  109e0d:	8a 44 24 06          	mov    0x6(%rsp),%al
  109e11:	24 01                	and    $0x1,%al
  109e13:	0f b6 c0             	movzbl %al,%eax
  109e16:	48 83 f8 00          	cmp    $0x0,%rax
  109e1a:	75 07                	jne    109e23 <_ZN75_$LT$core..option..Option$LT$T$GT$$u20$as$u20$core..ops..try_trait..Try$GT$6branch17h26fbbccdd3459f58E+0x23>
  109e1c:	c6 44 24 07 01       	movb   $0x1,0x7(%rsp)
  109e21:	eb 05                	jmp    109e28 <_ZN75_$LT$core..option..Option$LT$T$GT$$u20$as$u20$core..ops..try_trait..Try$GT$6branch17h26fbbccdd3459f58E+0x28>
  109e23:	c6 44 24 07 00       	movb   $0x0,0x7(%rsp)
  109e28:	8a 44 24 07          	mov    0x7(%rsp),%al
  109e2c:	24 01                	and    $0x1,%al
  109e2e:	0f b6 c0             	movzbl %al,%eax
  109e31:	48 83 c4 10          	add    $0x10,%rsp
  109e35:	c3                   	retq   
  109e36:	cc                   	int3   
  109e37:	cc                   	int3   
  109e38:	cc                   	int3   
  109e39:	cc                   	int3   
  109e3a:	cc                   	int3   
  109e3b:	cc                   	int3   
  109e3c:	cc                   	int3   
  109e3d:	cc                   	int3   
  109e3e:	cc                   	int3   
  109e3f:	cc                   	int3   

0000000000109e40 <_ZN75_$LT$core..option..Option$LT$T$GT$$u20$as$u20$core..ops..try_trait..Try$GT$6branch17h323e4d64456a61c8E>:
  109e40:	48 83 ec 30          	sub    $0x30,%rsp
  109e44:	48 89 3c 24          	mov    %rdi,(%rsp)
  109e48:	48 89 74 24 08       	mov    %rsi,0x8(%rsp)
  109e4d:	48 8b 14 24          	mov    (%rsp),%rdx
  109e51:	b8 01 00 00 00       	mov    $0x1,%eax
  109e56:	31 c9                	xor    %ecx,%ecx
  109e58:	48 83 fa 00          	cmp    $0x0,%rdx
  109e5c:	48 0f 44 c1          	cmove  %rcx,%rax
  109e60:	48 83 f8 00          	cmp    $0x0,%rax
  109e64:	75 0b                	jne    109e71 <_ZN75_$LT$core..option..Option$LT$T$GT$$u20$as$u20$core..ops..try_trait..Try$GT$6branch17h323e4d64456a61c8E+0x31>
  109e66:	48 c7 44 24 10 00 00 	movq   $0x0,0x10(%rsp)
  109e6d:	00 00 
  109e6f:	eb 1d                	jmp    109e8e <_ZN75_$LT$core..option..Option$LT$T$GT$$u20$as$u20$core..ops..try_trait..Try$GT$6branch17h323e4d64456a61c8E+0x4e>
  109e71:	48 8b 0c 24          	mov    (%rsp),%rcx
  109e75:	48 8b 44 24 08       	mov    0x8(%rsp),%rax
  109e7a:	48 89 4c 24 20       	mov    %rcx,0x20(%rsp)
  109e7f:	48 89 44 24 28       	mov    %rax,0x28(%rsp)
  109e84:	48 89 4c 24 10       	mov    %rcx,0x10(%rsp)
  109e89:	48 89 44 24 18       	mov    %rax,0x18(%rsp)
  109e8e:	48 8b 44 24 10       	mov    0x10(%rsp),%rax
  109e93:	48 8b 54 24 18       	mov    0x18(%rsp),%rdx
  109e98:	48 83 c4 30          	add    $0x30,%rsp
  109e9c:	c3                   	retq   
  109e9d:	cc                   	int3   
  109e9e:	cc                   	int3   
  109e9f:	cc                   	int3   

0000000000109ea0 <_ZN75_$LT$core..option..Option$LT$T$GT$$u20$as$u20$core..ops..try_trait..Try$GT$6branch17h5d6240145f98eca2E>:
  109ea0:	48 83 ec 18          	sub    $0x18,%rsp
  109ea4:	48 89 3c 24          	mov    %rdi,(%rsp)
  109ea8:	48 8b 14 24          	mov    (%rsp),%rdx
  109eac:	b8 01 00 00 00       	mov    $0x1,%eax
  109eb1:	31 c9                	xor    %ecx,%ecx
  109eb3:	48 83 fa 00          	cmp    $0x0,%rdx
  109eb7:	48 0f 44 c1          	cmove  %rcx,%rax
  109ebb:	48 83 f8 00          	cmp    $0x0,%rax
  109ebf:	75 0b                	jne    109ecc <_ZN75_$LT$core..option..Option$LT$T$GT$$u20$as$u20$core..ops..try_trait..Try$GT$6branch17h5d6240145f98eca2E+0x2c>
  109ec1:	48 c7 44 24 08 00 00 	movq   $0x0,0x8(%rsp)
  109ec8:	00 00 
  109eca:	eb 0e                	jmp    109eda <_ZN75_$LT$core..option..Option$LT$T$GT$$u20$as$u20$core..ops..try_trait..Try$GT$6branch17h5d6240145f98eca2E+0x3a>
  109ecc:	48 8b 04 24          	mov    (%rsp),%rax
  109ed0:	48 89 44 24 10       	mov    %rax,0x10(%rsp)
  109ed5:	48 89 44 24 08       	mov    %rax,0x8(%rsp)
  109eda:	48 8b 44 24 08       	mov    0x8(%rsp),%rax
  109edf:	48 83 c4 18          	add    $0x18,%rsp
  109ee3:	c3                   	retq   
  109ee4:	cc                   	int3   
  109ee5:	cc                   	int3   
  109ee6:	cc                   	int3   
  109ee7:	cc                   	int3   
  109ee8:	cc                   	int3   
  109ee9:	cc                   	int3   
  109eea:	cc                   	int3   
  109eeb:	cc                   	int3   
  109eec:	cc                   	int3   
  109eed:	cc                   	int3   
  109eee:	cc                   	int3   
  109eef:	cc                   	int3   

0000000000109ef0 <_ZN75_$LT$core..option..Option$LT$T$GT$$u20$as$u20$core..ops..try_trait..Try$GT$6branch17h61459fef099d9ed6E>:
  109ef0:	48 83 ec 18          	sub    $0x18,%rsp
  109ef4:	48 89 3c 24          	mov    %rdi,(%rsp)
  109ef8:	48 8b 14 24          	mov    (%rsp),%rdx
  109efc:	b8 01 00 00 00       	mov    $0x1,%eax
  109f01:	31 c9                	xor    %ecx,%ecx
  109f03:	48 83 fa 00          	cmp    $0x0,%rdx
  109f07:	48 0f 44 c1          	cmove  %rcx,%rax
  109f0b:	48 83 f8 00          	cmp    $0x0,%rax
  109f0f:	75 0b                	jne    109f1c <_ZN75_$LT$core..option..Option$LT$T$GT$$u20$as$u20$core..ops..try_trait..Try$GT$6branch17h61459fef099d9ed6E+0x2c>
  109f11:	48 c7 44 24 08 00 00 	movq   $0x0,0x8(%rsp)
  109f18:	00 00 
  109f1a:	eb 0e                	jmp    109f2a <_ZN75_$LT$core..option..Option$LT$T$GT$$u20$as$u20$core..ops..try_trait..Try$GT$6branch17h61459fef099d9ed6E+0x3a>
  109f1c:	48 8b 04 24          	mov    (%rsp),%rax
  109f20:	48 89 44 24 10       	mov    %rax,0x10(%rsp)
  109f25:	48 89 44 24 08       	mov    %rax,0x8(%rsp)
  109f2a:	48 8b 44 24 08       	mov    0x8(%rsp),%rax
  109f2f:	48 83 c4 18          	add    $0x18,%rsp
  109f33:	c3                   	retq   
  109f34:	cc                   	int3   
  109f35:	cc                   	int3   
  109f36:	cc                   	int3   
  109f37:	cc                   	int3   
  109f38:	cc                   	int3   
  109f39:	cc                   	int3   
  109f3a:	cc                   	int3   
  109f3b:	cc                   	int3   
  109f3c:	cc                   	int3   
  109f3d:	cc                   	int3   
  109f3e:	cc                   	int3   
  109f3f:	cc                   	int3   

0000000000109f40 <_ZN75_$LT$core..option..Option$LT$T$GT$$u20$as$u20$core..ops..try_trait..Try$GT$6branch17hde22d0733497056fE>:
  109f40:	48 83 ec 18          	sub    $0x18,%rsp
  109f44:	48 89 3c 24          	mov    %rdi,(%rsp)
  109f48:	48 8b 14 24          	mov    (%rsp),%rdx
  109f4c:	b8 01 00 00 00       	mov    $0x1,%eax
  109f51:	31 c9                	xor    %ecx,%ecx
  109f53:	48 83 fa 00          	cmp    $0x0,%rdx
  109f57:	48 0f 44 c1          	cmove  %rcx,%rax
  109f5b:	48 83 f8 00          	cmp    $0x0,%rax
  109f5f:	75 0b                	jne    109f6c <_ZN75_$LT$core..option..Option$LT$T$GT$$u20$as$u20$core..ops..try_trait..Try$GT$6branch17hde22d0733497056fE+0x2c>
  109f61:	48 c7 44 24 08 00 00 	movq   $0x0,0x8(%rsp)
  109f68:	00 00 
  109f6a:	eb 0e                	jmp    109f7a <_ZN75_$LT$core..option..Option$LT$T$GT$$u20$as$u20$core..ops..try_trait..Try$GT$6branch17hde22d0733497056fE+0x3a>
  109f6c:	48 8b 04 24          	mov    (%rsp),%rax
  109f70:	48 89 44 24 10       	mov    %rax,0x10(%rsp)
  109f75:	48 89 44 24 08       	mov    %rax,0x8(%rsp)
  109f7a:	48 8b 44 24 08       	mov    0x8(%rsp),%rax
  109f7f:	48 83 c4 18          	add    $0x18,%rsp
  109f83:	c3                   	retq   
  109f84:	cc                   	int3   
  109f85:	cc                   	int3   
  109f86:	cc                   	int3   
  109f87:	cc                   	int3   
  109f88:	cc                   	int3   
  109f89:	cc                   	int3   
  109f8a:	cc                   	int3   
  109f8b:	cc                   	int3   
  109f8c:	cc                   	int3   
  109f8d:	cc                   	int3   
  109f8e:	cc                   	int3   
  109f8f:	cc                   	int3   

0000000000109f90 <_ZN84_$LT$core..option..Option$LT$T$GT$$u20$as$u20$core..ops..try_trait..FromResidual$GT$13from_residual17h1cf9256cdfeec632E>:
  109f90:	48 83 ec 20          	sub    $0x20,%rsp
  109f94:	48 c7 44 24 10 00 00 	movq   $0x0,0x10(%rsp)
  109f9b:	00 00 
  109f9d:	48 8b 44 24 08       	mov    0x8(%rsp),%rax
  109fa2:	48 8b 54 24 10       	mov    0x10(%rsp),%rdx
  109fa7:	48 83 c4 20          	add    $0x20,%rsp
  109fab:	c3                   	retq   
  109fac:	cc                   	int3   
  109fad:	cc                   	int3   
  109fae:	cc                   	int3   
  109faf:	cc                   	int3   

0000000000109fb0 <_ZN84_$LT$core..option..Option$LT$T$GT$$u20$as$u20$core..ops..try_trait..FromResidual$GT$13from_residual17h69423d71766a17bbE>:
  109fb0:	48 83 ec 18          	sub    $0x18,%rsp
  109fb4:	c7 44 24 08 00 00 00 	movl   $0x0,0x8(%rsp)
  109fbb:	00 
  109fbc:	8b 44 24 08          	mov    0x8(%rsp),%eax
  109fc0:	8b 54 24 0c          	mov    0xc(%rsp),%edx
  109fc4:	48 83 c4 18          	add    $0x18,%rsp
  109fc8:	c3                   	retq   
  109fc9:	cc                   	int3   
  109fca:	cc                   	int3   
  109fcb:	cc                   	int3   
  109fcc:	cc                   	int3   
  109fcd:	cc                   	int3   
  109fce:	cc                   	int3   
  109fcf:	cc                   	int3   

0000000000109fd0 <_ZN84_$LT$core..option..Option$LT$T$GT$$u20$as$u20$core..ops..try_trait..FromResidual$GT$13from_residual17hc23bb36d3ad036f9E>:
  109fd0:	48 83 ec 20          	sub    $0x20,%rsp
  109fd4:	c7 44 24 10 00 00 11 	movl   $0x110000,0x10(%rsp)
  109fdb:	00 
  109fdc:	48 8b 44 24 08       	mov    0x8(%rsp),%rax
  109fe1:	8b 54 24 10          	mov    0x10(%rsp),%edx
  109fe5:	48 83 c4 20          	add    $0x20,%rsp
  109fe9:	c3                   	retq   
  109fea:	cc                   	int3   
  109feb:	cc                   	int3   
  109fec:	cc                   	int3   
  109fed:	cc                   	int3   
  109fee:	cc                   	int3   
  109fef:	cc                   	int3   

0000000000109ff0 <_ZN84_$LT$core..option..Option$LT$T$GT$$u20$as$u20$core..ops..try_trait..FromResidual$GT$13from_residual17hd2f5f138d8cf0277E>:
  109ff0:	48 83 ec 20          	sub    $0x20,%rsp
  109ff4:	48 c7 44 24 10 00 00 	movq   $0x0,0x10(%rsp)
  109ffb:	00 00 
  109ffd:	48 8b 44 24 08       	mov    0x8(%rsp),%rax
  10a002:	48 8b 54 24 10       	mov    0x10(%rsp),%rdx
  10a007:	48 83 c4 20          	add    $0x20,%rsp
  10a00b:	c3                   	retq   
  10a00c:	cc                   	int3   
  10a00d:	cc                   	int3   
  10a00e:	cc                   	int3   
  10a00f:	cc                   	int3   

000000000010a010 <_ZN84_$LT$core..option..Option$LT$T$GT$$u20$as$u20$core..ops..try_trait..FromResidual$GT$13from_residual17hff541c032699cd57E>:
  10a010:	48 83 ec 10          	sub    $0x10,%rsp
  10a014:	48 89 f8             	mov    %rdi,%rax
  10a017:	48 c7 07 00 00 00 00 	movq   $0x0,(%rdi)
  10a01e:	48 83 c4 10          	add    $0x10,%rsp
  10a022:	c3                   	retq   
  10a023:	cc                   	int3   
  10a024:	cc                   	int3   
  10a025:	cc                   	int3   
  10a026:	cc                   	int3   
  10a027:	cc                   	int3   
  10a028:	cc                   	int3   
  10a029:	cc                   	int3   
  10a02a:	cc                   	int3   
  10a02b:	cc                   	int3   
  10a02c:	cc                   	int3   
  10a02d:	cc                   	int3   
  10a02e:	cc                   	int3   
  10a02f:	cc                   	int3   

000000000010a030 <_ZN4core3ops8function6FnOnce9call_once17h5f7d3a0c681ed568E>:
  10a030:	48 83 ec 18          	sub    $0x18,%rsp
  10a034:	48 89 3c 24          	mov    %rdi,(%rsp)
  10a038:	48 89 74 24 08       	mov    %rsi,0x8(%rsp)
  10a03d:	48 8b 3c 24          	mov    (%rsp),%rdi
  10a041:	48 8b 74 24 08       	mov    0x8(%rsp),%rsi
  10a046:	e8 95 b2 ff ff       	callq  1052e0 <_ZN4core3cmp5impls50_$LT$impl$u20$core..cmp..Ord$u20$for$u20$usize$GT$3cmp17he2ff75c2ca83d4d4E>
  10a04b:	48 83 c4 18          	add    $0x18,%rsp
  10a04f:	c3                   	retq   

000000000010a050 <_ZN4core3ops8function6FnOnce9call_once17hb0f8ec322f1f70bdE>:
  10a050:	48 83 ec 18          	sub    $0x18,%rsp
  10a054:	48 89 7c 24 08       	mov    %rdi,0x8(%rsp)
  10a059:	48 89 74 24 10       	mov    %rsi,0x10(%rsp)
  10a05e:	48 8b 74 24 08       	mov    0x8(%rsp),%rsi
  10a063:	48 8b 54 24 10       	mov    0x10(%rsp),%rdx
  10a068:	48 89 e7             	mov    %rsp,%rdi
  10a06b:	e8 90 a6 ff ff       	callq  104700 <_ZN4core3fmt2rt12USIZE_MARKER28_$u7b$$u7b$closure$u7d$$u7d$17h8357a0ab275438d1E>
  10a070:	24 01                	and    $0x1,%al
  10a072:	0f b6 c0             	movzbl %al,%eax
  10a075:	48 83 c4 18          	add    $0x18,%rsp
  10a079:	c3                   	retq   
  10a07a:	cc                   	int3   
  10a07b:	cc                   	int3   
  10a07c:	cc                   	int3   
  10a07d:	cc                   	int3   
  10a07e:	cc                   	int3   
  10a07f:	cc                   	int3   

000000000010a080 <_ZN4core3ptr33drop_in_place$LT$$RF$$LP$$RP$$GT$17h3632e9fe79e6e916E>:
  10a080:	50                   	push   %rax
  10a081:	48 89 3c 24          	mov    %rdi,(%rsp)
  10a085:	58                   	pop    %rax
  10a086:	c3                   	retq   
  10a087:	cc                   	int3   
  10a088:	cc                   	int3   
  10a089:	cc                   	int3   
  10a08a:	cc                   	int3   
  10a08b:	cc                   	int3   
  10a08c:	cc                   	int3   
  10a08d:	cc                   	int3   
  10a08e:	cc                   	int3   
  10a08f:	cc                   	int3   

000000000010a090 <_ZN4core3ptr52drop_in_place$LT$core..fmt..builders..PadAdapter$GT$17h88d1ffb9f377e53cE>:
  10a090:	50                   	push   %rax
  10a091:	48 89 3c 24          	mov    %rdi,(%rsp)
  10a095:	58                   	pop    %rax
  10a096:	c3                   	retq   
  10a097:	cc                   	int3   
  10a098:	cc                   	int3   
  10a099:	cc                   	int3   
  10a09a:	cc                   	int3   
  10a09b:	cc                   	int3   
  10a09c:	cc                   	int3   
  10a09d:	cc                   	int3   
  10a09e:	cc                   	int3   
  10a09f:	cc                   	int3   

000000000010a0a0 <_ZN4core3ptr64drop_in_place$LT$$RF$mut$u20$core..fmt..builders..PadAdapter$GT$17h6f5f74139816e019E>:
  10a0a0:	50                   	push   %rax
  10a0a1:	48 89 3c 24          	mov    %rdi,(%rsp)
  10a0a5:	58                   	pop    %rax
  10a0a6:	c3                   	retq   
  10a0a7:	cc                   	int3   
  10a0a8:	cc                   	int3   
  10a0a9:	cc                   	int3   
  10a0aa:	cc                   	int3   
  10a0ab:	cc                   	int3   
  10a0ac:	cc                   	int3   
  10a0ad:	cc                   	int3   
  10a0ae:	cc                   	int3   
  10a0af:	cc                   	int3   

000000000010a0b0 <_ZN4core3ptr88drop_in_place$LT$core..panic..panic_info..PanicInfo..internal_constructor..NoPayload$GT$17hd40f05f3baad1090E>:
  10a0b0:	50                   	push   %rax
  10a0b1:	48 89 3c 24          	mov    %rdi,(%rsp)
  10a0b5:	58                   	pop    %rax
  10a0b6:	c3                   	retq   
  10a0b7:	cc                   	int3   
  10a0b8:	cc                   	int3   
  10a0b9:	cc                   	int3   
  10a0ba:	cc                   	int3   
  10a0bb:	cc                   	int3   
  10a0bc:	cc                   	int3   
  10a0bd:	cc                   	int3   
  10a0be:	cc                   	int3   
  10a0bf:	cc                   	int3   

000000000010a0c0 <_ZN4core4iter8adapters9enumerate18Enumerate$LT$I$GT$3new17h31c516e052a8d5baE>:
  10a0c0:	48 83 ec 10          	sub    $0x10,%rsp
  10a0c4:	48 89 f8             	mov    %rdi,%rax
  10a0c7:	48 89 34 24          	mov    %rsi,(%rsp)
  10a0cb:	48 89 54 24 08       	mov    %rdx,0x8(%rsp)
  10a0d0:	48 89 37             	mov    %rsi,(%rdi)
  10a0d3:	48 89 57 08          	mov    %rdx,0x8(%rdi)
  10a0d7:	48 c7 47 10 00 00 00 	movq   $0x0,0x10(%rdi)
  10a0de:	00 
  10a0df:	48 83 c4 10          	add    $0x10,%rsp
  10a0e3:	c3                   	retq   
  10a0e4:	cc                   	int3   
  10a0e5:	cc                   	int3   
  10a0e6:	cc                   	int3   
  10a0e7:	cc                   	int3   
  10a0e8:	cc                   	int3   
  10a0e9:	cc                   	int3   
  10a0ea:	cc                   	int3   
  10a0eb:	cc                   	int3   
  10a0ec:	cc                   	int3   
  10a0ed:	cc                   	int3   
  10a0ee:	cc                   	int3   
  10a0ef:	cc                   	int3   

000000000010a0f0 <_ZN4core4iter8adapters9enumerate18Enumerate$LT$I$GT$3new17h413b0fbc692bcc77E>:
  10a0f0:	48 83 ec 10          	sub    $0x10,%rsp
  10a0f4:	48 89 f8             	mov    %rdi,%rax
  10a0f7:	48 89 34 24          	mov    %rsi,(%rsp)
  10a0fb:	48 89 54 24 08       	mov    %rdx,0x8(%rsp)
  10a100:	48 89 37             	mov    %rsi,(%rdi)
  10a103:	48 89 57 08          	mov    %rdx,0x8(%rdi)
  10a107:	48 c7 47 10 00 00 00 	movq   $0x0,0x10(%rdi)
  10a10e:	00 
  10a10f:	48 83 c4 10          	add    $0x10,%rsp
  10a113:	c3                   	retq   
  10a114:	cc                   	int3   
  10a115:	cc                   	int3   
  10a116:	cc                   	int3   
  10a117:	cc                   	int3   
  10a118:	cc                   	int3   
  10a119:	cc                   	int3   
  10a11a:	cc                   	int3   
  10a11b:	cc                   	int3   
  10a11c:	cc                   	int3   
  10a11d:	cc                   	int3   
  10a11e:	cc                   	int3   
  10a11f:	cc                   	int3   

000000000010a120 <_ZN110_$LT$core..iter..adapters..enumerate..Enumerate$LT$I$GT$$u20$as$u20$core..iter..traits..iterator..Iterator$GT$4next17h2c189fe417d2f8feE>:
  10a120:	48 83 ec 68          	sub    $0x68,%rsp
  10a124:	48 89 7c 24 18       	mov    %rdi,0x18(%rsp)
  10a129:	48 89 7c 24 50       	mov    %rdi,0x50(%rsp)
  10a12e:	e8 6d 23 00 00       	callq  10c4a0 <_ZN91_$LT$core..slice..iter..Iter$LT$T$GT$$u20$as$u20$core..iter..traits..iterator..Iterator$GT$4next17h500ae09b351b41caE>
  10a133:	48 89 c7             	mov    %rax,%rdi
  10a136:	e8 65 fd ff ff       	callq  109ea0 <_ZN75_$LT$core..option..Option$LT$T$GT$$u20$as$u20$core..ops..try_trait..Try$GT$6branch17h5d6240145f98eca2E>
  10a13b:	48 89 44 24 38       	mov    %rax,0x38(%rsp)
  10a140:	48 8b 54 24 38       	mov    0x38(%rsp),%rdx
  10a145:	31 c0                	xor    %eax,%eax
  10a147:	b9 01 00 00 00       	mov    $0x1,%ecx
  10a14c:	48 83 fa 00          	cmp    $0x0,%rdx
  10a150:	48 0f 44 c1          	cmove  %rcx,%rax
  10a154:	48 83 f8 00          	cmp    $0x0,%rax
  10a158:	75 37                	jne    10a191 <_ZN110_$LT$core..iter..adapters..enumerate..Enumerate$LT$I$GT$$u20$as$u20$core..iter..traits..iterator..Iterator$GT$4next17h2c189fe417d2f8feE+0x71>
  10a15a:	48 8b 44 24 18       	mov    0x18(%rsp),%rax
  10a15f:	48 8b 4c 24 38       	mov    0x38(%rsp),%rcx
  10a164:	48 89 0c 24          	mov    %rcx,(%rsp)
  10a168:	48 89 4c 24 58       	mov    %rcx,0x58(%rsp)
  10a16d:	48 8b 48 10          	mov    0x10(%rax),%rcx
  10a171:	48 89 4c 24 08       	mov    %rcx,0x8(%rsp)
  10a176:	48 89 4c 24 60       	mov    %rcx,0x60(%rsp)
  10a17b:	48 8b 40 10          	mov    0x10(%rax),%rax
  10a17f:	48 83 c0 01          	add    $0x1,%rax
  10a183:	48 89 44 24 10       	mov    %rax,0x10(%rsp)
  10a188:	0f 92 c0             	setb   %al
  10a18b:	a8 01                	test   $0x1,%al
  10a18d:	75 4a                	jne    10a1d9 <_ZN110_$LT$core..iter..adapters..enumerate..Enumerate$LT$I$GT$$u20$as$u20$core..iter..traits..iterator..Iterator$GT$4next17h2c189fe417d2f8feE+0xb9>
  10a18f:	eb 11                	jmp    10a1a2 <_ZN110_$LT$core..iter..adapters..enumerate..Enumerate$LT$I$GT$$u20$as$u20$core..iter..traits..iterator..Iterator$GT$4next17h2c189fe417d2f8feE+0x82>
  10a191:	e8 fa fd ff ff       	callq  109f90 <_ZN84_$LT$core..option..Option$LT$T$GT$$u20$as$u20$core..ops..try_trait..FromResidual$GT$13from_residual17h1cf9256cdfeec632E>
  10a196:	48 89 54 24 30       	mov    %rdx,0x30(%rsp)
  10a19b:	48 89 44 24 28       	mov    %rax,0x28(%rsp)
  10a1a0:	eb 51                	jmp    10a1f3 <_ZN110_$LT$core..iter..adapters..enumerate..Enumerate$LT$I$GT$$u20$as$u20$core..iter..traits..iterator..Iterator$GT$4next17h2c189fe417d2f8feE+0xd3>
  10a1a2:	48 8b 04 24          	mov    (%rsp),%rax
  10a1a6:	48 8b 4c 24 08       	mov    0x8(%rsp),%rcx
  10a1ab:	48 8b 54 24 18       	mov    0x18(%rsp),%rdx
  10a1b0:	48 8b 74 24 10       	mov    0x10(%rsp),%rsi
  10a1b5:	48 89 72 10          	mov    %rsi,0x10(%rdx)
  10a1b9:	48 89 4c 24 40       	mov    %rcx,0x40(%rsp)
  10a1be:	48 89 44 24 48       	mov    %rax,0x48(%rsp)
  10a1c3:	48 8b 4c 24 40       	mov    0x40(%rsp),%rcx
  10a1c8:	48 8b 44 24 48       	mov    0x48(%rsp),%rax
  10a1cd:	48 89 4c 24 28       	mov    %rcx,0x28(%rsp)
  10a1d2:	48 89 44 24 30       	mov    %rax,0x30(%rsp)
  10a1d7:	eb 1a                	jmp    10a1f3 <_ZN110_$LT$core..iter..adapters..enumerate..Enumerate$LT$I$GT$$u20$as$u20$core..iter..traits..iterator..Iterator$GT$4next17h2c189fe417d2f8feE+0xd3>
  10a1d9:	48 8d 3d 50 6f ff ff 	lea    -0x90b0(%rip),%rdi        # 101130 <str.0>
  10a1e0:	48 8d 15 69 7f 00 00 	lea    0x7f69(%rip),%rdx        # 112150 <_ZN4core3fmt2rt12USIZE_MARKER17h1b31419084dfd5e3E+0x758>
  10a1e7:	be 1c 00 00 00       	mov    $0x1c,%esi
  10a1ec:	e8 3f b2 ff ff       	callq  105430 <_ZN4core9panicking5panic17h4e18ef80ec7677b0E>
  10a1f1:	0f 0b                	ud2    
  10a1f3:	48 8b 44 24 28       	mov    0x28(%rsp),%rax
  10a1f8:	48 8b 54 24 30       	mov    0x30(%rsp),%rdx
  10a1fd:	48 83 c4 68          	add    $0x68,%rsp
  10a201:	c3                   	retq   
  10a202:	cc                   	int3   
  10a203:	cc                   	int3   
  10a204:	cc                   	int3   
  10a205:	cc                   	int3   
  10a206:	cc                   	int3   
  10a207:	cc                   	int3   
  10a208:	cc                   	int3   
  10a209:	cc                   	int3   
  10a20a:	cc                   	int3   
  10a20b:	cc                   	int3   
  10a20c:	cc                   	int3   
  10a20d:	cc                   	int3   
  10a20e:	cc                   	int3   
  10a20f:	cc                   	int3   

000000000010a210 <_ZN110_$LT$core..iter..adapters..enumerate..Enumerate$LT$I$GT$$u20$as$u20$core..iter..traits..iterator..Iterator$GT$4next17hb858dbb3c3e60f92E>:
  10a210:	48 83 ec 68          	sub    $0x68,%rsp
  10a214:	48 89 7c 24 18       	mov    %rdi,0x18(%rsp)
  10a219:	48 89 7c 24 50       	mov    %rdi,0x50(%rsp)
  10a21e:	e8 ed 24 00 00       	callq  10c710 <_ZN91_$LT$core..slice..iter..Iter$LT$T$GT$$u20$as$u20$core..iter..traits..iterator..Iterator$GT$4next17hb427a95c8c4e7d23E>
  10a223:	48 89 c7             	mov    %rax,%rdi
  10a226:	e8 c5 fc ff ff       	callq  109ef0 <_ZN75_$LT$core..option..Option$LT$T$GT$$u20$as$u20$core..ops..try_trait..Try$GT$6branch17h61459fef099d9ed6E>
  10a22b:	48 89 44 24 38       	mov    %rax,0x38(%rsp)
  10a230:	48 8b 54 24 38       	mov    0x38(%rsp),%rdx
  10a235:	31 c0                	xor    %eax,%eax
  10a237:	b9 01 00 00 00       	mov    $0x1,%ecx
  10a23c:	48 83 fa 00          	cmp    $0x0,%rdx
  10a240:	48 0f 44 c1          	cmove  %rcx,%rax
  10a244:	48 83 f8 00          	cmp    $0x0,%rax
  10a248:	75 37                	jne    10a281 <_ZN110_$LT$core..iter..adapters..enumerate..Enumerate$LT$I$GT$$u20$as$u20$core..iter..traits..iterator..Iterator$GT$4next17hb858dbb3c3e60f92E+0x71>
  10a24a:	48 8b 44 24 18       	mov    0x18(%rsp),%rax
  10a24f:	48 8b 4c 24 38       	mov    0x38(%rsp),%rcx
  10a254:	48 89 0c 24          	mov    %rcx,(%rsp)
  10a258:	48 89 4c 24 58       	mov    %rcx,0x58(%rsp)
  10a25d:	48 8b 48 10          	mov    0x10(%rax),%rcx
  10a261:	48 89 4c 24 08       	mov    %rcx,0x8(%rsp)
  10a266:	48 89 4c 24 60       	mov    %rcx,0x60(%rsp)
  10a26b:	48 8b 40 10          	mov    0x10(%rax),%rax
  10a26f:	48 83 c0 01          	add    $0x1,%rax
  10a273:	48 89 44 24 10       	mov    %rax,0x10(%rsp)
  10a278:	0f 92 c0             	setb   %al
  10a27b:	a8 01                	test   $0x1,%al
  10a27d:	75 4a                	jne    10a2c9 <_ZN110_$LT$core..iter..adapters..enumerate..Enumerate$LT$I$GT$$u20$as$u20$core..iter..traits..iterator..Iterator$GT$4next17hb858dbb3c3e60f92E+0xb9>
  10a27f:	eb 11                	jmp    10a292 <_ZN110_$LT$core..iter..adapters..enumerate..Enumerate$LT$I$GT$$u20$as$u20$core..iter..traits..iterator..Iterator$GT$4next17hb858dbb3c3e60f92E+0x82>
  10a281:	e8 6a fd ff ff       	callq  109ff0 <_ZN84_$LT$core..option..Option$LT$T$GT$$u20$as$u20$core..ops..try_trait..FromResidual$GT$13from_residual17hd2f5f138d8cf0277E>
  10a286:	48 89 54 24 30       	mov    %rdx,0x30(%rsp)
  10a28b:	48 89 44 24 28       	mov    %rax,0x28(%rsp)
  10a290:	eb 51                	jmp    10a2e3 <_ZN110_$LT$core..iter..adapters..enumerate..Enumerate$LT$I$GT$$u20$as$u20$core..iter..traits..iterator..Iterator$GT$4next17hb858dbb3c3e60f92E+0xd3>
  10a292:	48 8b 04 24          	mov    (%rsp),%rax
  10a296:	48 8b 4c 24 08       	mov    0x8(%rsp),%rcx
  10a29b:	48 8b 54 24 18       	mov    0x18(%rsp),%rdx
  10a2a0:	48 8b 74 24 10       	mov    0x10(%rsp),%rsi
  10a2a5:	48 89 72 10          	mov    %rsi,0x10(%rdx)
  10a2a9:	48 89 4c 24 40       	mov    %rcx,0x40(%rsp)
  10a2ae:	48 89 44 24 48       	mov    %rax,0x48(%rsp)
  10a2b3:	48 8b 4c 24 40       	mov    0x40(%rsp),%rcx
  10a2b8:	48 8b 44 24 48       	mov    0x48(%rsp),%rax
  10a2bd:	48 89 4c 24 28       	mov    %rcx,0x28(%rsp)
  10a2c2:	48 89 44 24 30       	mov    %rax,0x30(%rsp)
  10a2c7:	eb 1a                	jmp    10a2e3 <_ZN110_$LT$core..iter..adapters..enumerate..Enumerate$LT$I$GT$$u20$as$u20$core..iter..traits..iterator..Iterator$GT$4next17hb858dbb3c3e60f92E+0xd3>
  10a2c9:	48 8d 3d 60 6e ff ff 	lea    -0x91a0(%rip),%rdi        # 101130 <str.0>
  10a2d0:	48 8d 15 79 7e 00 00 	lea    0x7e79(%rip),%rdx        # 112150 <_ZN4core3fmt2rt12USIZE_MARKER17h1b31419084dfd5e3E+0x758>
  10a2d7:	be 1c 00 00 00       	mov    $0x1c,%esi
  10a2dc:	e8 4f b1 ff ff       	callq  105430 <_ZN4core9panicking5panic17h4e18ef80ec7677b0E>
  10a2e1:	0f 0b                	ud2    
  10a2e3:	48 8b 44 24 28       	mov    0x28(%rsp),%rax
  10a2e8:	48 8b 54 24 30       	mov    0x30(%rsp),%rdx
  10a2ed:	48 83 c4 68          	add    $0x68,%rsp
  10a2f1:	c3                   	retq   
  10a2f2:	cc                   	int3   
  10a2f3:	cc                   	int3   
  10a2f4:	cc                   	int3   
  10a2f5:	cc                   	int3   
  10a2f6:	cc                   	int3   
  10a2f7:	cc                   	int3   
  10a2f8:	cc                   	int3   
  10a2f9:	cc                   	int3   
  10a2fa:	cc                   	int3   
  10a2fb:	cc                   	int3   
  10a2fc:	cc                   	int3   
  10a2fd:	cc                   	int3   
  10a2fe:	cc                   	int3   
  10a2ff:	cc                   	int3   

000000000010a300 <_ZN63_$LT$I$u20$as$u20$core..iter..traits..collect..IntoIterator$GT$9into_iter17h1226e94fa3936e6eE>:
  10a300:	48 89 f8             	mov    %rdi,%rax
  10a303:	48 8b 0e             	mov    (%rsi),%rcx
  10a306:	48 89 0f             	mov    %rcx,(%rdi)
  10a309:	48 8b 4e 08          	mov    0x8(%rsi),%rcx
  10a30d:	48 89 4f 08          	mov    %rcx,0x8(%rdi)
  10a311:	48 8b 4e 10          	mov    0x10(%rsi),%rcx
  10a315:	48 89 4f 10          	mov    %rcx,0x10(%rdi)
  10a319:	c3                   	retq   
  10a31a:	cc                   	int3   
  10a31b:	cc                   	int3   
  10a31c:	cc                   	int3   
  10a31d:	cc                   	int3   
  10a31e:	cc                   	int3   
  10a31f:	cc                   	int3   

000000000010a320 <_ZN63_$LT$I$u20$as$u20$core..iter..traits..collect..IntoIterator$GT$9into_iter17h97c0325e880dd226E>:
  10a320:	48 89 f8             	mov    %rdi,%rax
  10a323:	48 8b 0e             	mov    (%rsi),%rcx
  10a326:	48 89 0f             	mov    %rcx,(%rdi)
  10a329:	48 8b 4e 08          	mov    0x8(%rsi),%rcx
  10a32d:	48 89 4f 08          	mov    %rcx,0x8(%rdi)
  10a331:	48 8b 4e 10          	mov    0x10(%rsi),%rcx
  10a335:	48 89 4f 10          	mov    %rcx,0x10(%rdi)
  10a339:	c3                   	retq   
  10a33a:	cc                   	int3   
  10a33b:	cc                   	int3   
  10a33c:	cc                   	int3   
  10a33d:	cc                   	int3   
  10a33e:	cc                   	int3   
  10a33f:	cc                   	int3   

000000000010a340 <_ZN4core5slice3raw14from_raw_parts17h1bfb58200c0829d0E>:
  10a340:	48 83 ec 58          	sub    $0x58,%rsp
  10a344:	48 89 74 24 10       	mov    %rsi,0x10(%rsp)
  10a349:	48 89 7c 24 18       	mov    %rdi,0x18(%rsp)
  10a34e:	48 89 7c 24 30       	mov    %rdi,0x30(%rsp)
  10a353:	48 89 74 24 38       	mov    %rsi,0x38(%rsp)
  10a358:	b0 01                	mov    $0x1,%al
  10a35a:	a8 01                	test   $0x1,%al
  10a35c:	75 14                	jne    10a372 <_ZN4core5slice3raw14from_raw_parts17h1bfb58200c0829d0E+0x32>
  10a35e:	48 8b 74 24 10       	mov    0x10(%rsp),%rsi
  10a363:	48 8b 7c 24 18       	mov    0x18(%rsp),%rdi
  10a368:	e8 23 3b 00 00       	callq  10de90 <_ZN4core3ptr20slice_from_raw_parts17hd1a391f166f8679bE>
  10a36d:	48 83 c4 58          	add    $0x58,%rsp
  10a371:	c3                   	retq   
  10a372:	48 8b 44 24 10       	mov    0x10(%rsp),%rax
  10a377:	48 8b 4c 24 18       	mov    0x18(%rsp),%rcx
  10a37c:	48 89 4c 24 20       	mov    %rcx,0x20(%rsp)
  10a381:	48 89 44 24 28       	mov    %rax,0x28(%rsp)
  10a386:	48 8b 7c 24 20       	mov    0x20(%rsp),%rdi
  10a38b:	48 8b 44 24 28       	mov    0x28(%rsp),%rax
  10a390:	48 89 44 24 08       	mov    %rax,0x8(%rsp)
  10a395:	48 89 7c 24 48       	mov    %rdi,0x48(%rsp)
  10a39a:	48 89 44 24 50       	mov    %rax,0x50(%rsp)
  10a39f:	e8 ec 9c ff ff       	callq  104090 <_ZN4core10intrinsics23is_aligned_and_not_null17hd1ffa36aedd8df89E>
  10a3a4:	a8 01                	test   $0x1,%al
  10a3a6:	75 07                	jne    10a3af <_ZN4core5slice3raw14from_raw_parts17h1bfb58200c0829d0E+0x6f>
  10a3a8:	c6 44 24 47 00       	movb   $0x0,0x47(%rsp)
  10a3ad:	eb 10                	jmp    10a3bf <_ZN4core5slice3raw14from_raw_parts17h1bfb58200c0829d0E+0x7f>
  10a3af:	48 8b 7c 24 08       	mov    0x8(%rsp),%rdi
  10a3b4:	e8 57 9d ff ff       	callq  104110 <_ZN4core10intrinsics24is_valid_allocation_size17h63e6e46b28b7017fE>
  10a3b9:	24 01                	and    $0x1,%al
  10a3bb:	88 44 24 47          	mov    %al,0x47(%rsp)
  10a3bf:	8a 44 24 47          	mov    0x47(%rsp),%al
  10a3c3:	34 ff                	xor    $0xff,%al
  10a3c5:	a8 01                	test   $0x1,%al
  10a3c7:	75 02                	jne    10a3cb <_ZN4core5slice3raw14from_raw_parts17h1bfb58200c0829d0E+0x8b>
  10a3c9:	eb 13                	jmp    10a3de <_ZN4core5slice3raw14from_raw_parts17h1bfb58200c0829d0E+0x9e>
  10a3cb:	48 8d 3d 52 6e ff ff 	lea    -0x91ae(%rip),%rdi        # 101224 <str.2+0x24>
  10a3d2:	be a2 00 00 00       	mov    $0xa2,%esi
  10a3d7:	e8 a4 b0 ff ff       	callq  105480 <_ZN4core9panicking14panic_nounwind17hbf97f84b8fd59176E>
  10a3dc:	0f 0b                	ud2    
  10a3de:	e9 7b ff ff ff       	jmpq   10a35e <_ZN4core5slice3raw14from_raw_parts17h1bfb58200c0829d0E+0x1e>
  10a3e3:	cc                   	int3   
  10a3e4:	cc                   	int3   
  10a3e5:	cc                   	int3   
  10a3e6:	cc                   	int3   
  10a3e7:	cc                   	int3   
  10a3e8:	cc                   	int3   
  10a3e9:	cc                   	int3   
  10a3ea:	cc                   	int3   
  10a3eb:	cc                   	int3   
  10a3ec:	cc                   	int3   
  10a3ed:	cc                   	int3   
  10a3ee:	cc                   	int3   
  10a3ef:	cc                   	int3   

000000000010a3f0 <_ZN4core5slice3raw14from_raw_parts17h4a8f6bebb707ad49E>:
  10a3f0:	48 83 ec 58          	sub    $0x58,%rsp
  10a3f4:	48 89 74 24 10       	mov    %rsi,0x10(%rsp)
  10a3f9:	48 89 7c 24 18       	mov    %rdi,0x18(%rsp)
  10a3fe:	48 89 7c 24 30       	mov    %rdi,0x30(%rsp)
  10a403:	48 89 74 24 38       	mov    %rsi,0x38(%rsp)
  10a408:	b0 01                	mov    $0x1,%al
  10a40a:	a8 01                	test   $0x1,%al
  10a40c:	75 14                	jne    10a422 <_ZN4core5slice3raw14from_raw_parts17h4a8f6bebb707ad49E+0x32>
  10a40e:	48 8b 74 24 10       	mov    0x10(%rsp),%rsi
  10a413:	48 8b 7c 24 18       	mov    0x18(%rsp),%rdi
  10a418:	e8 13 3a 00 00       	callq  10de30 <_ZN4core3ptr20slice_from_raw_parts17h35ce652a9161e2eaE>
  10a41d:	48 83 c4 58          	add    $0x58,%rsp
  10a421:	c3                   	retq   
  10a422:	48 8b 44 24 10       	mov    0x10(%rsp),%rax
  10a427:	48 8b 4c 24 18       	mov    0x18(%rsp),%rcx
  10a42c:	48 89 4c 24 20       	mov    %rcx,0x20(%rsp)
  10a431:	48 89 44 24 28       	mov    %rax,0x28(%rsp)
  10a436:	48 8b 7c 24 20       	mov    0x20(%rsp),%rdi
  10a43b:	48 8b 44 24 28       	mov    0x28(%rsp),%rax
  10a440:	48 89 44 24 08       	mov    %rax,0x8(%rsp)
  10a445:	48 89 7c 24 48       	mov    %rdi,0x48(%rsp)
  10a44a:	48 89 44 24 50       	mov    %rax,0x50(%rsp)
  10a44f:	e8 7c 9b ff ff       	callq  103fd0 <_ZN4core10intrinsics23is_aligned_and_not_null17h422372c65f5e568fE>
  10a454:	a8 01                	test   $0x1,%al
  10a456:	75 07                	jne    10a45f <_ZN4core5slice3raw14from_raw_parts17h4a8f6bebb707ad49E+0x6f>
  10a458:	c6 44 24 47 00       	movb   $0x0,0x47(%rsp)
  10a45d:	eb 10                	jmp    10a46f <_ZN4core5slice3raw14from_raw_parts17h4a8f6bebb707ad49E+0x7f>
  10a45f:	48 8b 7c 24 08       	mov    0x8(%rsp),%rdi
  10a464:	e8 67 9c ff ff       	callq  1040d0 <_ZN4core10intrinsics24is_valid_allocation_size17h038fce2ade8e20b2E>
  10a469:	24 01                	and    $0x1,%al
  10a46b:	88 44 24 47          	mov    %al,0x47(%rsp)
  10a46f:	8a 44 24 47          	mov    0x47(%rsp),%al
  10a473:	34 ff                	xor    $0xff,%al
  10a475:	a8 01                	test   $0x1,%al
  10a477:	75 02                	jne    10a47b <_ZN4core5slice3raw14from_raw_parts17h4a8f6bebb707ad49E+0x8b>
  10a479:	eb 13                	jmp    10a48e <_ZN4core5slice3raw14from_raw_parts17h4a8f6bebb707ad49E+0x9e>
  10a47b:	48 8d 3d a2 6d ff ff 	lea    -0x925e(%rip),%rdi        # 101224 <str.2+0x24>
  10a482:	be a2 00 00 00       	mov    $0xa2,%esi
  10a487:	e8 f4 af ff ff       	callq  105480 <_ZN4core9panicking14panic_nounwind17hbf97f84b8fd59176E>
  10a48c:	0f 0b                	ud2    
  10a48e:	e9 7b ff ff ff       	jmpq   10a40e <_ZN4core5slice3raw14from_raw_parts17h4a8f6bebb707ad49E+0x1e>
  10a493:	cc                   	int3   
  10a494:	cc                   	int3   
  10a495:	cc                   	int3   
  10a496:	cc                   	int3   
  10a497:	cc                   	int3   
  10a498:	cc                   	int3   
  10a499:	cc                   	int3   
  10a49a:	cc                   	int3   
  10a49b:	cc                   	int3   
  10a49c:	cc                   	int3   
  10a49d:	cc                   	int3   
  10a49e:	cc                   	int3   
  10a49f:	cc                   	int3   

000000000010a4a0 <_ZN4core5slice3raw14from_raw_parts17h5a4c48e0db5e3da5E>:
  10a4a0:	48 83 ec 58          	sub    $0x58,%rsp
  10a4a4:	48 89 74 24 10       	mov    %rsi,0x10(%rsp)
  10a4a9:	48 89 7c 24 18       	mov    %rdi,0x18(%rsp)
  10a4ae:	48 89 7c 24 30       	mov    %rdi,0x30(%rsp)
  10a4b3:	48 89 74 24 38       	mov    %rsi,0x38(%rsp)
  10a4b8:	b0 01                	mov    $0x1,%al
  10a4ba:	a8 01                	test   $0x1,%al
  10a4bc:	75 14                	jne    10a4d2 <_ZN4core5slice3raw14from_raw_parts17h5a4c48e0db5e3da5E+0x32>
  10a4be:	48 8b 74 24 10       	mov    0x10(%rsp),%rsi
  10a4c3:	48 8b 7c 24 18       	mov    0x18(%rsp),%rdi
  10a4c8:	e8 83 39 00 00       	callq  10de50 <_ZN4core3ptr20slice_from_raw_parts17hbd64ee62e243d2a3E>
  10a4cd:	48 83 c4 58          	add    $0x58,%rsp
  10a4d1:	c3                   	retq   
  10a4d2:	48 8b 44 24 10       	mov    0x10(%rsp),%rax
  10a4d7:	48 8b 4c 24 18       	mov    0x18(%rsp),%rcx
  10a4dc:	48 89 4c 24 20       	mov    %rcx,0x20(%rsp)
  10a4e1:	48 89 44 24 28       	mov    %rax,0x28(%rsp)
  10a4e6:	48 8b 7c 24 20       	mov    0x20(%rsp),%rdi
  10a4eb:	48 8b 44 24 28       	mov    0x28(%rsp),%rax
  10a4f0:	48 89 44 24 08       	mov    %rax,0x8(%rsp)
  10a4f5:	48 89 7c 24 48       	mov    %rdi,0x48(%rsp)
  10a4fa:	48 89 44 24 50       	mov    %rax,0x50(%rsp)
  10a4ff:	e8 4c 9b ff ff       	callq  104050 <_ZN4core10intrinsics23is_aligned_and_not_null17h9128a242cea00777E>
  10a504:	a8 01                	test   $0x1,%al
  10a506:	75 07                	jne    10a50f <_ZN4core5slice3raw14from_raw_parts17h5a4c48e0db5e3da5E+0x6f>
  10a508:	c6 44 24 47 00       	movb   $0x0,0x47(%rsp)
  10a50d:	eb 10                	jmp    10a51f <_ZN4core5slice3raw14from_raw_parts17h5a4c48e0db5e3da5E+0x7f>
  10a50f:	48 8b 7c 24 08       	mov    0x8(%rsp),%rdi
  10a514:	e8 37 9c ff ff       	callq  104150 <_ZN4core10intrinsics24is_valid_allocation_size17ha80651ced8f0e9ccE>
  10a519:	24 01                	and    $0x1,%al
  10a51b:	88 44 24 47          	mov    %al,0x47(%rsp)
  10a51f:	8a 44 24 47          	mov    0x47(%rsp),%al
  10a523:	34 ff                	xor    $0xff,%al
  10a525:	a8 01                	test   $0x1,%al
  10a527:	75 02                	jne    10a52b <_ZN4core5slice3raw14from_raw_parts17h5a4c48e0db5e3da5E+0x8b>
  10a529:	eb 13                	jmp    10a53e <_ZN4core5slice3raw14from_raw_parts17h5a4c48e0db5e3da5E+0x9e>
  10a52b:	48 8d 3d f2 6c ff ff 	lea    -0x930e(%rip),%rdi        # 101224 <str.2+0x24>
  10a532:	be a2 00 00 00       	mov    $0xa2,%esi
  10a537:	e8 44 af ff ff       	callq  105480 <_ZN4core9panicking14panic_nounwind17hbf97f84b8fd59176E>
  10a53c:	0f 0b                	ud2    
  10a53e:	e9 7b ff ff ff       	jmpq   10a4be <_ZN4core5slice3raw14from_raw_parts17h5a4c48e0db5e3da5E+0x1e>
  10a543:	cc                   	int3   
  10a544:	cc                   	int3   
  10a545:	cc                   	int3   
  10a546:	cc                   	int3   
  10a547:	cc                   	int3   
  10a548:	cc                   	int3   
  10a549:	cc                   	int3   
  10a54a:	cc                   	int3   
  10a54b:	cc                   	int3   
  10a54c:	cc                   	int3   
  10a54d:	cc                   	int3   
  10a54e:	cc                   	int3   
  10a54f:	cc                   	int3   

000000000010a550 <_ZN4core3str5count11count_chars17hc0afe908f1bf82f5E>:
  10a550:	48 83 ec 48          	sub    $0x48,%rsp
  10a554:	48 89 34 24          	mov    %rsi,(%rsp)
  10a558:	48 89 7c 24 08       	mov    %rdi,0x8(%rsp)
  10a55d:	48 89 7c 24 28       	mov    %rdi,0x28(%rsp)
  10a562:	48 89 74 24 30       	mov    %rsi,0x30(%rsp)
  10a567:	e8 d4 3e 00 00       	callq  10e440 <_ZN4core3str21_$LT$impl$u20$str$GT$3len17h6145da0040cceaafE>
  10a56c:	48 89 44 24 10       	mov    %rax,0x10(%rsp)
  10a571:	b8 08 00 00 00       	mov    $0x8,%eax
  10a576:	b9 04 00 00 00       	mov    $0x4,%ecx
  10a57b:	48 f7 e1             	mul    %rcx
  10a57e:	48 89 44 24 18       	mov    %rax,0x18(%rsp)
  10a583:	0f 90 c0             	seto   %al
  10a586:	a8 01                	test   $0x1,%al
  10a588:	75 11                	jne    10a59b <_ZN4core3str5count11count_chars17hc0afe908f1bf82f5E+0x4b>
  10a58a:	48 8b 44 24 10       	mov    0x10(%rsp),%rax
  10a58f:	48 8b 4c 24 18       	mov    0x18(%rsp),%rcx
  10a594:	48 39 c8             	cmp    %rcx,%rax
  10a597:	72 31                	jb     10a5ca <_ZN4core3str5count11count_chars17hc0afe908f1bf82f5E+0x7a>
  10a599:	eb 1a                	jmp    10a5b5 <_ZN4core3str5count11count_chars17hc0afe908f1bf82f5E+0x65>
  10a59b:	48 8d 3d 2e 6c ff ff 	lea    -0x93d2(%rip),%rdi        # 1011d0 <str.1>
  10a5a2:	48 8d 15 bf 7b 00 00 	lea    0x7bbf(%rip),%rdx        # 112168 <_ZN4core3fmt2rt12USIZE_MARKER17h1b31419084dfd5e3E+0x770>
  10a5a9:	be 21 00 00 00       	mov    $0x21,%esi
  10a5ae:	e8 7d ae ff ff       	callq  105430 <_ZN4core9panicking5panic17h4e18ef80ec7677b0E>
  10a5b3:	0f 0b                	ud2    
  10a5b5:	48 8b 34 24          	mov    (%rsp),%rsi
  10a5b9:	48 8b 7c 24 08       	mov    0x8(%rsp),%rdi
  10a5be:	e8 3d 00 00 00       	callq  10a600 <_ZN4core3str5count14do_count_chars17h3b4a9fcdab132bb7E>
  10a5c3:	48 89 44 24 20       	mov    %rax,0x20(%rsp)
  10a5c8:	eb 1d                	jmp    10a5e7 <_ZN4core3str5count11count_chars17hc0afe908f1bf82f5E+0x97>
  10a5ca:	48 8b 7c 24 08       	mov    0x8(%rsp),%rdi
  10a5cf:	48 8b 34 24          	mov    (%rsp),%rsi
  10a5d3:	48 89 7c 24 38       	mov    %rdi,0x38(%rsp)
  10a5d8:	48 89 74 24 40       	mov    %rsi,0x40(%rsp)
  10a5dd:	e8 ce 06 00 00       	callq  10acb0 <_ZN4core3str5count23char_count_general_case17h3dc30669ae7b0a02E>
  10a5e2:	48 89 44 24 20       	mov    %rax,0x20(%rsp)
  10a5e7:	48 8b 44 24 20       	mov    0x20(%rsp),%rax
  10a5ec:	48 83 c4 48          	add    $0x48,%rsp
  10a5f0:	c3                   	retq   
  10a5f1:	cc                   	int3   
  10a5f2:	cc                   	int3   
  10a5f3:	cc                   	int3   
  10a5f4:	cc                   	int3   
  10a5f5:	cc                   	int3   
  10a5f6:	cc                   	int3   
  10a5f7:	cc                   	int3   
  10a5f8:	cc                   	int3   
  10a5f9:	cc                   	int3   
  10a5fa:	cc                   	int3   
  10a5fb:	cc                   	int3   
  10a5fc:	cc                   	int3   
  10a5fd:	cc                   	int3   
  10a5fe:	cc                   	int3   
  10a5ff:	cc                   	int3   

000000000010a600 <_ZN4core3str5count14do_count_chars17h3b4a9fcdab132bb7E>:
  10a600:	48 81 ec 48 02 00 00 	sub    $0x248,%rsp
  10a607:	48 89 f2             	mov    %rsi,%rdx
  10a60a:	48 89 54 24 40       	mov    %rdx,0x40(%rsp)
  10a60f:	48 89 fe             	mov    %rdi,%rsi
  10a612:	48 89 74 24 48       	mov    %rsi,0x48(%rsp)
  10a617:	48 89 b4 24 98 01 00 	mov    %rsi,0x198(%rsp)
  10a61e:	00 
  10a61f:	48 89 94 24 a0 01 00 	mov    %rdx,0x1a0(%rsp)
  10a626:	00 
  10a627:	48 89 b4 24 38 02 00 	mov    %rsi,0x238(%rsp)
  10a62e:	00 
  10a62f:	48 89 94 24 40 02 00 	mov    %rdx,0x240(%rsp)
  10a636:	00 
  10a637:	48 8d bc 24 88 00 00 	lea    0x88(%rsp),%rdi
  10a63e:	00 
  10a63f:	e8 fc 4b 00 00       	callq  10f240 <_ZN4core5slice29_$LT$impl$u20$$u5b$T$u5d$$GT$8align_to17h355a844c47b86429E>
  10a644:	48 8b 8c 24 88 00 00 	mov    0x88(%rsp),%rcx
  10a64b:	00 
  10a64c:	48 89 4c 24 50       	mov    %rcx,0x50(%rsp)
  10a651:	48 8b 84 24 90 00 00 	mov    0x90(%rsp),%rax
  10a658:	00 
  10a659:	48 89 44 24 58       	mov    %rax,0x58(%rsp)
  10a65e:	48 89 8c 24 a8 01 00 	mov    %rcx,0x1a8(%rsp)
  10a665:	00 
  10a666:	48 89 84 24 b0 01 00 	mov    %rax,0x1b0(%rsp)
  10a66d:	00 
  10a66e:	48 8b bc 24 98 00 00 	mov    0x98(%rsp),%rdi
  10a675:	00 
  10a676:	48 89 7c 24 60       	mov    %rdi,0x60(%rsp)
  10a67b:	48 8b b4 24 a0 00 00 	mov    0xa0(%rsp),%rsi
  10a682:	00 
  10a683:	48 89 74 24 68       	mov    %rsi,0x68(%rsp)
  10a688:	48 89 bc 24 b8 01 00 	mov    %rdi,0x1b8(%rsp)
  10a68f:	00 
  10a690:	48 89 b4 24 c0 01 00 	mov    %rsi,0x1c0(%rsp)
  10a697:	00 
  10a698:	48 8b 8c 24 a8 00 00 	mov    0xa8(%rsp),%rcx
  10a69f:	00 
  10a6a0:	48 89 4c 24 70       	mov    %rcx,0x70(%rsp)
  10a6a5:	48 8b 84 24 b0 00 00 	mov    0xb0(%rsp),%rax
  10a6ac:	00 
  10a6ad:	48 89 44 24 78       	mov    %rax,0x78(%rsp)
  10a6b2:	48 89 8c 24 c8 01 00 	mov    %rcx,0x1c8(%rsp)
  10a6b9:	00 
  10a6ba:	48 89 84 24 d0 01 00 	mov    %rax,0x1d0(%rsp)
  10a6c1:	00 
  10a6c2:	e8 e9 40 00 00       	callq  10e7b0 <_ZN4core5slice29_$LT$impl$u20$$u5b$T$u5d$$GT$8is_empty17h8d9abccf13d8d832E>
  10a6c7:	a8 01                	test   $0x1,%al
  10a6c9:	75 17                	jne    10a6e2 <_ZN4core3str5count14do_count_chars17h3b4a9fcdab132bb7E+0xe2>
  10a6cb:	48 8b 44 24 58       	mov    0x58(%rsp),%rax
  10a6d0:	48 83 f8 08          	cmp    $0x8,%rax
  10a6d4:	0f 97 c0             	seta   %al
  10a6d7:	24 01                	and    $0x1,%al
  10a6d9:	88 84 24 bf 00 00 00 	mov    %al,0xbf(%rsp)
  10a6e0:	eb 08                	jmp    10a6ea <_ZN4core3str5count14do_count_chars17h3b4a9fcdab132bb7E+0xea>
  10a6e2:	c6 84 24 bf 00 00 00 	movb   $0x1,0xbf(%rsp)
  10a6e9:	01 
  10a6ea:	f6 84 24 bf 00 00 00 	testb  $0x1,0xbf(%rsp)
  10a6f1:	01 
  10a6f2:	75 17                	jne    10a70b <_ZN4core3str5count14do_count_chars17h3b4a9fcdab132bb7E+0x10b>
  10a6f4:	48 8b 44 24 78       	mov    0x78(%rsp),%rax
  10a6f9:	48 83 f8 08          	cmp    $0x8,%rax
  10a6fd:	0f 97 c0             	seta   %al
  10a700:	24 01                	and    $0x1,%al
  10a702:	88 84 24 be 00 00 00 	mov    %al,0xbe(%rsp)
  10a709:	eb 08                	jmp    10a713 <_ZN4core3str5count14do_count_chars17h3b4a9fcdab132bb7E+0x113>
  10a70b:	c6 84 24 be 00 00 00 	movb   $0x1,0xbe(%rsp)
  10a712:	01 
  10a713:	8a 84 24 be 00 00 00 	mov    0xbe(%rsp),%al
  10a71a:	24 01                	and    $0x1,%al
  10a71c:	88 84 24 df 01 00 00 	mov    %al,0x1df(%rsp)
  10a723:	f6 84 24 df 01 00 00 	testb  $0x1,0x1df(%rsp)
  10a72a:	01 
  10a72b:	75 40                	jne    10a76d <_ZN4core3str5count14do_count_chars17h3b4a9fcdab132bb7E+0x16d>
  10a72d:	48 8b 74 24 58       	mov    0x58(%rsp),%rsi
  10a732:	48 8b 7c 24 50       	mov    0x50(%rsp),%rdi
  10a737:	e8 74 05 00 00       	callq  10acb0 <_ZN4core3str5count23char_count_general_case17h3dc30669ae7b0a02E>
  10a73c:	48 8b 7c 24 70       	mov    0x70(%rsp),%rdi
  10a741:	48 8b 74 24 78       	mov    0x78(%rsp),%rsi
  10a746:	48 89 44 24 30       	mov    %rax,0x30(%rsp)
  10a74b:	e8 60 05 00 00       	callq  10acb0 <_ZN4core3str5count23char_count_general_case17h3dc30669ae7b0a02E>
  10a750:	48 89 c1             	mov    %rax,%rcx
  10a753:	48 8b 44 24 30       	mov    0x30(%rsp),%rax
  10a758:	48 01 c8             	add    %rcx,%rax
  10a75b:	48 89 44 24 38       	mov    %rax,0x38(%rsp)
  10a760:	0f 92 c0             	setb   %al
  10a763:	a8 01                	test   $0x1,%al
  10a765:	0f 85 a5 00 00 00    	jne    10a810 <_ZN4core3str5count14do_count_chars17h3b4a9fcdab132bb7E+0x210>
  10a76b:	eb 2c                	jmp    10a799 <_ZN4core3str5count14do_count_chars17h3b4a9fcdab132bb7E+0x199>
  10a76d:	48 8b 7c 24 48       	mov    0x48(%rsp),%rdi
  10a772:	48 8b 74 24 40       	mov    0x40(%rsp),%rsi
  10a777:	48 89 bc 24 28 02 00 	mov    %rdi,0x228(%rsp)
  10a77e:	00 
  10a77f:	48 89 b4 24 30 02 00 	mov    %rsi,0x230(%rsp)
  10a786:	00 
  10a787:	e8 24 05 00 00       	callq  10acb0 <_ZN4core3str5count23char_count_general_case17h3dc30669ae7b0a02E>
  10a78c:	48 89 84 24 80 00 00 	mov    %rax,0x80(%rsp)
  10a793:	00 
  10a794:	e9 19 03 00 00       	jmpq   10aab2 <_ZN4core3str5count14do_count_chars17h3b4a9fcdab132bb7E+0x4b2>
  10a799:	48 8b 54 24 68       	mov    0x68(%rsp),%rdx
  10a79e:	48 8b 74 24 60       	mov    0x60(%rsp),%rsi
  10a7a3:	48 8b 44 24 38       	mov    0x38(%rsp),%rax
  10a7a8:	48 89 84 24 c0 00 00 	mov    %rax,0xc0(%rsp)
  10a7af:	00 
  10a7b0:	48 8d bc 24 e0 00 00 	lea    0xe0(%rsp),%rdi
  10a7b7:	00 
  10a7b8:	b9 c0 00 00 00       	mov    $0xc0,%ecx
  10a7bd:	4c 8d 05 d4 79 00 00 	lea    0x79d4(%rip),%r8        # 112198 <_ZN4core3fmt2rt12USIZE_MARKER17h1b31419084dfd5e3E+0x7a0>
  10a7c4:	e8 67 41 00 00       	callq  10e930 <_ZN4core5slice29_$LT$impl$u20$$u5b$T$u5d$$GT$6chunks17he0181871f52356f0E>
  10a7c9:	48 8d bc 24 c8 00 00 	lea    0xc8(%rsp),%rdi
  10a7d0:	00 
  10a7d1:	48 8d b4 24 e0 00 00 	lea    0xe0(%rsp),%rsi
  10a7d8:	00 
  10a7d9:	e8 42 16 00 00       	callq  10be20 <_ZN63_$LT$I$u20$as$u20$core..iter..traits..collect..IntoIterator$GT$9into_iter17hecf45bf4d6703f18E>
  10a7de:	48 8b 84 24 c8 00 00 	mov    0xc8(%rsp),%rax
  10a7e5:	00 
  10a7e6:	48 89 84 24 f8 00 00 	mov    %rax,0xf8(%rsp)
  10a7ed:	00 
  10a7ee:	48 8b 84 24 d0 00 00 	mov    0xd0(%rsp),%rax
  10a7f5:	00 
  10a7f6:	48 89 84 24 00 01 00 	mov    %rax,0x100(%rsp)
  10a7fd:	00 
  10a7fe:	48 8b 84 24 d8 00 00 	mov    0xd8(%rsp),%rax
  10a805:	00 
  10a806:	48 89 84 24 08 01 00 	mov    %rax,0x108(%rsp)
  10a80d:	00 
  10a80e:	eb 1a                	jmp    10a82a <_ZN4core3str5count14do_count_chars17h3b4a9fcdab132bb7E+0x22a>
  10a810:	48 8d 3d 19 69 ff ff 	lea    -0x96e7(%rip),%rdi        # 101130 <str.0>
  10a817:	48 8d 15 62 79 00 00 	lea    0x7962(%rip),%rdx        # 112180 <_ZN4core3fmt2rt12USIZE_MARKER17h1b31419084dfd5e3E+0x788>
  10a81e:	be 1c 00 00 00       	mov    $0x1c,%esi
  10a823:	e8 08 ac ff ff       	callq  105430 <_ZN4core9panicking5panic17h4e18ef80ec7677b0E>
  10a828:	0f 0b                	ud2    
  10a82a:	48 8d bc 24 f8 00 00 	lea    0xf8(%rsp),%rdi
  10a831:	00 
  10a832:	e8 e9 1a 00 00       	callq  10c320 <_ZN93_$LT$core..slice..iter..Chunks$LT$T$GT$$u20$as$u20$core..iter..traits..iterator..Iterator$GT$4next17h99114e51182ae955E>
  10a837:	48 89 94 24 18 01 00 	mov    %rdx,0x118(%rsp)
  10a83e:	00 
  10a83f:	48 89 84 24 10 01 00 	mov    %rax,0x110(%rsp)
  10a846:	00 
  10a847:	48 8b 94 24 10 01 00 	mov    0x110(%rsp),%rdx
  10a84e:	00 
  10a84f:	b8 01 00 00 00       	mov    $0x1,%eax
  10a854:	31 c9                	xor    %ecx,%ecx
  10a856:	48 83 fa 00          	cmp    $0x0,%rdx
  10a85a:	48 0f 44 c1          	cmove  %rcx,%rax
  10a85e:	48 83 f8 00          	cmp    $0x0,%rax
  10a862:	75 15                	jne    10a879 <_ZN4core3str5count14do_count_chars17h3b4a9fcdab132bb7E+0x279>
  10a864:	48 8b 84 24 c0 00 00 	mov    0xc0(%rsp),%rax
  10a86b:	00 
  10a86c:	48 89 84 24 80 00 00 	mov    %rax,0x80(%rsp)
  10a873:	00 
  10a874:	e9 39 02 00 00       	jmpq   10aab2 <_ZN4core3str5count14do_count_chars17h3b4a9fcdab132bb7E+0x4b2>
  10a879:	48 8b b4 24 10 01 00 	mov    0x110(%rsp),%rsi
  10a880:	00 
  10a881:	48 8b 94 24 18 01 00 	mov    0x118(%rsp),%rdx
  10a888:	00 
  10a889:	48 89 b4 24 e0 01 00 	mov    %rsi,0x1e0(%rsp)
  10a890:	00 
  10a891:	48 89 94 24 e8 01 00 	mov    %rdx,0x1e8(%rsp)
  10a898:	00 
  10a899:	48 c7 84 24 20 01 00 	movq   $0x0,0x120(%rsp)
  10a8a0:	00 00 00 00 00 
  10a8a5:	48 8d bc 24 28 01 00 	lea    0x128(%rsp),%rdi
  10a8ac:	00 
  10a8ad:	48 8d 0d fc 78 00 00 	lea    0x78fc(%rip),%rcx        # 1121b0 <_ZN4core3fmt2rt12USIZE_MARKER17h1b31419084dfd5e3E+0x7b8>
  10a8b4:	e8 47 42 00 00       	callq  10eb00 <_ZN4core5slice29_$LT$impl$u20$$u5b$T$u5d$$GT$9as_chunks17h5ddf834b555ef6aeE>
  10a8b9:	48 8b bc 24 28 01 00 	mov    0x128(%rsp),%rdi
  10a8c0:	00 
  10a8c1:	48 8b b4 24 30 01 00 	mov    0x130(%rsp),%rsi
  10a8c8:	00 
  10a8c9:	48 89 bc 24 f0 01 00 	mov    %rdi,0x1f0(%rsp)
  10a8d0:	00 
  10a8d1:	48 89 b4 24 f8 01 00 	mov    %rsi,0x1f8(%rsp)
  10a8d8:	00 
  10a8d9:	48 8b 8c 24 38 01 00 	mov    0x138(%rsp),%rcx
  10a8e0:	00 
  10a8e1:	48 89 4c 24 20       	mov    %rcx,0x20(%rsp)
  10a8e6:	48 8b 84 24 40 01 00 	mov    0x140(%rsp),%rax
  10a8ed:	00 
  10a8ee:	48 89 44 24 28       	mov    %rax,0x28(%rsp)
  10a8f3:	48 89 8c 24 00 02 00 	mov    %rcx,0x200(%rsp)
  10a8fa:	00 
  10a8fb:	48 89 84 24 08 02 00 	mov    %rax,0x208(%rsp)
  10a902:	00 
  10a903:	e8 18 16 00 00       	callq  10bf20 <_ZN4core5slice4iter87_$LT$impl$u20$core..iter..traits..collect..IntoIterator$u20$for$u20$$RF$$u5b$T$u5d$$GT$9into_iter17hfb45659324715457E>
  10a908:	48 89 84 24 48 01 00 	mov    %rax,0x148(%rsp)
  10a90f:	00 
  10a910:	48 89 94 24 50 01 00 	mov    %rdx,0x150(%rsp)
  10a917:	00 
  10a918:	48 8d bc 24 48 01 00 	lea    0x148(%rsp),%rdi
  10a91f:	00 
  10a920:	e8 ab 1a 00 00       	callq  10c3d0 <_ZN91_$LT$core..slice..iter..Iter$LT$T$GT$$u20$as$u20$core..iter..traits..iterator..Iterator$GT$4next17h0bd4cd2ea244217eE>
  10a925:	48 89 84 24 58 01 00 	mov    %rax,0x158(%rsp)
  10a92c:	00 
  10a92d:	48 8b 94 24 58 01 00 	mov    0x158(%rsp),%rdx
  10a934:	00 
  10a935:	b8 01 00 00 00       	mov    $0x1,%eax
  10a93a:	31 c9                	xor    %ecx,%ecx
  10a93c:	48 83 fa 00          	cmp    $0x0,%rdx
  10a940:	48 0f 44 c1          	cmove  %rcx,%rax
  10a944:	48 83 f8 00          	cmp    $0x0,%rax
  10a948:	75 23                	jne    10a96d <_ZN4core3str5count14do_count_chars17h3b4a9fcdab132bb7E+0x36d>
  10a94a:	48 8b bc 24 20 01 00 	mov    0x120(%rsp),%rdi
  10a951:	00 
  10a952:	e8 59 02 00 00       	callq  10abb0 <_ZN4core3str5count18sum_bytes_in_usize17h1297664451da2f68E>
  10a957:	48 03 84 24 c0 00 00 	add    0xc0(%rsp),%rax
  10a95e:	00 
  10a95f:	48 89 44 24 18       	mov    %rax,0x18(%rsp)
  10a964:	0f 92 c0             	setb   %al
  10a967:	a8 01                	test   $0x1,%al
  10a969:	75 53                	jne    10a9be <_ZN4core3str5count14do_count_chars17h3b4a9fcdab132bb7E+0x3be>
  10a96b:	eb 2a                	jmp    10a997 <_ZN4core3str5count14do_count_chars17h3b4a9fcdab132bb7E+0x397>
  10a96d:	48 8b bc 24 58 01 00 	mov    0x158(%rsp),%rdi
  10a974:	00 
  10a975:	48 89 bc 24 18 02 00 	mov    %rdi,0x218(%rsp)
  10a97c:	00 
  10a97d:	e8 ae a9 ff ff       	callq  105330 <_ZN4core5array98_$LT$impl$u20$core..iter..traits..collect..IntoIterator$u20$for$u20$$RF$$u5b$T$u3b$$u20$N$u5d$$GT$9into_iter17he09951e687258953E>
  10a982:	48 89 84 24 60 01 00 	mov    %rax,0x160(%rsp)
  10a989:	00 
  10a98a:	48 89 94 24 68 01 00 	mov    %rdx,0x168(%rsp)
  10a991:	00 
  10a992:	e9 57 01 00 00       	jmpq   10aaee <_ZN4core3str5count14do_count_chars17h3b4a9fcdab132bb7E+0x4ee>
  10a997:	48 8b 74 24 28       	mov    0x28(%rsp),%rsi
  10a99c:	48 8b 7c 24 20       	mov    0x20(%rsp),%rdi
  10a9a1:	48 8b 44 24 18       	mov    0x18(%rsp),%rax
  10a9a6:	48 89 84 24 c0 00 00 	mov    %rax,0xc0(%rsp)
  10a9ad:	00 
  10a9ae:	e8 fd 3d 00 00       	callq  10e7b0 <_ZN4core5slice29_$LT$impl$u20$$u5b$T$u5d$$GT$8is_empty17h8d9abccf13d8d832E>
  10a9b3:	34 ff                	xor    $0xff,%al
  10a9b5:	a8 01                	test   $0x1,%al
  10a9b7:	75 1f                	jne    10a9d8 <_ZN4core3str5count14do_count_chars17h3b4a9fcdab132bb7E+0x3d8>
  10a9b9:	e9 6c fe ff ff       	jmpq   10a82a <_ZN4core3str5count14do_count_chars17h3b4a9fcdab132bb7E+0x22a>
  10a9be:	48 8d 3d 6b 67 ff ff 	lea    -0x9895(%rip),%rdi        # 101130 <str.0>
  10a9c5:	48 8d 15 fc 77 00 00 	lea    0x77fc(%rip),%rdx        # 1121c8 <_ZN4core3fmt2rt12USIZE_MARKER17h1b31419084dfd5e3E+0x7d0>
  10a9cc:	be 1c 00 00 00       	mov    $0x1c,%esi
  10a9d1:	e8 5a aa ff ff       	callq  105430 <_ZN4core9panicking5panic17h4e18ef80ec7677b0E>
  10a9d6:	0f 0b                	ud2    
  10a9d8:	48 8b 74 24 28       	mov    0x28(%rsp),%rsi
  10a9dd:	48 8b 7c 24 20       	mov    0x20(%rsp),%rdi
  10a9e2:	48 c7 84 24 78 01 00 	movq   $0x0,0x178(%rsp)
  10a9e9:	00 00 00 00 00 
  10a9ee:	e8 0d 15 00 00       	callq  10bf00 <_ZN4core5slice4iter87_$LT$impl$u20$core..iter..traits..collect..IntoIterator$u20$for$u20$$RF$$u5b$T$u5d$$GT$9into_iter17h156d816ab719f656E>
  10a9f3:	48 89 84 24 80 01 00 	mov    %rax,0x180(%rsp)
  10a9fa:	00 
  10a9fb:	48 89 94 24 88 01 00 	mov    %rdx,0x188(%rsp)
  10aa02:	00 
  10aa03:	48 8d bc 24 80 01 00 	lea    0x180(%rsp),%rdi
  10aa0a:	00 
  10aa0b:	e8 60 1b 00 00       	callq  10c570 <_ZN91_$LT$core..slice..iter..Iter$LT$T$GT$$u20$as$u20$core..iter..traits..iterator..Iterator$GT$4next17h582a9fba863d25a1E>
  10aa10:	48 89 84 24 90 01 00 	mov    %rax,0x190(%rsp)
  10aa17:	00 
  10aa18:	48 8b 94 24 90 01 00 	mov    0x190(%rsp),%rdx
  10aa1f:	00 
  10aa20:	b8 01 00 00 00       	mov    $0x1,%eax
  10aa25:	31 c9                	xor    %ecx,%ecx
  10aa27:	48 83 fa 00          	cmp    $0x0,%rdx
  10aa2b:	48 0f 44 c1          	cmove  %rcx,%rax
  10aa2f:	48 83 f8 00          	cmp    $0x0,%rax
  10aa33:	75 23                	jne    10aa58 <_ZN4core3str5count14do_count_chars17h3b4a9fcdab132bb7E+0x458>
  10aa35:	48 8b bc 24 78 01 00 	mov    0x178(%rsp),%rdi
  10aa3c:	00 
  10aa3d:	e8 6e 01 00 00       	callq  10abb0 <_ZN4core3str5count18sum_bytes_in_usize17h1297664451da2f68E>
  10aa42:	48 03 84 24 c0 00 00 	add    0xc0(%rsp),%rax
  10aa49:	00 
  10aa4a:	48 89 44 24 10       	mov    %rax,0x10(%rsp)
  10aa4f:	0f 92 c0             	setb   %al
  10aa52:	a8 01                	test   $0x1,%al
  10aa54:	75 42                	jne    10aa98 <_ZN4core3str5count14do_count_chars17h3b4a9fcdab132bb7E+0x498>
  10aa56:	eb 2e                	jmp    10aa86 <_ZN4core3str5count14do_count_chars17h3b4a9fcdab132bb7E+0x486>
  10aa58:	48 8b 84 24 90 01 00 	mov    0x190(%rsp),%rax
  10aa5f:	00 
  10aa60:	48 8b 38             	mov    (%rax),%rdi
  10aa63:	48 89 bc 24 10 02 00 	mov    %rdi,0x210(%rsp)
  10aa6a:	00 
  10aa6b:	e8 10 01 00 00       	callq  10ab80 <_ZN4core3str5count30contains_non_continuation_byte17h0a4b9269a2c4d8faE>
  10aa70:	48 03 84 24 78 01 00 	add    0x178(%rsp),%rax
  10aa77:	00 
  10aa78:	48 89 44 24 08       	mov    %rax,0x8(%rsp)
  10aa7d:	0f 92 c0             	setb   %al
  10aa80:	a8 01                	test   $0x1,%al
  10aa82:	75 50                	jne    10aad4 <_ZN4core3str5count14do_count_chars17h3b4a9fcdab132bb7E+0x4d4>
  10aa84:	eb 3c                	jmp    10aac2 <_ZN4core3str5count14do_count_chars17h3b4a9fcdab132bb7E+0x4c2>
  10aa86:	48 8b 44 24 10       	mov    0x10(%rsp),%rax
  10aa8b:	48 89 84 24 c0 00 00 	mov    %rax,0xc0(%rsp)
  10aa92:	00 
  10aa93:	e9 cc fd ff ff       	jmpq   10a864 <_ZN4core3str5count14do_count_chars17h3b4a9fcdab132bb7E+0x264>
  10aa98:	48 8d 3d 91 66 ff ff 	lea    -0x996f(%rip),%rdi        # 101130 <str.0>
  10aa9f:	48 8d 15 3a 77 00 00 	lea    0x773a(%rip),%rdx        # 1121e0 <_ZN4core3fmt2rt12USIZE_MARKER17h1b31419084dfd5e3E+0x7e8>
  10aaa6:	be 1c 00 00 00       	mov    $0x1c,%esi
  10aaab:	e8 80 a9 ff ff       	callq  105430 <_ZN4core9panicking5panic17h4e18ef80ec7677b0E>
  10aab0:	0f 0b                	ud2    
  10aab2:	48 8b 84 24 80 00 00 	mov    0x80(%rsp),%rax
  10aab9:	00 
  10aaba:	48 81 c4 48 02 00 00 	add    $0x248,%rsp
  10aac1:	c3                   	retq   
  10aac2:	48 8b 44 24 08       	mov    0x8(%rsp),%rax
  10aac7:	48 89 84 24 78 01 00 	mov    %rax,0x178(%rsp)
  10aace:	00 
  10aacf:	e9 2f ff ff ff       	jmpq   10aa03 <_ZN4core3str5count14do_count_chars17h3b4a9fcdab132bb7E+0x403>
  10aad4:	48 8d 3d 55 66 ff ff 	lea    -0x99ab(%rip),%rdi        # 101130 <str.0>
  10aadb:	48 8d 15 16 77 00 00 	lea    0x7716(%rip),%rdx        # 1121f8 <_ZN4core3fmt2rt12USIZE_MARKER17h1b31419084dfd5e3E+0x800>
  10aae2:	be 1c 00 00 00       	mov    $0x1c,%esi
  10aae7:	e8 44 a9 ff ff       	callq  105430 <_ZN4core9panicking5panic17h4e18ef80ec7677b0E>
  10aaec:	0f 0b                	ud2    
  10aaee:	48 8d bc 24 60 01 00 	lea    0x160(%rsp),%rdi
  10aaf5:	00 
  10aaf6:	e8 75 1a 00 00       	callq  10c570 <_ZN91_$LT$core..slice..iter..Iter$LT$T$GT$$u20$as$u20$core..iter..traits..iterator..Iterator$GT$4next17h582a9fba863d25a1E>
  10aafb:	48 89 84 24 70 01 00 	mov    %rax,0x170(%rsp)
  10ab02:	00 
  10ab03:	48 8b 94 24 70 01 00 	mov    0x170(%rsp),%rdx
  10ab0a:	00 
  10ab0b:	b8 01 00 00 00       	mov    $0x1,%eax
  10ab10:	31 c9                	xor    %ecx,%ecx
  10ab12:	48 83 fa 00          	cmp    $0x0,%rdx
  10ab16:	48 0f 44 c1          	cmove  %rcx,%rax
  10ab1a:	48 83 f8 00          	cmp    $0x0,%rax
  10ab1e:	0f 84 f4 fd ff ff    	je     10a918 <_ZN4core3str5count14do_count_chars17h3b4a9fcdab132bb7E+0x318>
  10ab24:	48 8b 84 24 70 01 00 	mov    0x170(%rsp),%rax
  10ab2b:	00 
  10ab2c:	48 8b 38             	mov    (%rax),%rdi
  10ab2f:	48 89 bc 24 20 02 00 	mov    %rdi,0x220(%rsp)
  10ab36:	00 
  10ab37:	e8 44 00 00 00       	callq  10ab80 <_ZN4core3str5count30contains_non_continuation_byte17h0a4b9269a2c4d8faE>
  10ab3c:	48 03 84 24 20 01 00 	add    0x120(%rsp),%rax
  10ab43:	00 
  10ab44:	48 89 04 24          	mov    %rax,(%rsp)
  10ab48:	0f 92 c0             	setb   %al
  10ab4b:	a8 01                	test   $0x1,%al
  10ab4d:	75 0e                	jne    10ab5d <_ZN4core3str5count14do_count_chars17h3b4a9fcdab132bb7E+0x55d>
  10ab4f:	48 8b 04 24          	mov    (%rsp),%rax
  10ab53:	48 89 84 24 20 01 00 	mov    %rax,0x120(%rsp)
  10ab5a:	00 
  10ab5b:	eb 91                	jmp    10aaee <_ZN4core3str5count14do_count_chars17h3b4a9fcdab132bb7E+0x4ee>
  10ab5d:	48 8d 3d cc 65 ff ff 	lea    -0x9a34(%rip),%rdi        # 101130 <str.0>
  10ab64:	48 8d 15 a5 76 00 00 	lea    0x76a5(%rip),%rdx        # 112210 <_ZN4core3fmt2rt12USIZE_MARKER17h1b31419084dfd5e3E+0x818>
  10ab6b:	be 1c 00 00 00       	mov    $0x1c,%esi
  10ab70:	e8 bb a8 ff ff       	callq  105430 <_ZN4core9panicking5panic17h4e18ef80ec7677b0E>
  10ab75:	0f 0b                	ud2    
  10ab77:	cc                   	int3   
  10ab78:	cc                   	int3   
  10ab79:	cc                   	int3   
  10ab7a:	cc                   	int3   
  10ab7b:	cc                   	int3   
  10ab7c:	cc                   	int3   
  10ab7d:	cc                   	int3   
  10ab7e:	cc                   	int3   
  10ab7f:	cc                   	int3   

000000000010ab80 <_ZN4core3str5count30contains_non_continuation_byte17h0a4b9269a2c4d8faE>:
  10ab80:	50                   	push   %rax
  10ab81:	48 89 3c 24          	mov    %rdi,(%rsp)
  10ab85:	48 89 f8             	mov    %rdi,%rax
  10ab88:	48 83 f0 ff          	xor    $0xffffffffffffffff,%rax
  10ab8c:	48 c1 e8 07          	shr    $0x7,%rax
  10ab90:	48 c1 ef 06          	shr    $0x6,%rdi
  10ab94:	48 09 f8             	or     %rdi,%rax
  10ab97:	48 b9 01 01 01 01 01 	movabs $0x101010101010101,%rcx
  10ab9e:	01 01 01 
  10aba1:	48 21 c8             	and    %rcx,%rax
  10aba4:	59                   	pop    %rcx
  10aba5:	c3                   	retq   
  10aba6:	cc                   	int3   
  10aba7:	cc                   	int3   
  10aba8:	cc                   	int3   
  10aba9:	cc                   	int3   
  10abaa:	cc                   	int3   
  10abab:	cc                   	int3   
  10abac:	cc                   	int3   
  10abad:	cc                   	int3   
  10abae:	cc                   	int3   
  10abaf:	cc                   	int3   

000000000010abb0 <_ZN4core3str5count18sum_bytes_in_usize17h1297664451da2f68E>:
  10abb0:	48 83 ec 38          	sub    $0x38,%rsp
  10abb4:	48 89 f9             	mov    %rdi,%rcx
  10abb7:	48 89 4c 24 18       	mov    %rcx,0x18(%rsp)
  10abbc:	48 ba ff 00 ff 00 ff 	movabs $0xff00ff00ff00ff,%rdx
  10abc3:	00 ff 00 
  10abc6:	48 89 c8             	mov    %rcx,%rax
  10abc9:	48 21 d0             	and    %rdx,%rax
  10abcc:	48 c1 e9 08          	shr    $0x8,%rcx
  10abd0:	48 ba ff 00 ff 00 ff 	movabs $0xff00ff00ff00ff,%rdx
  10abd7:	00 ff 00 
  10abda:	48 21 d1             	and    %rdx,%rcx
  10abdd:	48 01 c8             	add    %rcx,%rax
  10abe0:	48 89 44 24 10       	mov    %rax,0x10(%rsp)
  10abe5:	0f 92 c0             	setb   %al
  10abe8:	a8 01                	test   $0x1,%al
  10abea:	75 4b                	jne    10ac37 <_ZN4core3str5count18sum_bytes_in_usize17h1297664451da2f68E+0x87>
  10abec:	48 8b 44 24 10       	mov    0x10(%rsp),%rax
  10abf1:	48 89 44 24 20       	mov    %rax,0x20(%rsp)
  10abf6:	48 89 44 24 28       	mov    %rax,0x28(%rsp)
  10abfb:	48 b9 01 00 01 00 01 	movabs $0x1000100010001,%rcx
  10ac02:	00 01 00 
  10ac05:	48 89 4c 24 30       	mov    %rcx,0x30(%rsp)
  10ac0a:	48 b9 01 00 01 00 01 	movabs $0x1000100010001,%rcx
  10ac11:	00 01 00 
  10ac14:	48 0f af c1          	imul   %rcx,%rax
  10ac18:	48 89 04 24          	mov    %rax,(%rsp)
  10ac1c:	b8 06 00 00 00       	mov    $0x6,%eax
  10ac21:	b9 08 00 00 00       	mov    $0x8,%ecx
  10ac26:	48 f7 e1             	mul    %rcx
  10ac29:	48 89 44 24 08       	mov    %rax,0x8(%rsp)
  10ac2e:	0f 90 c0             	seto   %al
  10ac31:	a8 01                	test   $0x1,%al
  10ac33:	75 2e                	jne    10ac63 <_ZN4core3str5count18sum_bytes_in_usize17h1297664451da2f68E+0xb3>
  10ac35:	eb 1a                	jmp    10ac51 <_ZN4core3str5count18sum_bytes_in_usize17h1297664451da2f68E+0xa1>
  10ac37:	48 8d 3d f2 64 ff ff 	lea    -0x9b0e(%rip),%rdi        # 101130 <str.0>
  10ac3e:	48 8d 15 e3 75 00 00 	lea    0x75e3(%rip),%rdx        # 112228 <_ZN4core3fmt2rt12USIZE_MARKER17h1b31419084dfd5e3E+0x830>
  10ac45:	be 1c 00 00 00       	mov    $0x1c,%esi
  10ac4a:	e8 e1 a7 ff ff       	callq  105430 <_ZN4core9panicking5panic17h4e18ef80ec7677b0E>
  10ac4f:	0f 0b                	ud2    
  10ac51:	48 8b 44 24 08       	mov    0x8(%rsp),%rax
  10ac56:	48 83 f8 40          	cmp    $0x40,%rax
  10ac5a:	0f 92 c0             	setb   %al
  10ac5d:	a8 01                	test   $0x1,%al
  10ac5f:	75 1c                	jne    10ac7d <_ZN4core3str5count18sum_bytes_in_usize17h1297664451da2f68E+0xcd>
  10ac61:	eb 2f                	jmp    10ac92 <_ZN4core3str5count18sum_bytes_in_usize17h1297664451da2f68E+0xe2>
  10ac63:	48 8d 3d 66 65 ff ff 	lea    -0x9a9a(%rip),%rdi        # 1011d0 <str.1>
  10ac6a:	48 8d 15 cf 75 00 00 	lea    0x75cf(%rip),%rdx        # 112240 <_ZN4core3fmt2rt12USIZE_MARKER17h1b31419084dfd5e3E+0x848>
  10ac71:	be 21 00 00 00       	mov    $0x21,%esi
  10ac76:	e8 b5 a7 ff ff       	callq  105430 <_ZN4core9panicking5panic17h4e18ef80ec7677b0E>
  10ac7b:	0f 0b                	ud2    
  10ac7d:	48 8b 04 24          	mov    (%rsp),%rax
  10ac81:	48 8b 4c 24 08       	mov    0x8(%rsp),%rcx
  10ac86:	48 83 e1 3f          	and    $0x3f,%rcx
  10ac8a:	48 d3 e8             	shr    %cl,%rax
  10ac8d:	48 83 c4 38          	add    $0x38,%rsp
  10ac91:	c3                   	retq   
  10ac92:	48 8d 3d 67 65 ff ff 	lea    -0x9a99(%rip),%rdi        # 101200 <str.2>
  10ac99:	48 8d 15 b8 75 00 00 	lea    0x75b8(%rip),%rdx        # 112258 <_ZN4core3fmt2rt12USIZE_MARKER17h1b31419084dfd5e3E+0x860>
  10aca0:	be 24 00 00 00       	mov    $0x24,%esi
  10aca5:	e8 86 a7 ff ff       	callq  105430 <_ZN4core9panicking5panic17h4e18ef80ec7677b0E>
  10acaa:	0f 0b                	ud2    
  10acac:	cc                   	int3   
  10acad:	cc                   	int3   
  10acae:	cc                   	int3   
  10acaf:	cc                   	int3   

000000000010acb0 <_ZN4core3str5count23char_count_general_case17h3dc30669ae7b0a02E>:
  10acb0:	48 83 ec 18          	sub    $0x18,%rsp
  10acb4:	48 89 7c 24 08       	mov    %rdi,0x8(%rsp)
  10acb9:	48 89 74 24 10       	mov    %rsi,0x10(%rsp)
  10acbe:	e8 4d 3c 00 00       	callq  10e910 <_ZN4core5slice29_$LT$impl$u20$$u5b$T$u5d$$GT$4iter17h91c6f813157a1ddaE>
  10acc3:	48 89 c7             	mov    %rax,%rdi
  10acc6:	48 89 d6             	mov    %rdx,%rsi
  10acc9:	e8 92 11 00 00       	callq  10be60 <_ZN4core4iter6traits8iterator8Iterator6filter17h023e672b48fcb0a6E>
  10acce:	48 89 c7             	mov    %rax,%rdi
  10acd1:	48 89 d6             	mov    %rdx,%rsi
  10acd4:	e8 a7 c6 ff ff       	callq  107380 <_ZN108_$LT$core..iter..adapters..filter..Filter$LT$I$C$P$GT$$u20$as$u20$core..iter..traits..iterator..Iterator$GT$5count17h7b802eac0a1883c8E>
  10acd9:	48 83 c4 18          	add    $0x18,%rsp
  10acdd:	c3                   	retq   
  10acde:	cc                   	int3   
  10acdf:	cc                   	int3   

000000000010ace0 <_ZN4core3str5count23char_count_general_case28_$u7b$$u7b$closure$u7d$$u7d$17h148f73192f53e5efE>:
  10ace0:	48 83 ec 18          	sub    $0x18,%rsp
  10ace4:	48 89 3c 24          	mov    %rdi,(%rsp)
  10ace8:	48 89 74 24 08       	mov    %rsi,0x8(%rsp)
  10aced:	48 8b 06             	mov    (%rsi),%rax
  10acf0:	8a 00                	mov    (%rax),%al
  10acf2:	88 44 24 17          	mov    %al,0x17(%rsp)
  10acf6:	0f b6 f8             	movzbl %al,%edi
  10acf9:	e8 02 ea ff ff       	callq  109700 <_ZN4core3str11validations17utf8_is_cont_byte17h728ce8c29172e033E>
  10acfe:	34 ff                	xor    $0xff,%al
  10ad00:	24 01                	and    $0x1,%al
  10ad02:	0f b6 c0             	movzbl %al,%eax
  10ad05:	48 83 c4 18          	add    $0x18,%rsp
  10ad09:	c3                   	retq   
  10ad0a:	cc                   	int3   
  10ad0b:	cc                   	int3   
  10ad0c:	cc                   	int3   
  10ad0d:	cc                   	int3   
  10ad0e:	cc                   	int3   
  10ad0f:	cc                   	int3   

000000000010ad10 <_ZN4core3ptr9const_ptr33_$LT$impl$u20$$BP$const$u20$T$GT$7is_null17h54f597440576eb2eE>:
  10ad10:	48 83 ec 18          	sub    $0x18,%rsp
  10ad14:	48 89 7c 24 10       	mov    %rdi,0x10(%rsp)
  10ad19:	48 89 7c 24 08       	mov    %rdi,0x8(%rsp)
  10ad1e:	48 8b 7c 24 08       	mov    0x8(%rsp),%rdi
  10ad23:	e8 a8 00 00 00       	callq  10add0 <_ZN4core3ptr9const_ptr33_$LT$impl$u20$$BP$const$u20$T$GT$7is_null12runtime_impl17hd60492d86b291f28E>
  10ad28:	24 01                	and    $0x1,%al
  10ad2a:	0f b6 c0             	movzbl %al,%eax
  10ad2d:	48 83 c4 18          	add    $0x18,%rsp
  10ad31:	c3                   	retq   
  10ad32:	cc                   	int3   
  10ad33:	cc                   	int3   
  10ad34:	cc                   	int3   
  10ad35:	cc                   	int3   
  10ad36:	cc                   	int3   
  10ad37:	cc                   	int3   
  10ad38:	cc                   	int3   
  10ad39:	cc                   	int3   
  10ad3a:	cc                   	int3   
  10ad3b:	cc                   	int3   
  10ad3c:	cc                   	int3   
  10ad3d:	cc                   	int3   
  10ad3e:	cc                   	int3   
  10ad3f:	cc                   	int3   

000000000010ad40 <_ZN4core3ptr9const_ptr33_$LT$impl$u20$$BP$const$u20$T$GT$7is_null17h6dea5e0d9a48698eE>:
  10ad40:	48 83 ec 18          	sub    $0x18,%rsp
  10ad44:	48 89 7c 24 10       	mov    %rdi,0x10(%rsp)
  10ad49:	48 89 7c 24 08       	mov    %rdi,0x8(%rsp)
  10ad4e:	48 8b 7c 24 08       	mov    0x8(%rsp),%rdi
  10ad53:	e8 78 00 00 00       	callq  10add0 <_ZN4core3ptr9const_ptr33_$LT$impl$u20$$BP$const$u20$T$GT$7is_null12runtime_impl17hd60492d86b291f28E>
  10ad58:	24 01                	and    $0x1,%al
  10ad5a:	0f b6 c0             	movzbl %al,%eax
  10ad5d:	48 83 c4 18          	add    $0x18,%rsp
  10ad61:	c3                   	retq   
  10ad62:	cc                   	int3   
  10ad63:	cc                   	int3   
  10ad64:	cc                   	int3   
  10ad65:	cc                   	int3   
  10ad66:	cc                   	int3   
  10ad67:	cc                   	int3   
  10ad68:	cc                   	int3   
  10ad69:	cc                   	int3   
  10ad6a:	cc                   	int3   
  10ad6b:	cc                   	int3   
  10ad6c:	cc                   	int3   
  10ad6d:	cc                   	int3   
  10ad6e:	cc                   	int3   
  10ad6f:	cc                   	int3   

000000000010ad70 <_ZN4core3ptr9const_ptr33_$LT$impl$u20$$BP$const$u20$T$GT$7is_null17h7a7e980da443e981E>:
  10ad70:	48 83 ec 18          	sub    $0x18,%rsp
  10ad74:	48 89 7c 24 10       	mov    %rdi,0x10(%rsp)
  10ad79:	48 89 7c 24 08       	mov    %rdi,0x8(%rsp)
  10ad7e:	48 8b 7c 24 08       	mov    0x8(%rsp),%rdi
  10ad83:	e8 48 00 00 00       	callq  10add0 <_ZN4core3ptr9const_ptr33_$LT$impl$u20$$BP$const$u20$T$GT$7is_null12runtime_impl17hd60492d86b291f28E>
  10ad88:	24 01                	and    $0x1,%al
  10ad8a:	0f b6 c0             	movzbl %al,%eax
  10ad8d:	48 83 c4 18          	add    $0x18,%rsp
  10ad91:	c3                   	retq   
  10ad92:	cc                   	int3   
  10ad93:	cc                   	int3   
  10ad94:	cc                   	int3   
  10ad95:	cc                   	int3   
  10ad96:	cc                   	int3   
  10ad97:	cc                   	int3   
  10ad98:	cc                   	int3   
  10ad99:	cc                   	int3   
  10ad9a:	cc                   	int3   
  10ad9b:	cc                   	int3   
  10ad9c:	cc                   	int3   
  10ad9d:	cc                   	int3   
  10ad9e:	cc                   	int3   
  10ad9f:	cc                   	int3   

000000000010ada0 <_ZN4core3ptr9const_ptr33_$LT$impl$u20$$BP$const$u20$T$GT$7is_null17hcc6849e03d468a61E>:
  10ada0:	48 83 ec 18          	sub    $0x18,%rsp
  10ada4:	48 89 7c 24 10       	mov    %rdi,0x10(%rsp)
  10ada9:	48 89 7c 24 08       	mov    %rdi,0x8(%rsp)
  10adae:	48 8b 7c 24 08       	mov    0x8(%rsp),%rdi
  10adb3:	e8 18 00 00 00       	callq  10add0 <_ZN4core3ptr9const_ptr33_$LT$impl$u20$$BP$const$u20$T$GT$7is_null12runtime_impl17hd60492d86b291f28E>
  10adb8:	24 01                	and    $0x1,%al
  10adba:	0f b6 c0             	movzbl %al,%eax
  10adbd:	48 83 c4 18          	add    $0x18,%rsp
  10adc1:	c3                   	retq   
  10adc2:	cc                   	int3   
  10adc3:	cc                   	int3   
  10adc4:	cc                   	int3   
  10adc5:	cc                   	int3   
  10adc6:	cc                   	int3   
  10adc7:	cc                   	int3   
  10adc8:	cc                   	int3   
  10adc9:	cc                   	int3   
  10adca:	cc                   	int3   
  10adcb:	cc                   	int3   
  10adcc:	cc                   	int3   
  10adcd:	cc                   	int3   
  10adce:	cc                   	int3   
  10adcf:	cc                   	int3   

000000000010add0 <_ZN4core3ptr9const_ptr33_$LT$impl$u20$$BP$const$u20$T$GT$7is_null12runtime_impl17hd60492d86b291f28E>:
  10add0:	48 83 ec 18          	sub    $0x18,%rsp
  10add4:	48 89 3c 24          	mov    %rdi,(%rsp)
  10add8:	48 89 7c 24 08       	mov    %rdi,0x8(%rsp)
  10addd:	48 89 7c 24 10       	mov    %rdi,0x10(%rsp)
  10ade2:	48 83 ff 00          	cmp    $0x0,%rdi
  10ade6:	0f 94 c0             	sete   %al
  10ade9:	24 01                	and    $0x1,%al
  10adeb:	0f b6 c0             	movzbl %al,%eax
  10adee:	48 83 c4 18          	add    $0x18,%rsp
  10adf2:	c3                   	retq   
  10adf3:	cc                   	int3   
  10adf4:	cc                   	int3   
  10adf5:	cc                   	int3   
  10adf6:	cc                   	int3   
  10adf7:	cc                   	int3   
  10adf8:	cc                   	int3   
  10adf9:	cc                   	int3   
  10adfa:	cc                   	int3   
  10adfb:	cc                   	int3   
  10adfc:	cc                   	int3   
  10adfd:	cc                   	int3   
  10adfe:	cc                   	int3   
  10adff:	cc                   	int3   

000000000010ae00 <_ZN4core3ptr9const_ptr33_$LT$impl$u20$$BP$const$u20$T$GT$7sub_ptr17hbb5f2b6c27645241E>:
  10ae00:	48 83 ec 58          	sub    $0x58,%rsp
  10ae04:	48 89 34 24          	mov    %rsi,(%rsp)
  10ae08:	48 89 7c 24 08       	mov    %rdi,0x8(%rsp)
  10ae0d:	48 89 7c 24 28       	mov    %rdi,0x28(%rsp)
  10ae12:	48 89 74 24 30       	mov    %rsi,0x30(%rsp)
  10ae17:	b0 01                	mov    $0x1,%al
  10ae19:	a8 01                	test   $0x1,%al
  10ae1b:	75 13                	jne    10ae30 <_ZN4core3ptr9const_ptr33_$LT$impl$u20$$BP$const$u20$T$GT$7sub_ptr17hbb5f2b6c27645241E+0x30>
  10ae1d:	48 c7 44 24 38 01 00 	movq   $0x1,0x38(%rsp)
  10ae24:	00 00 
  10ae26:	31 c0                	xor    %eax,%eax
  10ae28:	48 83 f8 01          	cmp    $0x1,%rax
  10ae2c:	72 53                	jb     10ae81 <_ZN4core3ptr9const_ptr33_$LT$impl$u20$$BP$const$u20$T$GT$7sub_ptr17hbb5f2b6c27645241E+0x81>
  10ae2e:	eb 4a                	jmp    10ae7a <_ZN4core3ptr9const_ptr33_$LT$impl$u20$$BP$const$u20$T$GT$7sub_ptr17hbb5f2b6c27645241E+0x7a>
  10ae30:	48 8b 04 24          	mov    (%rsp),%rax
  10ae34:	48 8b 4c 24 08       	mov    0x8(%rsp),%rcx
  10ae39:	48 89 4c 24 10       	mov    %rcx,0x10(%rsp)
  10ae3e:	48 89 44 24 18       	mov    %rax,0x18(%rsp)
  10ae43:	48 8b 44 24 10       	mov    0x10(%rsp),%rax
  10ae48:	48 8b 4c 24 18       	mov    0x18(%rsp),%rcx
  10ae4d:	48 89 44 24 48       	mov    %rax,0x48(%rsp)
  10ae52:	48 89 4c 24 50       	mov    %rcx,0x50(%rsp)
  10ae57:	48 39 c8             	cmp    %rcx,%rax
  10ae5a:	0f 93 c0             	setae  %al
  10ae5d:	34 ff                	xor    $0xff,%al
  10ae5f:	a8 01                	test   $0x1,%al
  10ae61:	75 02                	jne    10ae65 <_ZN4core3ptr9const_ptr33_$LT$impl$u20$$BP$const$u20$T$GT$7sub_ptr17hbb5f2b6c27645241E+0x65>
  10ae63:	eb 13                	jmp    10ae78 <_ZN4core3ptr9const_ptr33_$LT$impl$u20$$BP$const$u20$T$GT$7sub_ptr17hbb5f2b6c27645241E+0x78>
  10ae65:	48 8d 3d b2 66 ff ff 	lea    -0x994e(%rip),%rdi        # 10151e <str.0+0x12e>
  10ae6c:	be 47 00 00 00       	mov    $0x47,%esi
  10ae71:	e8 0a a6 ff ff       	callq  105480 <_ZN4core9panicking14panic_nounwind17hbf97f84b8fd59176E>
  10ae76:	0f 0b                	ud2    
  10ae78:	eb a3                	jmp    10ae1d <_ZN4core3ptr9const_ptr33_$LT$impl$u20$$BP$const$u20$T$GT$7sub_ptr17hbb5f2b6c27645241E+0x1d>
  10ae7a:	c6 44 24 27 00       	movb   $0x0,0x27(%rsp)
  10ae7f:	eb 1b                	jmp    10ae9c <_ZN4core3ptr9const_ptr33_$LT$impl$u20$$BP$const$u20$T$GT$7sub_ptr17hbb5f2b6c27645241E+0x9c>
  10ae81:	b8 01 00 00 00       	mov    $0x1,%eax
  10ae86:	48 b9 ff ff ff ff ff 	movabs $0x7fffffffffffffff,%rcx
  10ae8d:	ff ff 7f 
  10ae90:	48 39 c8             	cmp    %rcx,%rax
  10ae93:	0f 96 c0             	setbe  %al
  10ae96:	24 01                	and    $0x1,%al
  10ae98:	88 44 24 27          	mov    %al,0x27(%rsp)
  10ae9c:	8a 44 24 27          	mov    0x27(%rsp),%al
  10aea0:	34 ff                	xor    $0xff,%al
  10aea2:	a8 01                	test   $0x1,%al
  10aea4:	75 1f                	jne    10aec5 <_ZN4core3ptr9const_ptr33_$LT$impl$u20$$BP$const$u20$T$GT$7sub_ptr17hbb5f2b6c27645241E+0xc5>
  10aea6:	48 8b 0c 24          	mov    (%rsp),%rcx
  10aeaa:	48 8b 44 24 08       	mov    0x8(%rsp),%rax
  10aeaf:	48 29 c8             	sub    %rcx,%rax
  10aeb2:	48 c1 e8 00          	shr    $0x0,%rax
  10aeb6:	48 89 44 24 40       	mov    %rax,0x40(%rsp)
  10aebb:	48 8b 44 24 40       	mov    0x40(%rsp),%rax
  10aec0:	48 83 c4 58          	add    $0x58,%rsp
  10aec4:	c3                   	retq   
  10aec5:	48 8d 3d 0c 64 ff ff 	lea    -0x9bf4(%rip),%rdi        # 1012d8 <str.2+0xd8>
  10aecc:	48 8d 15 9d 73 00 00 	lea    0x739d(%rip),%rdx        # 112270 <_ZN4core3fmt2rt12USIZE_MARKER17h1b31419084dfd5e3E+0x878>
  10aed3:	be 49 00 00 00       	mov    $0x49,%esi
  10aed8:	e8 53 a5 ff ff       	callq  105430 <_ZN4core9panicking5panic17h4e18ef80ec7677b0E>
  10aedd:	0f 0b                	ud2    
  10aedf:	cc                   	int3   

000000000010aee0 <_ZN4core3ptr9const_ptr33_$LT$impl$u20$$BP$const$u20$T$GT$12align_offset17hd8f1385960426044E>:
  10aee0:	48 83 ec 78          	sub    $0x78,%rsp
  10aee4:	48 89 f1             	mov    %rsi,%rcx
  10aee7:	48 89 4c 24 10       	mov    %rcx,0x10(%rsp)
  10aeec:	48 89 7c 24 18       	mov    %rdi,0x18(%rsp)
  10aef1:	48 89 7c 24 50       	mov    %rdi,0x50(%rsp)
  10aef6:	48 89 4c 24 58       	mov    %rcx,0x58(%rsp)
  10aefb:	48 89 4c 24 60       	mov    %rcx,0x60(%rsp)
  10af00:	48 89 4c 24 68       	mov    %rcx,0x68(%rsp)
  10af05:	48 89 c8             	mov    %rcx,%rax
  10af08:	48 d1 e8             	shr    %rax
  10af0b:	48 ba 55 55 55 55 55 	movabs $0x5555555555555555,%rdx
  10af12:	55 55 55 
  10af15:	48 21 d0             	and    %rdx,%rax
  10af18:	48 29 c1             	sub    %rax,%rcx
  10af1b:	48 ba 33 33 33 33 33 	movabs $0x3333333333333333,%rdx
  10af22:	33 33 33 
  10af25:	48 89 c8             	mov    %rcx,%rax
  10af28:	48 21 d0             	and    %rdx,%rax
  10af2b:	48 c1 e9 02          	shr    $0x2,%rcx
  10af2f:	48 21 d1             	and    %rdx,%rcx
  10af32:	48 01 c8             	add    %rcx,%rax
  10af35:	48 89 c1             	mov    %rax,%rcx
  10af38:	48 c1 e9 04          	shr    $0x4,%rcx
  10af3c:	48 01 c8             	add    %rcx,%rax
  10af3f:	48 b9 0f 0f 0f 0f 0f 	movabs $0xf0f0f0f0f0f0f0f,%rcx
  10af46:	0f 0f 0f 
  10af49:	48 21 c8             	and    %rcx,%rax
  10af4c:	48 b9 01 01 01 01 01 	movabs $0x101010101010101,%rcx
  10af53:	01 01 01 
  10af56:	48 0f af c1          	imul   %rcx,%rax
  10af5a:	48 c1 e8 38          	shr    $0x38,%rax
  10af5e:	48 89 44 24 70       	mov    %rax,0x70(%rsp)
  10af63:	48 8b 44 24 70       	mov    0x70(%rsp),%rax
  10af68:	83 f8 01             	cmp    $0x1,%eax
  10af6b:	0f 94 c0             	sete   %al
  10af6e:	34 ff                	xor    $0xff,%al
  10af70:	a8 01                	test   $0x1,%al
  10af72:	75 14                	jne    10af88 <_ZN4core3ptr9const_ptr33_$LT$impl$u20$$BP$const$u20$T$GT$12align_offset17hd8f1385960426044E+0xa8>
  10af74:	48 8b 74 24 10       	mov    0x10(%rsp),%rsi
  10af79:	48 8b 7c 24 18       	mov    0x18(%rsp),%rdi
  10af7e:	e8 4d 31 00 00       	callq  10e0d0 <_ZN4core3ptr12align_offset17h9945c110ff519511E>
  10af83:	48 83 c4 78          	add    $0x78,%rsp
  10af87:	c3                   	retq   
  10af88:	48 8d 35 f9 72 00 00 	lea    0x72f9(%rip),%rsi        # 112288 <_ZN4core3fmt2rt12USIZE_MARKER17h1b31419084dfd5e3E+0x890>
  10af8f:	48 8d 7c 24 20       	lea    0x20(%rsp),%rdi
  10af94:	48 89 7c 24 08       	mov    %rdi,0x8(%rsp)
  10af99:	ba 01 00 00 00       	mov    $0x1,%edx
  10af9e:	e8 cd c4 ff ff       	callq  107470 <_ZN4core3fmt9Arguments9new_const17hd728abf84ff8d077E>
  10afa3:	48 8b 7c 24 08       	mov    0x8(%rsp),%rdi
  10afa8:	48 8d 35 e9 72 00 00 	lea    0x72e9(%rip),%rsi        # 112298 <_ZN4core3fmt2rt12USIZE_MARKER17h1b31419084dfd5e3E+0x8a0>
  10afaf:	e8 cc a3 ff ff       	callq  105380 <_ZN4core9panicking9panic_fmt17hec0a0bac075b5c3fE>
  10afb4:	0f 0b                	ud2    
  10afb6:	cc                   	int3   
  10afb7:	cc                   	int3   
  10afb8:	cc                   	int3   
  10afb9:	cc                   	int3   
  10afba:	cc                   	int3   
  10afbb:	cc                   	int3   
  10afbc:	cc                   	int3   
  10afbd:	cc                   	int3   
  10afbe:	cc                   	int3   
  10afbf:	cc                   	int3   

000000000010afc0 <_ZN4core3ptr9const_ptr33_$LT$impl$u20$$BP$const$u20$T$GT$10is_aligned17h500858e2205cc81fE>:
  10afc0:	50                   	push   %rax
  10afc1:	48 89 3c 24          	mov    %rdi,(%rsp)
  10afc5:	be 08 00 00 00       	mov    $0x8,%esi
  10afca:	e8 71 02 00 00       	callq  10b240 <_ZN4core3ptr9const_ptr33_$LT$impl$u20$$BP$const$u20$T$GT$13is_aligned_to17hb183cdf90e618205E>
  10afcf:	24 01                	and    $0x1,%al
  10afd1:	0f b6 c0             	movzbl %al,%eax
  10afd4:	59                   	pop    %rcx
  10afd5:	c3                   	retq   
  10afd6:	cc                   	int3   
  10afd7:	cc                   	int3   
  10afd8:	cc                   	int3   
  10afd9:	cc                   	int3   
  10afda:	cc                   	int3   
  10afdb:	cc                   	int3   
  10afdc:	cc                   	int3   
  10afdd:	cc                   	int3   
  10afde:	cc                   	int3   
  10afdf:	cc                   	int3   

000000000010afe0 <_ZN4core3ptr9const_ptr33_$LT$impl$u20$$BP$const$u20$T$GT$10is_aligned17hc2d86f71c69810abE>:
  10afe0:	50                   	push   %rax
  10afe1:	48 89 3c 24          	mov    %rdi,(%rsp)
  10afe5:	be 04 00 00 00       	mov    $0x4,%esi
  10afea:	e8 51 01 00 00       	callq  10b140 <_ZN4core3ptr9const_ptr33_$LT$impl$u20$$BP$const$u20$T$GT$13is_aligned_to17h40ca3a1ec10db72bE>
  10afef:	24 01                	and    $0x1,%al
  10aff1:	0f b6 c0             	movzbl %al,%eax
  10aff4:	59                   	pop    %rcx
  10aff5:	c3                   	retq   
  10aff6:	cc                   	int3   
  10aff7:	cc                   	int3   
  10aff8:	cc                   	int3   
  10aff9:	cc                   	int3   
  10affa:	cc                   	int3   
  10affb:	cc                   	int3   
  10affc:	cc                   	int3   
  10affd:	cc                   	int3   
  10affe:	cc                   	int3   
  10afff:	cc                   	int3   

000000000010b000 <_ZN4core3ptr9const_ptr33_$LT$impl$u20$$BP$const$u20$T$GT$10is_aligned17hc718acdac8228f89E>:
  10b000:	50                   	push   %rax
  10b001:	48 89 3c 24          	mov    %rdi,(%rsp)
  10b005:	be 01 00 00 00       	mov    $0x1,%esi
  10b00a:	e8 31 00 00 00       	callq  10b040 <_ZN4core3ptr9const_ptr33_$LT$impl$u20$$BP$const$u20$T$GT$13is_aligned_to17h0c72f9db13c70925E>
  10b00f:	24 01                	and    $0x1,%al
  10b011:	0f b6 c0             	movzbl %al,%eax
  10b014:	59                   	pop    %rcx
  10b015:	c3                   	retq   
  10b016:	cc                   	int3   
  10b017:	cc                   	int3   
  10b018:	cc                   	int3   
  10b019:	cc                   	int3   
  10b01a:	cc                   	int3   
  10b01b:	cc                   	int3   
  10b01c:	cc                   	int3   
  10b01d:	cc                   	int3   
  10b01e:	cc                   	int3   
  10b01f:	cc                   	int3   

000000000010b020 <_ZN4core3ptr9const_ptr33_$LT$impl$u20$$BP$const$u20$T$GT$10is_aligned17hde799338ef86532dE>:
  10b020:	50                   	push   %rax
  10b021:	48 89 3c 24          	mov    %rdi,(%rsp)
  10b025:	be 08 00 00 00       	mov    $0x8,%esi
  10b02a:	e8 11 03 00 00       	callq  10b340 <_ZN4core3ptr9const_ptr33_$LT$impl$u20$$BP$const$u20$T$GT$13is_aligned_to17he8648fa37aa5cce2E>
  10b02f:	24 01                	and    $0x1,%al
  10b031:	0f b6 c0             	movzbl %al,%eax
  10b034:	59                   	pop    %rcx
  10b035:	c3                   	retq   
  10b036:	cc                   	int3   
  10b037:	cc                   	int3   
  10b038:	cc                   	int3   
  10b039:	cc                   	int3   
  10b03a:	cc                   	int3   
  10b03b:	cc                   	int3   
  10b03c:	cc                   	int3   
  10b03d:	cc                   	int3   
  10b03e:	cc                   	int3   
  10b03f:	cc                   	int3   

000000000010b040 <_ZN4core3ptr9const_ptr33_$LT$impl$u20$$BP$const$u20$T$GT$13is_aligned_to17h0c72f9db13c70925E>:
  10b040:	48 81 ec 88 00 00 00 	sub    $0x88,%rsp
  10b047:	48 89 f1             	mov    %rsi,%rcx
  10b04a:	48 89 4c 24 08       	mov    %rcx,0x8(%rsp)
  10b04f:	48 89 7c 24 10       	mov    %rdi,0x10(%rsp)
  10b054:	48 89 7c 24 58       	mov    %rdi,0x58(%rsp)
  10b059:	48 89 4c 24 60       	mov    %rcx,0x60(%rsp)
  10b05e:	48 89 4c 24 70       	mov    %rcx,0x70(%rsp)
  10b063:	48 89 4c 24 78       	mov    %rcx,0x78(%rsp)
  10b068:	48 89 c8             	mov    %rcx,%rax
  10b06b:	48 d1 e8             	shr    %rax
  10b06e:	48 ba 55 55 55 55 55 	movabs $0x5555555555555555,%rdx
  10b075:	55 55 55 
  10b078:	48 21 d0             	and    %rdx,%rax
  10b07b:	48 29 c1             	sub    %rax,%rcx
  10b07e:	48 ba 33 33 33 33 33 	movabs $0x3333333333333333,%rdx
  10b085:	33 33 33 
  10b088:	48 89 c8             	mov    %rcx,%rax
  10b08b:	48 21 d0             	and    %rdx,%rax
  10b08e:	48 c1 e9 02          	shr    $0x2,%rcx
  10b092:	48 21 d1             	and    %rdx,%rcx
  10b095:	48 01 c8             	add    %rcx,%rax
  10b098:	48 89 c1             	mov    %rax,%rcx
  10b09b:	48 c1 e9 04          	shr    $0x4,%rcx
  10b09f:	48 01 c8             	add    %rcx,%rax
  10b0a2:	48 b9 0f 0f 0f 0f 0f 	movabs $0xf0f0f0f0f0f0f0f,%rcx
  10b0a9:	0f 0f 0f 
  10b0ac:	48 21 c8             	and    %rcx,%rax
  10b0af:	48 b9 01 01 01 01 01 	movabs $0x101010101010101,%rcx
  10b0b6:	01 01 01 
  10b0b9:	48 0f af c1          	imul   %rcx,%rax
  10b0bd:	48 c1 e8 38          	shr    $0x38,%rax
  10b0c1:	48 89 84 24 80 00 00 	mov    %rax,0x80(%rsp)
  10b0c8:	00 
  10b0c9:	48 8b 84 24 80 00 00 	mov    0x80(%rsp),%rax
  10b0d0:	00 
  10b0d1:	83 f8 01             	cmp    $0x1,%eax
  10b0d4:	0f 94 c0             	sete   %al
  10b0d7:	34 ff                	xor    $0xff,%al
  10b0d9:	a8 01                	test   $0x1,%al
  10b0db:	75 35                	jne    10b112 <_ZN4core3ptr9const_ptr33_$LT$impl$u20$$BP$const$u20$T$GT$13is_aligned_to17h0c72f9db13c70925E+0xd2>
  10b0dd:	48 8b 44 24 08       	mov    0x8(%rsp),%rax
  10b0e2:	48 8b 4c 24 10       	mov    0x10(%rsp),%rcx
  10b0e7:	48 89 4c 24 68       	mov    %rcx,0x68(%rsp)
  10b0ec:	48 89 4c 24 48       	mov    %rcx,0x48(%rsp)
  10b0f1:	48 89 44 24 50       	mov    %rax,0x50(%rsp)
  10b0f6:	48 8b 7c 24 48       	mov    0x48(%rsp),%rdi
  10b0fb:	48 8b 74 24 50       	mov    0x50(%rsp),%rsi
  10b100:	e8 3b 03 00 00       	callq  10b440 <_ZN4core3ptr9const_ptr33_$LT$impl$u20$$BP$const$u20$T$GT$13is_aligned_to12runtime_impl17hf9d2dfeac1574f91E>
  10b105:	24 01                	and    $0x1,%al
  10b107:	0f b6 c0             	movzbl %al,%eax
  10b10a:	48 81 c4 88 00 00 00 	add    $0x88,%rsp
  10b111:	c3                   	retq   
  10b112:	48 8d 35 97 71 00 00 	lea    0x7197(%rip),%rsi        # 1122b0 <_ZN4core3fmt2rt12USIZE_MARKER17h1b31419084dfd5e3E+0x8b8>
  10b119:	48 8d 7c 24 18       	lea    0x18(%rsp),%rdi
  10b11e:	48 89 3c 24          	mov    %rdi,(%rsp)
  10b122:	ba 01 00 00 00       	mov    $0x1,%edx
  10b127:	e8 44 c3 ff ff       	callq  107470 <_ZN4core3fmt9Arguments9new_const17hd728abf84ff8d077E>
  10b12c:	48 8b 3c 24          	mov    (%rsp),%rdi
  10b130:	48 8d 35 89 71 00 00 	lea    0x7189(%rip),%rsi        # 1122c0 <_ZN4core3fmt2rt12USIZE_MARKER17h1b31419084dfd5e3E+0x8c8>
  10b137:	e8 44 a2 ff ff       	callq  105380 <_ZN4core9panicking9panic_fmt17hec0a0bac075b5c3fE>
  10b13c:	0f 0b                	ud2    
  10b13e:	cc                   	int3   
  10b13f:	cc                   	int3   

000000000010b140 <_ZN4core3ptr9const_ptr33_$LT$impl$u20$$BP$const$u20$T$GT$13is_aligned_to17h40ca3a1ec10db72bE>:
  10b140:	48 81 ec 88 00 00 00 	sub    $0x88,%rsp
  10b147:	48 89 f1             	mov    %rsi,%rcx
  10b14a:	48 89 4c 24 08       	mov    %rcx,0x8(%rsp)
  10b14f:	48 89 7c 24 10       	mov    %rdi,0x10(%rsp)
  10b154:	48 89 7c 24 58       	mov    %rdi,0x58(%rsp)
  10b159:	48 89 4c 24 60       	mov    %rcx,0x60(%rsp)
  10b15e:	48 89 4c 24 70       	mov    %rcx,0x70(%rsp)
  10b163:	48 89 4c 24 78       	mov    %rcx,0x78(%rsp)
  10b168:	48 89 c8             	mov    %rcx,%rax
  10b16b:	48 d1 e8             	shr    %rax
  10b16e:	48 ba 55 55 55 55 55 	movabs $0x5555555555555555,%rdx
  10b175:	55 55 55 
  10b178:	48 21 d0             	and    %rdx,%rax
  10b17b:	48 29 c1             	sub    %rax,%rcx
  10b17e:	48 ba 33 33 33 33 33 	movabs $0x3333333333333333,%rdx
  10b185:	33 33 33 
  10b188:	48 89 c8             	mov    %rcx,%rax
  10b18b:	48 21 d0             	and    %rdx,%rax
  10b18e:	48 c1 e9 02          	shr    $0x2,%rcx
  10b192:	48 21 d1             	and    %rdx,%rcx
  10b195:	48 01 c8             	add    %rcx,%rax
  10b198:	48 89 c1             	mov    %rax,%rcx
  10b19b:	48 c1 e9 04          	shr    $0x4,%rcx
  10b19f:	48 01 c8             	add    %rcx,%rax
  10b1a2:	48 b9 0f 0f 0f 0f 0f 	movabs $0xf0f0f0f0f0f0f0f,%rcx
  10b1a9:	0f 0f 0f 
  10b1ac:	48 21 c8             	and    %rcx,%rax
  10b1af:	48 b9 01 01 01 01 01 	movabs $0x101010101010101,%rcx
  10b1b6:	01 01 01 
  10b1b9:	48 0f af c1          	imul   %rcx,%rax
  10b1bd:	48 c1 e8 38          	shr    $0x38,%rax
  10b1c1:	48 89 84 24 80 00 00 	mov    %rax,0x80(%rsp)
  10b1c8:	00 
  10b1c9:	48 8b 84 24 80 00 00 	mov    0x80(%rsp),%rax
  10b1d0:	00 
  10b1d1:	83 f8 01             	cmp    $0x1,%eax
  10b1d4:	0f 94 c0             	sete   %al
  10b1d7:	34 ff                	xor    $0xff,%al
  10b1d9:	a8 01                	test   $0x1,%al
  10b1db:	75 35                	jne    10b212 <_ZN4core3ptr9const_ptr33_$LT$impl$u20$$BP$const$u20$T$GT$13is_aligned_to17h40ca3a1ec10db72bE+0xd2>
  10b1dd:	48 8b 44 24 08       	mov    0x8(%rsp),%rax
  10b1e2:	48 8b 4c 24 10       	mov    0x10(%rsp),%rcx
  10b1e7:	48 89 4c 24 68       	mov    %rcx,0x68(%rsp)
  10b1ec:	48 89 4c 24 48       	mov    %rcx,0x48(%rsp)
  10b1f1:	48 89 44 24 50       	mov    %rax,0x50(%rsp)
  10b1f6:	48 8b 7c 24 48       	mov    0x48(%rsp),%rdi
  10b1fb:	48 8b 74 24 50       	mov    0x50(%rsp),%rsi
  10b200:	e8 3b 02 00 00       	callq  10b440 <_ZN4core3ptr9const_ptr33_$LT$impl$u20$$BP$const$u20$T$GT$13is_aligned_to12runtime_impl17hf9d2dfeac1574f91E>
  10b205:	24 01                	and    $0x1,%al
  10b207:	0f b6 c0             	movzbl %al,%eax
  10b20a:	48 81 c4 88 00 00 00 	add    $0x88,%rsp
  10b211:	c3                   	retq   
  10b212:	48 8d 35 97 70 00 00 	lea    0x7097(%rip),%rsi        # 1122b0 <_ZN4core3fmt2rt12USIZE_MARKER17h1b31419084dfd5e3E+0x8b8>
  10b219:	48 8d 7c 24 18       	lea    0x18(%rsp),%rdi
  10b21e:	48 89 3c 24          	mov    %rdi,(%rsp)
  10b222:	ba 01 00 00 00       	mov    $0x1,%edx
  10b227:	e8 44 c2 ff ff       	callq  107470 <_ZN4core3fmt9Arguments9new_const17hd728abf84ff8d077E>
  10b22c:	48 8b 3c 24          	mov    (%rsp),%rdi
  10b230:	48 8d 35 89 70 00 00 	lea    0x7089(%rip),%rsi        # 1122c0 <_ZN4core3fmt2rt12USIZE_MARKER17h1b31419084dfd5e3E+0x8c8>
  10b237:	e8 44 a1 ff ff       	callq  105380 <_ZN4core9panicking9panic_fmt17hec0a0bac075b5c3fE>
  10b23c:	0f 0b                	ud2    
  10b23e:	cc                   	int3   
  10b23f:	cc                   	int3   

000000000010b240 <_ZN4core3ptr9const_ptr33_$LT$impl$u20$$BP$const$u20$T$GT$13is_aligned_to17hb183cdf90e618205E>:
  10b240:	48 81 ec 88 00 00 00 	sub    $0x88,%rsp
  10b247:	48 89 f1             	mov    %rsi,%rcx
  10b24a:	48 89 4c 24 08       	mov    %rcx,0x8(%rsp)
  10b24f:	48 89 7c 24 10       	mov    %rdi,0x10(%rsp)
  10b254:	48 89 7c 24 58       	mov    %rdi,0x58(%rsp)
  10b259:	48 89 4c 24 60       	mov    %rcx,0x60(%rsp)
  10b25e:	48 89 4c 24 70       	mov    %rcx,0x70(%rsp)
  10b263:	48 89 4c 24 78       	mov    %rcx,0x78(%rsp)
  10b268:	48 89 c8             	mov    %rcx,%rax
  10b26b:	48 d1 e8             	shr    %rax
  10b26e:	48 ba 55 55 55 55 55 	movabs $0x5555555555555555,%rdx
  10b275:	55 55 55 
  10b278:	48 21 d0             	and    %rdx,%rax
  10b27b:	48 29 c1             	sub    %rax,%rcx
  10b27e:	48 ba 33 33 33 33 33 	movabs $0x3333333333333333,%rdx
  10b285:	33 33 33 
  10b288:	48 89 c8             	mov    %rcx,%rax
  10b28b:	48 21 d0             	and    %rdx,%rax
  10b28e:	48 c1 e9 02          	shr    $0x2,%rcx
  10b292:	48 21 d1             	and    %rdx,%rcx
  10b295:	48 01 c8             	add    %rcx,%rax
  10b298:	48 89 c1             	mov    %rax,%rcx
  10b29b:	48 c1 e9 04          	shr    $0x4,%rcx
  10b29f:	48 01 c8             	add    %rcx,%rax
  10b2a2:	48 b9 0f 0f 0f 0f 0f 	movabs $0xf0f0f0f0f0f0f0f,%rcx
  10b2a9:	0f 0f 0f 
  10b2ac:	48 21 c8             	and    %rcx,%rax
  10b2af:	48 b9 01 01 01 01 01 	movabs $0x101010101010101,%rcx
  10b2b6:	01 01 01 
  10b2b9:	48 0f af c1          	imul   %rcx,%rax
  10b2bd:	48 c1 e8 38          	shr    $0x38,%rax
  10b2c1:	48 89 84 24 80 00 00 	mov    %rax,0x80(%rsp)
  10b2c8:	00 
  10b2c9:	48 8b 84 24 80 00 00 	mov    0x80(%rsp),%rax
  10b2d0:	00 
  10b2d1:	83 f8 01             	cmp    $0x1,%eax
  10b2d4:	0f 94 c0             	sete   %al
  10b2d7:	34 ff                	xor    $0xff,%al
  10b2d9:	a8 01                	test   $0x1,%al
  10b2db:	75 35                	jne    10b312 <_ZN4core3ptr9const_ptr33_$LT$impl$u20$$BP$const$u20$T$GT$13is_aligned_to17hb183cdf90e618205E+0xd2>
  10b2dd:	48 8b 44 24 08       	mov    0x8(%rsp),%rax
  10b2e2:	48 8b 4c 24 10       	mov    0x10(%rsp),%rcx
  10b2e7:	48 89 4c 24 68       	mov    %rcx,0x68(%rsp)
  10b2ec:	48 89 4c 24 48       	mov    %rcx,0x48(%rsp)
  10b2f1:	48 89 44 24 50       	mov    %rax,0x50(%rsp)
  10b2f6:	48 8b 7c 24 48       	mov    0x48(%rsp),%rdi
  10b2fb:	48 8b 74 24 50       	mov    0x50(%rsp),%rsi
  10b300:	e8 3b 01 00 00       	callq  10b440 <_ZN4core3ptr9const_ptr33_$LT$impl$u20$$BP$const$u20$T$GT$13is_aligned_to12runtime_impl17hf9d2dfeac1574f91E>
  10b305:	24 01                	and    $0x1,%al
  10b307:	0f b6 c0             	movzbl %al,%eax
  10b30a:	48 81 c4 88 00 00 00 	add    $0x88,%rsp
  10b311:	c3                   	retq   
  10b312:	48 8d 35 97 6f 00 00 	lea    0x6f97(%rip),%rsi        # 1122b0 <_ZN4core3fmt2rt12USIZE_MARKER17h1b31419084dfd5e3E+0x8b8>
  10b319:	48 8d 7c 24 18       	lea    0x18(%rsp),%rdi
  10b31e:	48 89 3c 24          	mov    %rdi,(%rsp)
  10b322:	ba 01 00 00 00       	mov    $0x1,%edx
  10b327:	e8 44 c1 ff ff       	callq  107470 <_ZN4core3fmt9Arguments9new_const17hd728abf84ff8d077E>
  10b32c:	48 8b 3c 24          	mov    (%rsp),%rdi
  10b330:	48 8d 35 89 6f 00 00 	lea    0x6f89(%rip),%rsi        # 1122c0 <_ZN4core3fmt2rt12USIZE_MARKER17h1b31419084dfd5e3E+0x8c8>
  10b337:	e8 44 a0 ff ff       	callq  105380 <_ZN4core9panicking9panic_fmt17hec0a0bac075b5c3fE>
  10b33c:	0f 0b                	ud2    
  10b33e:	cc                   	int3   
  10b33f:	cc                   	int3   

000000000010b340 <_ZN4core3ptr9const_ptr33_$LT$impl$u20$$BP$const$u20$T$GT$13is_aligned_to17he8648fa37aa5cce2E>:
  10b340:	48 81 ec 88 00 00 00 	sub    $0x88,%rsp
  10b347:	48 89 f1             	mov    %rsi,%rcx
  10b34a:	48 89 4c 24 08       	mov    %rcx,0x8(%rsp)
  10b34f:	48 89 7c 24 10       	mov    %rdi,0x10(%rsp)
  10b354:	48 89 7c 24 58       	mov    %rdi,0x58(%rsp)
  10b359:	48 89 4c 24 60       	mov    %rcx,0x60(%rsp)
  10b35e:	48 89 4c 24 70       	mov    %rcx,0x70(%rsp)
  10b363:	48 89 4c 24 78       	mov    %rcx,0x78(%rsp)
  10b368:	48 89 c8             	mov    %rcx,%rax
  10b36b:	48 d1 e8             	shr    %rax
  10b36e:	48 ba 55 55 55 55 55 	movabs $0x5555555555555555,%rdx
  10b375:	55 55 55 
  10b378:	48 21 d0             	and    %rdx,%rax
  10b37b:	48 29 c1             	sub    %rax,%rcx
  10b37e:	48 ba 33 33 33 33 33 	movabs $0x3333333333333333,%rdx
  10b385:	33 33 33 
  10b388:	48 89 c8             	mov    %rcx,%rax
  10b38b:	48 21 d0             	and    %rdx,%rax
  10b38e:	48 c1 e9 02          	shr    $0x2,%rcx
  10b392:	48 21 d1             	and    %rdx,%rcx
  10b395:	48 01 c8             	add    %rcx,%rax
  10b398:	48 89 c1             	mov    %rax,%rcx
  10b39b:	48 c1 e9 04          	shr    $0x4,%rcx
  10b39f:	48 01 c8             	add    %rcx,%rax
  10b3a2:	48 b9 0f 0f 0f 0f 0f 	movabs $0xf0f0f0f0f0f0f0f,%rcx
  10b3a9:	0f 0f 0f 
  10b3ac:	48 21 c8             	and    %rcx,%rax
  10b3af:	48 b9 01 01 01 01 01 	movabs $0x101010101010101,%rcx
  10b3b6:	01 01 01 
  10b3b9:	48 0f af c1          	imul   %rcx,%rax
  10b3bd:	48 c1 e8 38          	shr    $0x38,%rax
  10b3c1:	48 89 84 24 80 00 00 	mov    %rax,0x80(%rsp)
  10b3c8:	00 
  10b3c9:	48 8b 84 24 80 00 00 	mov    0x80(%rsp),%rax
  10b3d0:	00 
  10b3d1:	83 f8 01             	cmp    $0x1,%eax
  10b3d4:	0f 94 c0             	sete   %al
  10b3d7:	34 ff                	xor    $0xff,%al
  10b3d9:	a8 01                	test   $0x1,%al
  10b3db:	75 35                	jne    10b412 <_ZN4core3ptr9const_ptr33_$LT$impl$u20$$BP$const$u20$T$GT$13is_aligned_to17he8648fa37aa5cce2E+0xd2>
  10b3dd:	48 8b 44 24 08       	mov    0x8(%rsp),%rax
  10b3e2:	48 8b 4c 24 10       	mov    0x10(%rsp),%rcx
  10b3e7:	48 89 4c 24 68       	mov    %rcx,0x68(%rsp)
  10b3ec:	48 89 4c 24 48       	mov    %rcx,0x48(%rsp)
  10b3f1:	48 89 44 24 50       	mov    %rax,0x50(%rsp)
  10b3f6:	48 8b 7c 24 48       	mov    0x48(%rsp),%rdi
  10b3fb:	48 8b 74 24 50       	mov    0x50(%rsp),%rsi
  10b400:	e8 3b 00 00 00       	callq  10b440 <_ZN4core3ptr9const_ptr33_$LT$impl$u20$$BP$const$u20$T$GT$13is_aligned_to12runtime_impl17hf9d2dfeac1574f91E>
  10b405:	24 01                	and    $0x1,%al
  10b407:	0f b6 c0             	movzbl %al,%eax
  10b40a:	48 81 c4 88 00 00 00 	add    $0x88,%rsp
  10b411:	c3                   	retq   
  10b412:	48 8d 35 97 6e 00 00 	lea    0x6e97(%rip),%rsi        # 1122b0 <_ZN4core3fmt2rt12USIZE_MARKER17h1b31419084dfd5e3E+0x8b8>
  10b419:	48 8d 7c 24 18       	lea    0x18(%rsp),%rdi
  10b41e:	48 89 3c 24          	mov    %rdi,(%rsp)
  10b422:	ba 01 00 00 00       	mov    $0x1,%edx
  10b427:	e8 44 c0 ff ff       	callq  107470 <_ZN4core3fmt9Arguments9new_const17hd728abf84ff8d077E>
  10b42c:	48 8b 3c 24          	mov    (%rsp),%rdi
  10b430:	48 8d 35 89 6e 00 00 	lea    0x6e89(%rip),%rsi        # 1122c0 <_ZN4core3fmt2rt12USIZE_MARKER17h1b31419084dfd5e3E+0x8c8>
  10b437:	e8 44 9f ff ff       	callq  105380 <_ZN4core9panicking9panic_fmt17hec0a0bac075b5c3fE>
  10b43c:	0f 0b                	ud2    
  10b43e:	cc                   	int3   
  10b43f:	cc                   	int3   

000000000010b440 <_ZN4core3ptr9const_ptr33_$LT$impl$u20$$BP$const$u20$T$GT$13is_aligned_to12runtime_impl17hf9d2dfeac1574f91E>:
  10b440:	48 83 ec 38          	sub    $0x38,%rsp
  10b444:	48 89 7c 24 08       	mov    %rdi,0x8(%rsp)
  10b449:	48 89 7c 24 18       	mov    %rdi,0x18(%rsp)
  10b44e:	48 89 74 24 20       	mov    %rsi,0x20(%rsp)
  10b453:	48 89 7c 24 28       	mov    %rdi,0x28(%rsp)
  10b458:	48 89 7c 24 30       	mov    %rdi,0x30(%rsp)
  10b45d:	48 89 f0             	mov    %rsi,%rax
  10b460:	48 83 e8 01          	sub    $0x1,%rax
  10b464:	48 89 44 24 10       	mov    %rax,0x10(%rsp)
  10b469:	48 83 fe 01          	cmp    $0x1,%rsi
  10b46d:	0f 92 c0             	setb   %al
  10b470:	a8 01                	test   $0x1,%al
  10b472:	75 1e                	jne    10b492 <_ZN4core3ptr9const_ptr33_$LT$impl$u20$$BP$const$u20$T$GT$13is_aligned_to12runtime_impl17hf9d2dfeac1574f91E+0x52>
  10b474:	48 8b 4c 24 10       	mov    0x10(%rsp),%rcx
  10b479:	48 8b 44 24 08       	mov    0x8(%rsp),%rax
  10b47e:	48 21 c8             	and    %rcx,%rax
  10b481:	48 83 f8 00          	cmp    $0x0,%rax
  10b485:	0f 94 c0             	sete   %al
  10b488:	24 01                	and    $0x1,%al
  10b48a:	0f b6 c0             	movzbl %al,%eax
  10b48d:	48 83 c4 38          	add    $0x38,%rsp
  10b491:	c3                   	retq   
  10b492:	48 8d 3d 57 5f ff ff 	lea    -0xa0a9(%rip),%rdi        # 1013f0 <str.0>
  10b499:	48 8d 15 38 6e 00 00 	lea    0x6e38(%rip),%rdx        # 1122d8 <_ZN4core3fmt2rt12USIZE_MARKER17h1b31419084dfd5e3E+0x8e0>
  10b4a0:	be 21 00 00 00       	mov    $0x21,%esi
  10b4a5:	e8 86 9f ff ff       	callq  105430 <_ZN4core9panicking5panic17h4e18ef80ec7677b0E>
  10b4aa:	0f 0b                	ud2    
  10b4ac:	cc                   	int3   
  10b4ad:	cc                   	int3   
  10b4ae:	cc                   	int3   
  10b4af:	cc                   	int3   

000000000010b4b0 <_ZN4core3ptr9const_ptr43_$LT$impl$u20$$BP$const$u20$$u5b$T$u5d$$GT$3len17h2025d8233704ca40E>:
  10b4b0:	48 83 ec 18          	sub    $0x18,%rsp
  10b4b4:	48 89 7c 24 08       	mov    %rdi,0x8(%rsp)
  10b4b9:	48 89 74 24 10       	mov    %rsi,0x10(%rsp)
  10b4be:	e8 fd af ff ff       	callq  1064c0 <_ZN4core3ptr8metadata8metadata17he216e17a006137dbE>
  10b4c3:	48 83 c4 18          	add    $0x18,%rsp
  10b4c7:	c3                   	retq   
  10b4c8:	cc                   	int3   
  10b4c9:	cc                   	int3   
  10b4ca:	cc                   	int3   
  10b4cb:	cc                   	int3   
  10b4cc:	cc                   	int3   
  10b4cd:	cc                   	int3   
  10b4ce:	cc                   	int3   
  10b4cf:	cc                   	int3   

000000000010b4d0 <_ZN4core3ptr9const_ptr43_$LT$impl$u20$$BP$const$u20$$u5b$T$u5d$$GT$3len17h302f7c928e774910E>:
  10b4d0:	48 83 ec 18          	sub    $0x18,%rsp
  10b4d4:	48 89 7c 24 08       	mov    %rdi,0x8(%rsp)
  10b4d9:	48 89 74 24 10       	mov    %rsi,0x10(%rsp)
  10b4de:	e8 ad af ff ff       	callq  106490 <_ZN4core3ptr8metadata8metadata17h9c42aff0f4b1328cE>
  10b4e3:	48 83 c4 18          	add    $0x18,%rsp
  10b4e7:	c3                   	retq   
  10b4e8:	cc                   	int3   
  10b4e9:	cc                   	int3   
  10b4ea:	cc                   	int3   
  10b4eb:	cc                   	int3   
  10b4ec:	cc                   	int3   
  10b4ed:	cc                   	int3   
  10b4ee:	cc                   	int3   
  10b4ef:	cc                   	int3   

000000000010b4f0 <_ZN4core3ptr9const_ptr43_$LT$impl$u20$$BP$const$u20$$u5b$T$u5d$$GT$3len17hc4a3ada742fc702cE>:
  10b4f0:	48 83 ec 18          	sub    $0x18,%rsp
  10b4f4:	48 89 7c 24 08       	mov    %rdi,0x8(%rsp)
  10b4f9:	48 89 74 24 10       	mov    %rsi,0x10(%rsp)
  10b4fe:	e8 5d af ff ff       	callq  106460 <_ZN4core3ptr8metadata8metadata17h57ede4e3f76ccff9E>
  10b503:	48 83 c4 18          	add    $0x18,%rsp
  10b507:	c3                   	retq   
  10b508:	cc                   	int3   
  10b509:	cc                   	int3   
  10b50a:	cc                   	int3   
  10b50b:	cc                   	int3   
  10b50c:	cc                   	int3   
  10b50d:	cc                   	int3   
  10b50e:	cc                   	int3   
  10b50f:	cc                   	int3   

000000000010b510 <_ZN4core3ptr9const_ptr43_$LT$impl$u20$$BP$const$u20$$u5b$T$u5d$$GT$6as_ptr17h41b895457b254e1bE>:
  10b510:	48 83 ec 10          	sub    $0x10,%rsp
  10b514:	48 89 f8             	mov    %rdi,%rax
  10b517:	48 89 04 24          	mov    %rax,(%rsp)
  10b51b:	48 89 74 24 08       	mov    %rsi,0x8(%rsp)
  10b520:	48 83 c4 10          	add    $0x10,%rsp
  10b524:	c3                   	retq   
  10b525:	cc                   	int3   
  10b526:	cc                   	int3   
  10b527:	cc                   	int3   
  10b528:	cc                   	int3   
  10b529:	cc                   	int3   
  10b52a:	cc                   	int3   
  10b52b:	cc                   	int3   
  10b52c:	cc                   	int3   
  10b52d:	cc                   	int3   
  10b52e:	cc                   	int3   
  10b52f:	cc                   	int3   

000000000010b530 <_ZN4core3ptr9const_ptr43_$LT$impl$u20$$BP$const$u20$$u5b$T$u5d$$GT$6as_ptr17h54a1e46e9aa1245bE>:
  10b530:	48 83 ec 10          	sub    $0x10,%rsp
  10b534:	48 89 f8             	mov    %rdi,%rax
  10b537:	48 89 04 24          	mov    %rax,(%rsp)
  10b53b:	48 89 74 24 08       	mov    %rsi,0x8(%rsp)
  10b540:	48 83 c4 10          	add    $0x10,%rsp
  10b544:	c3                   	retq   
  10b545:	cc                   	int3   
  10b546:	cc                   	int3   
  10b547:	cc                   	int3   
  10b548:	cc                   	int3   
  10b549:	cc                   	int3   
  10b54a:	cc                   	int3   
  10b54b:	cc                   	int3   
  10b54c:	cc                   	int3   
  10b54d:	cc                   	int3   
  10b54e:	cc                   	int3   
  10b54f:	cc                   	int3   

000000000010b550 <_ZN4core3ptr9const_ptr43_$LT$impl$u20$$BP$const$u20$$u5b$T$u5d$$GT$6as_ptr17h5a31eacfe2b655fcE>:
  10b550:	48 83 ec 10          	sub    $0x10,%rsp
  10b554:	48 89 f8             	mov    %rdi,%rax
  10b557:	48 89 04 24          	mov    %rax,(%rsp)
  10b55b:	48 89 74 24 08       	mov    %rsi,0x8(%rsp)
  10b560:	48 83 c4 10          	add    $0x10,%rsp
  10b564:	c3                   	retq   
  10b565:	cc                   	int3   
  10b566:	cc                   	int3   
  10b567:	cc                   	int3   
  10b568:	cc                   	int3   
  10b569:	cc                   	int3   
  10b56a:	cc                   	int3   
  10b56b:	cc                   	int3   
  10b56c:	cc                   	int3   
  10b56d:	cc                   	int3   
  10b56e:	cc                   	int3   
  10b56f:	cc                   	int3   

000000000010b570 <_ZN4core3ptr7mut_ptr31_$LT$impl$u20$$BP$mut$u20$T$GT$7is_null17hadfb62f81baa32faE>:
  10b570:	48 83 ec 18          	sub    $0x18,%rsp
  10b574:	48 89 7c 24 10       	mov    %rdi,0x10(%rsp)
  10b579:	48 89 7c 24 08       	mov    %rdi,0x8(%rsp)
  10b57e:	48 8b 7c 24 08       	mov    0x8(%rsp),%rdi
  10b583:	e8 38 b1 ff ff       	callq  1066c0 <_ZN4core3ptr7mut_ptr31_$LT$impl$u20$$BP$mut$u20$T$GT$7is_null12runtime_impl17h6355b2739011991bE>
  10b588:	24 01                	and    $0x1,%al
  10b58a:	0f b6 c0             	movzbl %al,%eax
  10b58d:	48 83 c4 18          	add    $0x18,%rsp
  10b591:	c3                   	retq   
  10b592:	cc                   	int3   
  10b593:	cc                   	int3   
  10b594:	cc                   	int3   
  10b595:	cc                   	int3   
  10b596:	cc                   	int3   
  10b597:	cc                   	int3   
  10b598:	cc                   	int3   
  10b599:	cc                   	int3   
  10b59a:	cc                   	int3   
  10b59b:	cc                   	int3   
  10b59c:	cc                   	int3   
  10b59d:	cc                   	int3   
  10b59e:	cc                   	int3   
  10b59f:	cc                   	int3   

000000000010b5a0 <_ZN4core5array85_$LT$impl$u20$core..ops..index..Index$LT$I$GT$$u20$for$u20$$u5b$T$u3b$$u20$N$u5d$$GT$5index17h616b54275f16d887E>:
  10b5a0:	48 83 ec 18          	sub    $0x18,%rsp
  10b5a4:	48 89 d1             	mov    %rdx,%rcx
  10b5a7:	48 89 f2             	mov    %rsi,%rdx
  10b5aa:	48 89 7c 24 08       	mov    %rdi,0x8(%rsp)
  10b5af:	48 89 54 24 10       	mov    %rdx,0x10(%rsp)
  10b5b4:	be 80 00 00 00       	mov    $0x80,%esi
  10b5b9:	e8 82 07 00 00       	callq  10bd40 <_ZN4core5slice5index74_$LT$impl$u20$core..ops..index..Index$LT$I$GT$$u20$for$u20$$u5b$T$u5d$$GT$5index17hfba228892722ddfeE>
  10b5be:	48 83 c4 18          	add    $0x18,%rsp
  10b5c2:	c3                   	retq   
  10b5c3:	cc                   	int3   
  10b5c4:	cc                   	int3   
  10b5c5:	cc                   	int3   
  10b5c6:	cc                   	int3   
  10b5c7:	cc                   	int3   
  10b5c8:	cc                   	int3   
  10b5c9:	cc                   	int3   
  10b5ca:	cc                   	int3   
  10b5cb:	cc                   	int3   
  10b5cc:	cc                   	int3   
  10b5cd:	cc                   	int3   
  10b5ce:	cc                   	int3   
  10b5cf:	cc                   	int3   

000000000010b5d0 <_ZN4core4char7methods22_$LT$impl$u20$char$GT$8from_u3217h5d5e3f511671d6adE>:
  10b5d0:	50                   	push   %rax
  10b5d1:	89 7c 24 04          	mov    %edi,0x4(%rsp)
  10b5d5:	e8 96 bc ff ff       	callq  107270 <_ZN4core4char7convert8from_u3217h87d3dec09bc845a4E>
  10b5da:	59                   	pop    %rcx
  10b5db:	c3                   	retq   
  10b5dc:	cc                   	int3   
  10b5dd:	cc                   	int3   
  10b5de:	cc                   	int3   
  10b5df:	cc                   	int3   

000000000010b5e0 <_ZN4core4char7methods22_$LT$impl$u20$char$GT$18from_u32_unchecked17h4eeac8933c03b18dE>:
  10b5e0:	50                   	push   %rax
  10b5e1:	89 7c 24 04          	mov    %edi,0x4(%rsp)
  10b5e5:	e8 d6 bc ff ff       	callq  1072c0 <_ZN4core4char7convert18from_u32_unchecked17h31b1524c221d2fdaE>
  10b5ea:	59                   	pop    %rcx
  10b5eb:	c3                   	retq   
  10b5ec:	cc                   	int3   
  10b5ed:	cc                   	int3   
  10b5ee:	cc                   	int3   
  10b5ef:	cc                   	int3   

000000000010b5f0 <_ZN4core4char7methods22_$LT$impl$u20$char$GT$11encode_utf817h32ff831ead279733E>:
  10b5f0:	48 83 ec 18          	sub    $0x18,%rsp
  10b5f4:	89 7c 24 04          	mov    %edi,0x4(%rsp)
  10b5f8:	48 89 74 24 08       	mov    %rsi,0x8(%rsp)
  10b5fd:	48 89 54 24 10       	mov    %rdx,0x10(%rsp)
  10b602:	e8 89 00 00 00       	callq  10b690 <_ZN4core4char7methods15encode_utf8_raw17hadf4ae427d542d55E>
  10b607:	48 89 c7             	mov    %rax,%rdi
  10b60a:	48 89 d6             	mov    %rdx,%rsi
  10b60d:	e8 4e e0 ff ff       	callq  109660 <_ZN4core3str8converts23from_utf8_unchecked_mut17h7940259ddb8974fdE>
  10b612:	48 83 c4 18          	add    $0x18,%rsp
  10b616:	c3                   	retq   
  10b617:	cc                   	int3   
  10b618:	cc                   	int3   
  10b619:	cc                   	int3   
  10b61a:	cc                   	int3   
  10b61b:	cc                   	int3   
  10b61c:	cc                   	int3   
  10b61d:	cc                   	int3   
  10b61e:	cc                   	int3   
  10b61f:	cc                   	int3   

000000000010b620 <_ZN4core4char7methods8len_utf817h773076addb706b93E>:
  10b620:	48 83 ec 18          	sub    $0x18,%rsp
  10b624:	89 7c 24 04          	mov    %edi,0x4(%rsp)
  10b628:	89 7c 24 14          	mov    %edi,0x14(%rsp)
  10b62c:	81 ff 80 00 00 00    	cmp    $0x80,%edi
  10b632:	72 0d                	jb     10b641 <_ZN4core4char7methods8len_utf817h773076addb706b93E+0x21>
  10b634:	8b 44 24 04          	mov    0x4(%rsp),%eax
  10b638:	3d 00 08 00 00       	cmp    $0x800,%eax
  10b63d:	72 1a                	jb     10b659 <_ZN4core4char7methods8len_utf817h773076addb706b93E+0x39>
  10b63f:	eb 0b                	jmp    10b64c <_ZN4core4char7methods8len_utf817h773076addb706b93E+0x2c>
  10b641:	48 c7 44 24 08 01 00 	movq   $0x1,0x8(%rsp)
  10b648:	00 00 
  10b64a:	eb 2c                	jmp    10b678 <_ZN4core4char7methods8len_utf817h773076addb706b93E+0x58>
  10b64c:	8b 44 24 04          	mov    0x4(%rsp),%eax
  10b650:	3d 00 00 01 00       	cmp    $0x10000,%eax
  10b655:	72 18                	jb     10b66f <_ZN4core4char7methods8len_utf817h773076addb706b93E+0x4f>
  10b657:	eb 0b                	jmp    10b664 <_ZN4core4char7methods8len_utf817h773076addb706b93E+0x44>
  10b659:	48 c7 44 24 08 02 00 	movq   $0x2,0x8(%rsp)
  10b660:	00 00 
  10b662:	eb 14                	jmp    10b678 <_ZN4core4char7methods8len_utf817h773076addb706b93E+0x58>
  10b664:	48 c7 44 24 08 04 00 	movq   $0x4,0x8(%rsp)
  10b66b:	00 00 
  10b66d:	eb 09                	jmp    10b678 <_ZN4core4char7methods8len_utf817h773076addb706b93E+0x58>
  10b66f:	48 c7 44 24 08 03 00 	movq   $0x3,0x8(%rsp)
  10b676:	00 00 
  10b678:	48 8b 44 24 08       	mov    0x8(%rsp),%rax
  10b67d:	48 83 c4 18          	add    $0x18,%rsp
  10b681:	c3                   	retq   
  10b682:	cc                   	int3   
  10b683:	cc                   	int3   
  10b684:	cc                   	int3   
  10b685:	cc                   	int3   
  10b686:	cc                   	int3   
  10b687:	cc                   	int3   
  10b688:	cc                   	int3   
  10b689:	cc                   	int3   
  10b68a:	cc                   	int3   
  10b68b:	cc                   	int3   
  10b68c:	cc                   	int3   
  10b68d:	cc                   	int3   
  10b68e:	cc                   	int3   
  10b68f:	cc                   	int3   

000000000010b690 <_ZN4core4char7methods15encode_utf8_raw17hadf4ae427d542d55E>:
  10b690:	48 81 ec 98 01 00 00 	sub    $0x198,%rsp
  10b697:	48 89 54 24 10       	mov    %rdx,0x10(%rsp)
  10b69c:	48 89 74 24 08       	mov    %rsi,0x8(%rsp)
  10b6a1:	89 7c 24 2c          	mov    %edi,0x2c(%rsp)
  10b6a5:	48 89 b4 24 c0 00 00 	mov    %rsi,0xc0(%rsp)
  10b6ac:	00 
  10b6ad:	48 89 94 24 c8 00 00 	mov    %rdx,0xc8(%rsp)
  10b6b4:	00 
  10b6b5:	8b 7c 24 2c          	mov    0x2c(%rsp),%edi
  10b6b9:	e8 62 ff ff ff       	callq  10b620 <_ZN4core4char7methods8len_utf817h773076addb706b93E>
  10b6be:	48 8b 7c 24 08       	mov    0x8(%rsp),%rdi
  10b6c3:	48 8b 74 24 10       	mov    0x10(%rsp),%rsi
  10b6c8:	48 89 44 24 30       	mov    %rax,0x30(%rsp)
  10b6cd:	48 8b 44 24 30       	mov    0x30(%rsp),%rax
  10b6d2:	48 89 44 24 18       	mov    %rax,0x18(%rsp)
  10b6d7:	48 8d 15 12 6c 00 00 	lea    0x6c12(%rip),%rdx        # 1122f0 <_ZN4core3fmt2rt12USIZE_MARKER17h1b31419084dfd5e3E+0x8f8>
  10b6de:	e8 ed d8 ff ff       	callq  108fd0 <_ZN4core5slice5index77_$LT$impl$u20$core..ops..index..IndexMut$LT$I$GT$$u20$for$u20$$u5b$T$u5d$$GT$9index_mut17h5584393f5494c413E>
  10b6e3:	48 8b 4c 24 18       	mov    0x18(%rsp),%rcx
  10b6e8:	48 89 4c 24 38       	mov    %rcx,0x38(%rsp)
  10b6ed:	48 89 44 24 40       	mov    %rax,0x40(%rsp)
  10b6f2:	48 89 54 24 48       	mov    %rdx,0x48(%rsp)
  10b6f7:	48 8b 44 24 38       	mov    0x38(%rsp),%rax
  10b6fc:	48 ff c8             	dec    %rax
  10b6ff:	48 89 44 24 20       	mov    %rax,0x20(%rsp)
  10b704:	48 83 e8 03          	sub    $0x3,%rax
  10b708:	77 15                	ja     10b71f <_ZN4core4char7methods15encode_utf8_raw17hadf4ae427d542d55E+0x8f>
  10b70a:	48 8b 44 24 20       	mov    0x20(%rsp),%rax
  10b70f:	48 8d 0d b2 5b ff ff 	lea    -0xa44e(%rip),%rcx        # 1012c8 <str.2+0xc8>
  10b716:	48 63 04 81          	movslq (%rcx,%rax,4),%rax
  10b71a:	48 01 c8             	add    %rcx,%rax
  10b71d:	ff e0                	jmpq   *%rax
  10b71f:	48 8b 4c 24 10       	mov    0x10(%rsp),%rcx
  10b724:	48 8d 54 24 30       	lea    0x30(%rsp),%rdx
  10b729:	48 89 94 24 48 01 00 	mov    %rdx,0x148(%rsp)
  10b730:	00 
  10b731:	48 89 94 24 60 01 00 	mov    %rdx,0x160(%rsp)
  10b738:	00 
  10b739:	48 8b 05 60 6e 00 00 	mov    0x6e60(%rip),%rax        # 1125a0 <_ZN4core3fmt2rt12USIZE_MARKER17h1b31419084dfd5e3E+0xba8>
  10b740:	48 89 84 24 68 01 00 	mov    %rax,0x168(%rsp)
  10b747:	00 
  10b748:	48 89 94 24 50 01 00 	mov    %rdx,0x150(%rsp)
  10b74f:	00 
  10b750:	48 89 84 24 58 01 00 	mov    %rax,0x158(%rsp)
  10b757:	00 
  10b758:	4c 8b 84 24 50 01 00 	mov    0x150(%rsp),%r8
  10b75f:	00 
  10b760:	48 8b bc 24 58 01 00 	mov    0x158(%rsp),%rdi
  10b767:	00 
  10b768:	48 8d 74 24 2c       	lea    0x2c(%rsp),%rsi
  10b76d:	48 89 b4 24 70 01 00 	mov    %rsi,0x170(%rsp)
  10b774:	00 
  10b775:	48 89 b4 24 88 01 00 	mov    %rsi,0x188(%rsp)
  10b77c:	00 
  10b77d:	48 8b 15 24 6e 00 00 	mov    0x6e24(%rip),%rdx        # 1125a8 <_ZN4core3fmt2rt12USIZE_MARKER17h1b31419084dfd5e3E+0xbb0>
  10b784:	48 89 94 24 90 01 00 	mov    %rdx,0x190(%rsp)
  10b78b:	00 
  10b78c:	48 89 b4 24 78 01 00 	mov    %rsi,0x178(%rsp)
  10b793:	00 
  10b794:	48 89 94 24 80 01 00 	mov    %rdx,0x180(%rsp)
  10b79b:	00 
  10b79c:	48 8b b4 24 78 01 00 	mov    0x178(%rsp),%rsi
  10b7a3:	00 
  10b7a4:	48 8b 94 24 80 01 00 	mov    0x180(%rsp),%rdx
  10b7ab:	00 
  10b7ac:	48 89 8c 24 b0 00 00 	mov    %rcx,0xb0(%rsp)
  10b7b3:	00 
  10b7b4:	48 8d 8c 24 b0 00 00 	lea    0xb0(%rsp),%rcx
  10b7bb:	00 
  10b7bc:	48 89 8c 24 20 01 00 	mov    %rcx,0x120(%rsp)
  10b7c3:	00 
  10b7c4:	48 89 8c 24 38 01 00 	mov    %rcx,0x138(%rsp)
  10b7cb:	00 
  10b7cc:	48 89 84 24 40 01 00 	mov    %rax,0x140(%rsp)
  10b7d3:	00 
  10b7d4:	48 89 8c 24 28 01 00 	mov    %rcx,0x128(%rsp)
  10b7db:	00 
  10b7dc:	48 89 84 24 30 01 00 	mov    %rax,0x130(%rsp)
  10b7e3:	00 
  10b7e4:	48 8b 8c 24 28 01 00 	mov    0x128(%rsp),%rcx
  10b7eb:	00 
  10b7ec:	48 8b 84 24 30 01 00 	mov    0x130(%rsp),%rax
  10b7f3:	00 
  10b7f4:	4c 89 84 24 80 00 00 	mov    %r8,0x80(%rsp)
  10b7fb:	00 
  10b7fc:	48 89 bc 24 88 00 00 	mov    %rdi,0x88(%rsp)
  10b803:	00 
  10b804:	48 89 b4 24 90 00 00 	mov    %rsi,0x90(%rsp)
  10b80b:	00 
  10b80c:	48 89 94 24 98 00 00 	mov    %rdx,0x98(%rsp)
  10b813:	00 
  10b814:	48 89 8c 24 a0 00 00 	mov    %rcx,0xa0(%rsp)
  10b81b:	00 
  10b81c:	48 89 84 24 a8 00 00 	mov    %rax,0xa8(%rsp)
  10b823:	00 
  10b824:	48 8d 35 f5 6a 00 00 	lea    0x6af5(%rip),%rsi        # 112320 <_ZN4core3fmt2rt12USIZE_MARKER17h1b31419084dfd5e3E+0x928>
  10b82b:	48 8d 7c 24 50       	lea    0x50(%rsp),%rdi
  10b830:	48 89 3c 24          	mov    %rdi,(%rsp)
  10b834:	48 8d 8c 24 80 00 00 	lea    0x80(%rsp),%rcx
  10b83b:	00 
  10b83c:	41 b8 03 00 00 00    	mov    $0x3,%r8d
  10b842:	4c 89 c2             	mov    %r8,%rdx
  10b845:	e8 d6 bc ff ff       	callq  107520 <_ZN4core3fmt9Arguments6new_v117hf5fe601b2a956546E>
  10b84a:	48 8b 3c 24          	mov    (%rsp),%rdi
  10b84e:	48 8d 35 fb 6a 00 00 	lea    0x6afb(%rip),%rsi        # 112350 <_ZN4core3fmt2rt12USIZE_MARKER17h1b31419084dfd5e3E+0x958>
  10b855:	e8 26 9b ff ff       	callq  105380 <_ZN4core9panicking9panic_fmt17hec0a0bac075b5c3fE>
  10b85a:	0f 0b                	ud2    
  10b85c:	48 83 7c 24 48 01    	cmpq   $0x1,0x48(%rsp)
  10b862:	73 34                	jae    10b898 <_ZN4core4char7methods15encode_utf8_raw17hadf4ae427d542d55E+0x208>
  10b864:	e9 b6 fe ff ff       	jmpq   10b71f <_ZN4core4char7methods15encode_utf8_raw17hadf4ae427d542d55E+0x8f>
  10b869:	48 83 7c 24 48 02    	cmpq   $0x2,0x48(%rsp)
  10b86f:	73 6d                	jae    10b8de <_ZN4core4char7methods15encode_utf8_raw17hadf4ae427d542d55E+0x24e>
  10b871:	e9 a9 fe ff ff       	jmpq   10b71f <_ZN4core4char7methods15encode_utf8_raw17hadf4ae427d542d55E+0x8f>
  10b876:	48 83 7c 24 48 03    	cmpq   $0x3,0x48(%rsp)
  10b87c:	0f 83 9b 00 00 00    	jae    10b91d <_ZN4core4char7methods15encode_utf8_raw17hadf4ae427d542d55E+0x28d>
  10b882:	e9 98 fe ff ff       	jmpq   10b71f <_ZN4core4char7methods15encode_utf8_raw17hadf4ae427d542d55E+0x8f>
  10b887:	48 83 7c 24 48 04    	cmpq   $0x4,0x48(%rsp)
  10b88d:	0f 83 f2 00 00 00    	jae    10b985 <_ZN4core4char7methods15encode_utf8_raw17hadf4ae427d542d55E+0x2f5>
  10b893:	e9 87 fe ff ff       	jmpq   10b71f <_ZN4core4char7methods15encode_utf8_raw17hadf4ae427d542d55E+0x8f>
  10b898:	48 8b 44 24 40       	mov    0x40(%rsp),%rax
  10b89d:	48 89 84 24 d0 00 00 	mov    %rax,0xd0(%rsp)
  10b8a4:	00 
  10b8a5:	8b 4c 24 2c          	mov    0x2c(%rsp),%ecx
  10b8a9:	88 08                	mov    %cl,(%rax)
  10b8ab:	48 8b 74 24 10       	mov    0x10(%rsp),%rsi
  10b8b0:	48 8b 7c 24 08       	mov    0x8(%rsp),%rdi
  10b8b5:	48 8b 44 24 30       	mov    0x30(%rsp),%rax
  10b8ba:	48 89 84 24 b8 00 00 	mov    %rax,0xb8(%rsp)
  10b8c1:	00 
  10b8c2:	48 8b 94 24 b8 00 00 	mov    0xb8(%rsp),%rdx
  10b8c9:	00 
  10b8ca:	48 8d 0d 37 6a 00 00 	lea    0x6a37(%rip),%rcx        # 112308 <_ZN4core3fmt2rt12USIZE_MARKER17h1b31419084dfd5e3E+0x910>
  10b8d1:	e8 ca d6 ff ff       	callq  108fa0 <_ZN4core5slice5index77_$LT$impl$u20$core..ops..index..IndexMut$LT$I$GT$$u20$for$u20$$u5b$T$u5d$$GT$9index_mut17h3df99aacf5d85e73E>
  10b8d6:	48 81 c4 98 01 00 00 	add    $0x198,%rsp
  10b8dd:	c3                   	retq   
  10b8de:	48 8b 4c 24 40       	mov    0x40(%rsp),%rcx
  10b8e3:	48 89 8c 24 d8 00 00 	mov    %rcx,0xd8(%rsp)
  10b8ea:	00 
  10b8eb:	48 8b 44 24 40       	mov    0x40(%rsp),%rax
  10b8f0:	48 89 c2             	mov    %rax,%rdx
  10b8f3:	48 83 c2 01          	add    $0x1,%rdx
  10b8f7:	48 89 94 24 e0 00 00 	mov    %rdx,0xe0(%rsp)
  10b8fe:	00 
  10b8ff:	8b 54 24 2c          	mov    0x2c(%rsp),%edx
  10b903:	c1 ea 06             	shr    $0x6,%edx
  10b906:	83 e2 1f             	and    $0x1f,%edx
  10b909:	80 ca c0             	or     $0xc0,%dl
  10b90c:	88 11                	mov    %dl,(%rcx)
  10b90e:	8b 4c 24 2c          	mov    0x2c(%rsp),%ecx
  10b912:	83 e1 3f             	and    $0x3f,%ecx
  10b915:	80 c9 80             	or     $0x80,%cl
  10b918:	88 48 01             	mov    %cl,0x1(%rax)
  10b91b:	eb 8e                	jmp    10b8ab <_ZN4core4char7methods15encode_utf8_raw17hadf4ae427d542d55E+0x21b>
  10b91d:	48 8b 54 24 40       	mov    0x40(%rsp),%rdx
  10b922:	48 89 94 24 e8 00 00 	mov    %rdx,0xe8(%rsp)
  10b929:	00 
  10b92a:	48 8b 4c 24 40       	mov    0x40(%rsp),%rcx
  10b92f:	48 89 c8             	mov    %rcx,%rax
  10b932:	48 83 c0 01          	add    $0x1,%rax
  10b936:	48 89 84 24 f0 00 00 	mov    %rax,0xf0(%rsp)
  10b93d:	00 
  10b93e:	48 8b 44 24 40       	mov    0x40(%rsp),%rax
  10b943:	48 89 c6             	mov    %rax,%rsi
  10b946:	48 83 c6 02          	add    $0x2,%rsi
  10b94a:	48 89 b4 24 f8 00 00 	mov    %rsi,0xf8(%rsp)
  10b951:	00 
  10b952:	8b 74 24 2c          	mov    0x2c(%rsp),%esi
  10b956:	c1 ee 0c             	shr    $0xc,%esi
  10b959:	83 e6 0f             	and    $0xf,%esi
  10b95c:	40 80 ce e0          	or     $0xe0,%sil
  10b960:	40 88 32             	mov    %sil,(%rdx)
  10b963:	8b 54 24 2c          	mov    0x2c(%rsp),%edx
  10b967:	c1 ea 06             	shr    $0x6,%edx
  10b96a:	83 e2 3f             	and    $0x3f,%edx
  10b96d:	80 ca 80             	or     $0x80,%dl
  10b970:	88 51 01             	mov    %dl,0x1(%rcx)
  10b973:	8b 4c 24 2c          	mov    0x2c(%rsp),%ecx
  10b977:	83 e1 3f             	and    $0x3f,%ecx
  10b97a:	80 c9 80             	or     $0x80,%cl
  10b97d:	88 48 02             	mov    %cl,0x2(%rax)
  10b980:	e9 26 ff ff ff       	jmpq   10b8ab <_ZN4core4char7methods15encode_utf8_raw17hadf4ae427d542d55E+0x21b>
  10b985:	48 8b 74 24 40       	mov    0x40(%rsp),%rsi
  10b98a:	48 89 b4 24 00 01 00 	mov    %rsi,0x100(%rsp)
  10b991:	00 
  10b992:	48 8b 54 24 40       	mov    0x40(%rsp),%rdx
  10b997:	48 89 d0             	mov    %rdx,%rax
  10b99a:	48 83 c0 01          	add    $0x1,%rax
  10b99e:	48 89 84 24 08 01 00 	mov    %rax,0x108(%rsp)
  10b9a5:	00 
  10b9a6:	48 8b 4c 24 40       	mov    0x40(%rsp),%rcx
  10b9ab:	48 89 c8             	mov    %rcx,%rax
  10b9ae:	48 83 c0 02          	add    $0x2,%rax
  10b9b2:	48 89 84 24 10 01 00 	mov    %rax,0x110(%rsp)
  10b9b9:	00 
  10b9ba:	48 8b 44 24 40       	mov    0x40(%rsp),%rax
  10b9bf:	48 89 c7             	mov    %rax,%rdi
  10b9c2:	48 83 c7 03          	add    $0x3,%rdi
  10b9c6:	48 89 bc 24 18 01 00 	mov    %rdi,0x118(%rsp)
  10b9cd:	00 
  10b9ce:	8b 7c 24 2c          	mov    0x2c(%rsp),%edi
  10b9d2:	c1 ef 12             	shr    $0x12,%edi
  10b9d5:	83 e7 07             	and    $0x7,%edi
  10b9d8:	40 80 cf f0          	or     $0xf0,%dil
  10b9dc:	40 88 3e             	mov    %dil,(%rsi)
  10b9df:	8b 74 24 2c          	mov    0x2c(%rsp),%esi
  10b9e3:	c1 ee 0c             	shr    $0xc,%esi
  10b9e6:	83 e6 3f             	and    $0x3f,%esi
  10b9e9:	40 80 ce 80          	or     $0x80,%sil
  10b9ed:	40 88 72 01          	mov    %sil,0x1(%rdx)
  10b9f1:	8b 54 24 2c          	mov    0x2c(%rsp),%edx
  10b9f5:	c1 ea 06             	shr    $0x6,%edx
  10b9f8:	83 e2 3f             	and    $0x3f,%edx
  10b9fb:	80 ca 80             	or     $0x80,%dl
  10b9fe:	88 51 02             	mov    %dl,0x2(%rcx)
  10ba01:	8b 4c 24 2c          	mov    0x2c(%rsp),%ecx
  10ba05:	83 e1 3f             	and    $0x3f,%ecx
  10ba08:	80 c9 80             	or     $0x80,%cl
  10ba0b:	88 48 03             	mov    %cl,0x3(%rax)
  10ba0e:	e9 98 fe ff ff       	jmpq   10b8ab <_ZN4core4char7methods15encode_utf8_raw17hadf4ae427d542d55E+0x21b>
  10ba13:	cc                   	int3   
  10ba14:	cc                   	int3   
  10ba15:	cc                   	int3   
  10ba16:	cc                   	int3   
  10ba17:	cc                   	int3   
  10ba18:	cc                   	int3   
  10ba19:	cc                   	int3   
  10ba1a:	cc                   	int3   
  10ba1b:	cc                   	int3   
  10ba1c:	cc                   	int3   
  10ba1d:	cc                   	int3   
  10ba1e:	cc                   	int3   
  10ba1f:	cc                   	int3   

000000000010ba20 <_ZN4core6result19Result$LT$T$C$E$GT$2ok17h0d48fc95b3d78164E>:
  10ba20:	48 83 ec 18          	sub    $0x18,%rsp
  10ba24:	48 89 3c 24          	mov    %rdi,(%rsp)
  10ba28:	b8 01 00 00 00       	mov    $0x1,%eax
  10ba2d:	31 c9                	xor    %ecx,%ecx
  10ba2f:	48 83 3c 24 00       	cmpq   $0x0,(%rsp)
  10ba34:	48 0f 44 c1          	cmove  %rcx,%rax
  10ba38:	48 83 f8 00          	cmp    $0x0,%rax
  10ba3c:	75 07                	jne    10ba45 <_ZN4core6result19Result$LT$T$C$E$GT$2ok17h0d48fc95b3d78164E+0x25>
  10ba3e:	c6 44 24 0f 01       	movb   $0x1,0xf(%rsp)
  10ba43:	eb 05                	jmp    10ba4a <_ZN4core6result19Result$LT$T$C$E$GT$2ok17h0d48fc95b3d78164E+0x2a>
  10ba45:	c6 44 24 0f 00       	movb   $0x0,0xf(%rsp)
  10ba4a:	b8 01 00 00 00       	mov    $0x1,%eax
  10ba4f:	31 c9                	xor    %ecx,%ecx
  10ba51:	48 83 3c 24 00       	cmpq   $0x0,(%rsp)
  10ba56:	48 0f 44 c1          	cmove  %rcx,%rax
  10ba5a:	48 83 f8 00          	cmp    $0x0,%rax
  10ba5e:	75 0e                	jne    10ba6e <_ZN4core6result19Result$LT$T$C$E$GT$2ok17h0d48fc95b3d78164E+0x4e>
  10ba60:	8a 44 24 0f          	mov    0xf(%rsp),%al
  10ba64:	24 01                	and    $0x1,%al
  10ba66:	0f b6 c0             	movzbl %al,%eax
  10ba69:	48 83 c4 18          	add    $0x18,%rsp
  10ba6d:	c3                   	retq   
  10ba6e:	eb f0                	jmp    10ba60 <_ZN4core6result19Result$LT$T$C$E$GT$2ok17h0d48fc95b3d78164E+0x40>

000000000010ba70 <_ZN4core6result19Result$LT$T$C$E$GT$8and_then17h295c297985b75145E>:
  10ba70:	48 83 ec 48          	sub    $0x48,%rsp
  10ba74:	48 89 74 24 08       	mov    %rsi,0x8(%rsp)
  10ba79:	40 88 f8             	mov    %dil,%al
  10ba7c:	24 01                	and    $0x1,%al
  10ba7e:	88 44 24 16          	mov    %al,0x16(%rsp)
  10ba82:	c6 44 24 37 00       	movb   $0x0,0x37(%rsp)
  10ba87:	c6 44 24 37 01       	movb   $0x1,0x37(%rsp)
  10ba8c:	8a 44 24 16          	mov    0x16(%rsp),%al
  10ba90:	24 01                	and    $0x1,%al
  10ba92:	0f b6 c0             	movzbl %al,%eax
  10ba95:	48 83 f8 00          	cmp    $0x0,%rax
  10ba99:	75 36                	jne    10bad1 <_ZN4core6result19Result$LT$T$C$E$GT$8and_then17h295c297985b75145E+0x61>
  10ba9b:	48 8b 44 24 08       	mov    0x8(%rsp),%rax
  10baa0:	c6 44 24 37 00       	movb   $0x0,0x37(%rsp)
  10baa5:	48 8b 08             	mov    (%rax),%rcx
  10baa8:	48 89 4c 24 18       	mov    %rcx,0x18(%rsp)
  10baad:	48 8b 48 08          	mov    0x8(%rax),%rcx
  10bab1:	48 89 4c 24 20       	mov    %rcx,0x20(%rsp)
  10bab6:	48 8b 40 10          	mov    0x10(%rax),%rax
  10baba:	48 89 44 24 28       	mov    %rax,0x28(%rsp)
  10babf:	48 8d 7c 24 18       	lea    0x18(%rsp),%rdi
  10bac4:	e8 e7 b2 ff ff       	callq  106db0 <_ZN4core3fmt8builders10DebugTuple5field28_$u7b$$u7b$closure$u7d$$u7d$17h9926210a1950b090E>
  10bac9:	24 01                	and    $0x1,%al
  10bacb:	88 44 24 17          	mov    %al,0x17(%rsp)
  10bacf:	eb 05                	jmp    10bad6 <_ZN4core6result19Result$LT$T$C$E$GT$8and_then17h295c297985b75145E+0x66>
  10bad1:	c6 44 24 17 01       	movb   $0x1,0x17(%rsp)
  10bad6:	f6 44 24 37 01       	testb  $0x1,0x37(%rsp)
  10badb:	75 0e                	jne    10baeb <_ZN4core6result19Result$LT$T$C$E$GT$8and_then17h295c297985b75145E+0x7b>
  10badd:	8a 44 24 17          	mov    0x17(%rsp),%al
  10bae1:	24 01                	and    $0x1,%al
  10bae3:	0f b6 c0             	movzbl %al,%eax
  10bae6:	48 83 c4 48          	add    $0x48,%rsp
  10baea:	c3                   	retq   
  10baeb:	eb f0                	jmp    10badd <_ZN4core6result19Result$LT$T$C$E$GT$8and_then17h295c297985b75145E+0x6d>
  10baed:	cc                   	int3   
  10baee:	cc                   	int3   
  10baef:	cc                   	int3   

000000000010baf0 <_ZN4core6result19Result$LT$T$C$E$GT$8and_then17hf95c586f8a91f330E>:
  10baf0:	48 83 ec 28          	sub    $0x28,%rsp
  10baf4:	48 89 34 24          	mov    %rsi,(%rsp)
  10baf8:	40 88 f8             	mov    %dil,%al
  10bafb:	24 01                	and    $0x1,%al
  10bafd:	88 44 24 0d          	mov    %al,0xd(%rsp)
  10bb01:	48 89 74 24 10       	mov    %rsi,0x10(%rsp)
  10bb06:	c6 44 24 0f 00       	movb   $0x0,0xf(%rsp)
  10bb0b:	c6 44 24 0f 01       	movb   $0x1,0xf(%rsp)
  10bb10:	8a 44 24 0d          	mov    0xd(%rsp),%al
  10bb14:	24 01                	and    $0x1,%al
  10bb16:	0f b6 c0             	movzbl %al,%eax
  10bb19:	48 83 f8 00          	cmp    $0x0,%rax
  10bb1d:	75 16                	jne    10bb35 <_ZN4core6result19Result$LT$T$C$E$GT$8and_then17hf95c586f8a91f330E+0x45>
  10bb1f:	48 8b 3c 24          	mov    (%rsp),%rdi
  10bb23:	c6 44 24 0f 00       	movb   $0x0,0xf(%rsp)
  10bb28:	e8 d3 b4 ff ff       	callq  107000 <_ZN4core3fmt8builders10DebugTuple6finish28_$u7b$$u7b$closure$u7d$$u7d$17h34552c36710dae24E>
  10bb2d:	24 01                	and    $0x1,%al
  10bb2f:	88 44 24 0e          	mov    %al,0xe(%rsp)
  10bb33:	eb 05                	jmp    10bb3a <_ZN4core6result19Result$LT$T$C$E$GT$8and_then17hf95c586f8a91f330E+0x4a>
  10bb35:	c6 44 24 0e 01       	movb   $0x1,0xe(%rsp)
  10bb3a:	f6 44 24 0f 01       	testb  $0x1,0xf(%rsp)
  10bb3f:	75 0e                	jne    10bb4f <_ZN4core6result19Result$LT$T$C$E$GT$8and_then17hf95c586f8a91f330E+0x5f>
  10bb41:	8a 44 24 0e          	mov    0xe(%rsp),%al
  10bb45:	24 01                	and    $0x1,%al
  10bb47:	0f b6 c0             	movzbl %al,%eax
  10bb4a:	48 83 c4 28          	add    $0x28,%rsp
  10bb4e:	c3                   	retq   
  10bb4f:	eb f0                	jmp    10bb41 <_ZN4core6result19Result$LT$T$C$E$GT$8and_then17hf95c586f8a91f330E+0x51>
  10bb51:	cc                   	int3   
  10bb52:	cc                   	int3   
  10bb53:	cc                   	int3   
  10bb54:	cc                   	int3   
  10bb55:	cc                   	int3   
  10bb56:	cc                   	int3   
  10bb57:	cc                   	int3   
  10bb58:	cc                   	int3   
  10bb59:	cc                   	int3   
  10bb5a:	cc                   	int3   
  10bb5b:	cc                   	int3   
  10bb5c:	cc                   	int3   
  10bb5d:	cc                   	int3   
  10bb5e:	cc                   	int3   
  10bb5f:	cc                   	int3   

000000000010bb60 <_ZN4core6result13unwrap_failed17h349ba80840e4aa07E>:
  10bb60:	48 81 ec d8 00 00 00 	sub    $0xd8,%rsp
  10bb67:	4c 89 44 24 10       	mov    %r8,0x10(%rsp)
  10bb6c:	48 89 7c 24 18       	mov    %rdi,0x18(%rsp)
  10bb71:	48 89 74 24 20       	mov    %rsi,0x20(%rsp)
  10bb76:	48 89 54 24 28       	mov    %rdx,0x28(%rsp)
  10bb7b:	48 89 4c 24 30       	mov    %rcx,0x30(%rsp)
  10bb80:	48 8d 4c 24 18       	lea    0x18(%rsp),%rcx
  10bb85:	48 89 8c 24 88 00 00 	mov    %rcx,0x88(%rsp)
  10bb8c:	00 
  10bb8d:	48 89 8c 24 a0 00 00 	mov    %rcx,0xa0(%rsp)
  10bb94:	00 
  10bb95:	48 8b 05 14 6a 00 00 	mov    0x6a14(%rip),%rax        # 1125b0 <_ZN4core3fmt2rt12USIZE_MARKER17h1b31419084dfd5e3E+0xbb8>
  10bb9c:	48 89 84 24 a8 00 00 	mov    %rax,0xa8(%rsp)
  10bba3:	00 
  10bba4:	48 89 8c 24 90 00 00 	mov    %rcx,0x90(%rsp)
  10bbab:	00 
  10bbac:	48 89 84 24 98 00 00 	mov    %rax,0x98(%rsp)
  10bbb3:	00 
  10bbb4:	48 8b b4 24 90 00 00 	mov    0x90(%rsp),%rsi
  10bbbb:	00 
  10bbbc:	48 8b 94 24 98 00 00 	mov    0x98(%rsp),%rdx
  10bbc3:	00 
  10bbc4:	48 8d 4c 24 28       	lea    0x28(%rsp),%rcx
  10bbc9:	48 89 8c 24 b0 00 00 	mov    %rcx,0xb0(%rsp)
  10bbd0:	00 
  10bbd1:	48 89 8c 24 c8 00 00 	mov    %rcx,0xc8(%rsp)
  10bbd8:	00 
  10bbd9:	48 8b 05 e0 69 00 00 	mov    0x69e0(%rip),%rax        # 1125c0 <_ZN4core3fmt2rt12USIZE_MARKER17h1b31419084dfd5e3E+0xbc8>
  10bbe0:	48 89 84 24 d0 00 00 	mov    %rax,0xd0(%rsp)
  10bbe7:	00 
  10bbe8:	48 89 8c 24 b8 00 00 	mov    %rcx,0xb8(%rsp)
  10bbef:	00 
  10bbf0:	48 89 84 24 c0 00 00 	mov    %rax,0xc0(%rsp)
  10bbf7:	00 
  10bbf8:	48 8b 8c 24 b8 00 00 	mov    0xb8(%rsp),%rcx
  10bbff:	00 
  10bc00:	48 8b 84 24 c0 00 00 	mov    0xc0(%rsp),%rax
  10bc07:	00 
  10bc08:	48 89 74 24 68       	mov    %rsi,0x68(%rsp)
  10bc0d:	48 89 54 24 70       	mov    %rdx,0x70(%rsp)
  10bc12:	48 89 4c 24 78       	mov    %rcx,0x78(%rsp)
  10bc17:	48 89 84 24 80 00 00 	mov    %rax,0x80(%rsp)
  10bc1e:	00 
  10bc1f:	48 8d 35 42 67 00 00 	lea    0x6742(%rip),%rsi        # 112368 <_ZN4core3fmt2rt12USIZE_MARKER17h1b31419084dfd5e3E+0x970>
  10bc26:	48 8d 7c 24 38       	lea    0x38(%rsp),%rdi
  10bc2b:	48 89 7c 24 08       	mov    %rdi,0x8(%rsp)
  10bc30:	48 8d 4c 24 68       	lea    0x68(%rsp),%rcx
  10bc35:	41 b8 02 00 00 00    	mov    $0x2,%r8d
  10bc3b:	4c 89 c2             	mov    %r8,%rdx
  10bc3e:	e8 dd b8 ff ff       	callq  107520 <_ZN4core3fmt9Arguments6new_v117hf5fe601b2a956546E>
  10bc43:	48 8b 7c 24 08       	mov    0x8(%rsp),%rdi
  10bc48:	48 8b 74 24 10       	mov    0x10(%rsp),%rsi
  10bc4d:	e8 2e 97 ff ff       	callq  105380 <_ZN4core9panicking9panic_fmt17hec0a0bac075b5c3fE>
  10bc52:	0f 0b                	ud2    
  10bc54:	cc                   	int3   
  10bc55:	cc                   	int3   
  10bc56:	cc                   	int3   
  10bc57:	cc                   	int3   
  10bc58:	cc                   	int3   
  10bc59:	cc                   	int3   
  10bc5a:	cc                   	int3   
  10bc5b:	cc                   	int3   
  10bc5c:	cc                   	int3   
  10bc5d:	cc                   	int3   
  10bc5e:	cc                   	int3   
  10bc5f:	cc                   	int3   

000000000010bc60 <_ZN79_$LT$core..result..Result$LT$T$C$E$GT$$u20$as$u20$core..ops..try_trait..Try$GT$6branch17h10836ab6199822a1E>:
  10bc60:	48 83 ec 38          	sub    $0x38,%rsp
  10bc64:	48 89 3c 24          	mov    %rdi,(%rsp)
  10bc68:	89 74 24 08          	mov    %esi,0x8(%rsp)
  10bc6c:	31 c0                	xor    %eax,%eax
  10bc6e:	b9 01 00 00 00       	mov    $0x1,%ecx
  10bc73:	81 7c 24 08 00 00 11 	cmpl   $0x110000,0x8(%rsp)
  10bc7a:	00 
  10bc7b:	48 0f 44 c1          	cmove  %rcx,%rax
  10bc7f:	48 83 f8 00          	cmp    $0x0,%rax
  10bc83:	75 1c                	jne    10bca1 <_ZN79_$LT$core..result..Result$LT$T$C$E$GT$$u20$as$u20$core..ops..try_trait..Try$GT$6branch17h10836ab6199822a1E+0x41>
  10bc85:	48 8b 0c 24          	mov    (%rsp),%rcx
  10bc89:	8b 44 24 08          	mov    0x8(%rsp),%eax
  10bc8d:	48 89 4c 24 28       	mov    %rcx,0x28(%rsp)
  10bc92:	89 44 24 30          	mov    %eax,0x30(%rsp)
  10bc96:	48 89 4c 24 10       	mov    %rcx,0x10(%rsp)
  10bc9b:	89 44 24 18          	mov    %eax,0x18(%rsp)
  10bc9f:	eb 08                	jmp    10bca9 <_ZN79_$LT$core..result..Result$LT$T$C$E$GT$$u20$as$u20$core..ops..try_trait..Try$GT$6branch17h10836ab6199822a1E+0x49>
  10bca1:	c7 44 24 18 00 00 11 	movl   $0x110000,0x18(%rsp)
  10bca8:	00 
  10bca9:	48 8b 44 24 10       	mov    0x10(%rsp),%rax
  10bcae:	8b 54 24 18          	mov    0x18(%rsp),%edx
  10bcb2:	48 83 c4 38          	add    $0x38,%rsp
  10bcb6:	c3                   	retq   
  10bcb7:	cc                   	int3   
  10bcb8:	cc                   	int3   
  10bcb9:	cc                   	int3   
  10bcba:	cc                   	int3   
  10bcbb:	cc                   	int3   
  10bcbc:	cc                   	int3   
  10bcbd:	cc                   	int3   
  10bcbe:	cc                   	int3   
  10bcbf:	cc                   	int3   

000000000010bcc0 <_ZN79_$LT$core..result..Result$LT$T$C$E$GT$$u20$as$u20$core..ops..try_trait..Try$GT$6branch17h2454c12ae4d7f827E>:
  10bcc0:	48 83 ec 18          	sub    $0x18,%rsp
  10bcc4:	40 88 f8             	mov    %dil,%al
  10bcc7:	24 01                	and    $0x1,%al
  10bcc9:	88 44 24 06          	mov    %al,0x6(%rsp)
  10bccd:	8a 44 24 06          	mov    0x6(%rsp),%al
  10bcd1:	24 01                	and    $0x1,%al
  10bcd3:	0f b6 c0             	movzbl %al,%eax
  10bcd6:	48 83 f8 00          	cmp    $0x0,%rax
  10bcda:	75 07                	jne    10bce3 <_ZN79_$LT$core..result..Result$LT$T$C$E$GT$$u20$as$u20$core..ops..try_trait..Try$GT$6branch17h2454c12ae4d7f827E+0x23>
  10bcdc:	c6 44 24 07 00       	movb   $0x0,0x7(%rsp)
  10bce1:	eb 05                	jmp    10bce8 <_ZN79_$LT$core..result..Result$LT$T$C$E$GT$$u20$as$u20$core..ops..try_trait..Try$GT$6branch17h2454c12ae4d7f827E+0x28>
  10bce3:	c6 44 24 07 01       	movb   $0x1,0x7(%rsp)
  10bce8:	8a 44 24 07          	mov    0x7(%rsp),%al
  10bcec:	24 01                	and    $0x1,%al
  10bcee:	0f b6 c0             	movzbl %al,%eax
  10bcf1:	48 83 c4 18          	add    $0x18,%rsp
  10bcf5:	c3                   	retq   
  10bcf6:	cc                   	int3   
  10bcf7:	cc                   	int3   
  10bcf8:	cc                   	int3   
  10bcf9:	cc                   	int3   
  10bcfa:	cc                   	int3   
  10bcfb:	cc                   	int3   
  10bcfc:	cc                   	int3   
  10bcfd:	cc                   	int3   
  10bcfe:	cc                   	int3   
  10bcff:	cc                   	int3   

000000000010bd00 <_ZN153_$LT$core..result..Result$LT$T$C$F$GT$$u20$as$u20$core..ops..try_trait..FromResidual$LT$core..result..Result$LT$core..convert..Infallible$C$E$GT$$GT$$GT$13from_residual17h779f95138be469eaE>:
  10bd00:	48 83 ec 20          	sub    $0x20,%rsp
  10bd04:	c7 44 24 08 00 00 11 	movl   $0x110000,0x8(%rsp)
  10bd0b:	00 
  10bd0c:	48 8b 04 24          	mov    (%rsp),%rax
  10bd10:	8b 54 24 08          	mov    0x8(%rsp),%edx
  10bd14:	48 83 c4 20          	add    $0x20,%rsp
  10bd18:	c3                   	retq   
  10bd19:	cc                   	int3   
  10bd1a:	cc                   	int3   
  10bd1b:	cc                   	int3   
  10bd1c:	cc                   	int3   
  10bd1d:	cc                   	int3   
  10bd1e:	cc                   	int3   
  10bd1f:	cc                   	int3   

000000000010bd20 <_ZN153_$LT$core..result..Result$LT$T$C$F$GT$$u20$as$u20$core..ops..try_trait..FromResidual$LT$core..result..Result$LT$core..convert..Infallible$C$E$GT$$GT$$GT$13from_residual17hdab11aac15fb79f2E>:
  10bd20:	48 83 ec 18          	sub    $0x18,%rsp
  10bd24:	c6 44 24 07 01       	movb   $0x1,0x7(%rsp)
  10bd29:	8a 44 24 07          	mov    0x7(%rsp),%al
  10bd2d:	24 01                	and    $0x1,%al
  10bd2f:	0f b6 c0             	movzbl %al,%eax
  10bd32:	48 83 c4 18          	add    $0x18,%rsp
  10bd36:	c3                   	retq   
  10bd37:	cc                   	int3   
  10bd38:	cc                   	int3   
  10bd39:	cc                   	int3   
  10bd3a:	cc                   	int3   
  10bd3b:	cc                   	int3   
  10bd3c:	cc                   	int3   
  10bd3d:	cc                   	int3   
  10bd3e:	cc                   	int3   
  10bd3f:	cc                   	int3   

000000000010bd40 <_ZN4core5slice5index74_$LT$impl$u20$core..ops..index..Index$LT$I$GT$$u20$for$u20$$u5b$T$u5d$$GT$5index17hfba228892722ddfeE>:
  10bd40:	48 83 ec 28          	sub    $0x28,%rsp
  10bd44:	48 89 54 24 08       	mov    %rdx,0x8(%rsp)
  10bd49:	48 89 f2             	mov    %rsi,%rdx
  10bd4c:	48 89 fe             	mov    %rdi,%rsi
  10bd4f:	48 8b 7c 24 08       	mov    0x8(%rsp),%rdi
  10bd54:	48 89 74 24 10       	mov    %rsi,0x10(%rsp)
  10bd59:	48 89 54 24 18       	mov    %rdx,0x18(%rsp)
  10bd5e:	48 89 7c 24 20       	mov    %rdi,0x20(%rsp)
  10bd63:	e8 e8 17 00 00       	callq  10d550 <_ZN110_$LT$core..ops..range..RangeFrom$LT$usize$GT$$u20$as$u20$core..slice..index..SliceIndex$LT$$u5b$T$u5d$$GT$$GT$5index17h4252d9ba5dffc0e8E>
  10bd68:	48 83 c4 28          	add    $0x28,%rsp
  10bd6c:	c3                   	retq   
  10bd6d:	cc                   	int3   
  10bd6e:	cc                   	int3   
  10bd6f:	cc                   	int3   

000000000010bd70 <_ZN4core5slice29_$LT$impl$u20$$u5b$T$u5d$$GT$8iter_mut17hcab54c45a280279fE>:
  10bd70:	48 83 ec 18          	sub    $0x18,%rsp
  10bd74:	48 89 7c 24 08       	mov    %rdi,0x8(%rsp)
  10bd79:	48 89 74 24 10       	mov    %rsi,0x10(%rsp)
  10bd7e:	e8 dd 04 00 00       	callq  10c260 <_ZN4core5slice4iter16IterMut$LT$T$GT$3new17h91fcd83ab30a365eE>
  10bd83:	48 83 c4 18          	add    $0x18,%rsp
  10bd87:	c3                   	retq   
  10bd88:	cc                   	int3   
  10bd89:	cc                   	int3   
  10bd8a:	cc                   	int3   
  10bd8b:	cc                   	int3   
  10bd8c:	cc                   	int3   
  10bd8d:	cc                   	int3   
  10bd8e:	cc                   	int3   
  10bd8f:	cc                   	int3   

000000000010bd90 <_ZN4core3num7nonzero12NonZeroUsize13new_unchecked17h861ef8fffb94374cE>:
  10bd90:	48 83 ec 28          	sub    $0x28,%rsp
  10bd94:	48 89 3c 24          	mov    %rdi,(%rsp)
  10bd98:	48 89 7c 24 18       	mov    %rdi,0x18(%rsp)
  10bd9d:	b0 01                	mov    $0x1,%al
  10bd9f:	a8 01                	test   $0x1,%al
  10bda1:	75 13                	jne    10bdb6 <_ZN4core3num7nonzero12NonZeroUsize13new_unchecked17h861ef8fffb94374cE+0x26>
  10bda3:	48 8b 04 24          	mov    (%rsp),%rax
  10bda7:	48 89 44 24 08       	mov    %rax,0x8(%rsp)
  10bdac:	48 8b 44 24 08       	mov    0x8(%rsp),%rax
  10bdb1:	48 83 c4 28          	add    $0x28,%rsp
  10bdb5:	c3                   	retq   
  10bdb6:	48 8b 04 24          	mov    (%rsp),%rax
  10bdba:	48 89 44 24 10       	mov    %rax,0x10(%rsp)
  10bdbf:	48 8b 44 24 10       	mov    0x10(%rsp),%rax
  10bdc4:	48 89 44 24 20       	mov    %rax,0x20(%rsp)
  10bdc9:	48 83 f8 00          	cmp    $0x0,%rax
  10bdcd:	0f 95 c0             	setne  %al
  10bdd0:	34 ff                	xor    $0xff,%al
  10bdd2:	a8 01                	test   $0x1,%al
  10bdd4:	75 02                	jne    10bdd8 <_ZN4core3num7nonzero12NonZeroUsize13new_unchecked17h861ef8fffb94374cE+0x48>
  10bdd6:	eb 13                	jmp    10bdeb <_ZN4core3num7nonzero12NonZeroUsize13new_unchecked17h861ef8fffb94374cE+0x5b>
  10bdd8:	48 8d 3d e6 56 ff ff 	lea    -0xa91a(%rip),%rdi        # 1014c5 <str.0+0xd5>
  10bddf:	be 59 00 00 00       	mov    $0x59,%esi
  10bde4:	e8 97 96 ff ff       	callq  105480 <_ZN4core9panicking14panic_nounwind17hbf97f84b8fd59176E>
  10bde9:	0f 0b                	ud2    
  10bdeb:	eb b6                	jmp    10bda3 <_ZN4core3num7nonzero12NonZeroUsize13new_unchecked17h861ef8fffb94374cE+0x13>
  10bded:	cc                   	int3   
  10bdee:	cc                   	int3   
  10bdef:	cc                   	int3   

000000000010bdf0 <_ZN49_$LT$usize$u20$as$u20$core..iter..range..Step$GT$17forward_unchecked17h84a06967c3c10fd6E>:
  10bdf0:	48 83 ec 20          	sub    $0x20,%rsp
  10bdf4:	48 89 f8             	mov    %rdi,%rax
  10bdf7:	48 89 04 24          	mov    %rax,(%rsp)
  10bdfb:	48 89 74 24 08       	mov    %rsi,0x8(%rsp)
  10be00:	48 89 44 24 10       	mov    %rax,0x10(%rsp)
  10be05:	48 89 74 24 18       	mov    %rsi,0x18(%rsp)
  10be0a:	48 01 f0             	add    %rsi,%rax
  10be0d:	48 83 c4 20          	add    $0x20,%rsp
  10be11:	c3                   	retq   
  10be12:	cc                   	int3   
  10be13:	cc                   	int3   
  10be14:	cc                   	int3   
  10be15:	cc                   	int3   
  10be16:	cc                   	int3   
  10be17:	cc                   	int3   
  10be18:	cc                   	int3   
  10be19:	cc                   	int3   
  10be1a:	cc                   	int3   
  10be1b:	cc                   	int3   
  10be1c:	cc                   	int3   
  10be1d:	cc                   	int3   
  10be1e:	cc                   	int3   
  10be1f:	cc                   	int3   

000000000010be20 <_ZN63_$LT$I$u20$as$u20$core..iter..traits..collect..IntoIterator$GT$9into_iter17hecf45bf4d6703f18E>:
  10be20:	48 89 f8             	mov    %rdi,%rax
  10be23:	48 8b 0e             	mov    (%rsi),%rcx
  10be26:	48 89 0f             	mov    %rcx,(%rdi)
  10be29:	48 8b 4e 08          	mov    0x8(%rsi),%rcx
  10be2d:	48 89 4f 08          	mov    %rcx,0x8(%rdi)
  10be31:	48 8b 4e 10          	mov    0x10(%rsi),%rcx
  10be35:	48 89 4f 10          	mov    %rcx,0x10(%rdi)
  10be39:	c3                   	retq   
  10be3a:	cc                   	int3   
  10be3b:	cc                   	int3   
  10be3c:	cc                   	int3   
  10be3d:	cc                   	int3   
  10be3e:	cc                   	int3   
  10be3f:	cc                   	int3   

000000000010be40 <_ZN4core4iter6traits8iterator8Iterator3map17h6dd0dff5cc138c59E>:
  10be40:	48 83 ec 18          	sub    $0x18,%rsp
  10be44:	48 89 3c 24          	mov    %rdi,(%rsp)
  10be48:	48 89 74 24 08       	mov    %rsi,0x8(%rsp)
  10be4d:	e8 8e a9 ff ff       	callq  1067e0 <_ZN4core4iter8adapters3map16Map$LT$I$C$F$GT$3new17hee3106c3ba64aa08E>
  10be52:	48 83 c4 18          	add    $0x18,%rsp
  10be56:	c3                   	retq   
  10be57:	cc                   	int3   
  10be58:	cc                   	int3   
  10be59:	cc                   	int3   
  10be5a:	cc                   	int3   
  10be5b:	cc                   	int3   
  10be5c:	cc                   	int3   
  10be5d:	cc                   	int3   
  10be5e:	cc                   	int3   
  10be5f:	cc                   	int3   

000000000010be60 <_ZN4core4iter6traits8iterator8Iterator6filter17h023e672b48fcb0a6E>:
  10be60:	48 83 ec 18          	sub    $0x18,%rsp
  10be64:	48 89 3c 24          	mov    %rdi,(%rsp)
  10be68:	48 89 74 24 08       	mov    %rsi,0x8(%rsp)
  10be6d:	e8 de b4 ff ff       	callq  107350 <_ZN4core4iter8adapters6filter19Filter$LT$I$C$P$GT$3new17h02105f72c67b8c9aE>
  10be72:	48 83 c4 18          	add    $0x18,%rsp
  10be76:	c3                   	retq   
  10be77:	cc                   	int3   
  10be78:	cc                   	int3   
  10be79:	cc                   	int3   
  10be7a:	cc                   	int3   
  10be7b:	cc                   	int3   
  10be7c:	cc                   	int3   
  10be7d:	cc                   	int3   
  10be7e:	cc                   	int3   
  10be7f:	cc                   	int3   

000000000010be80 <_ZN4core4iter6traits8iterator8Iterator9enumerate17h2ca48fce05fba6a7E>:
  10be80:	48 83 ec 18          	sub    $0x18,%rsp
  10be84:	48 89 f8             	mov    %rdi,%rax
  10be87:	48 89 04 24          	mov    %rax,(%rsp)
  10be8b:	48 89 74 24 08       	mov    %rsi,0x8(%rsp)
  10be90:	48 89 54 24 10       	mov    %rdx,0x10(%rsp)
  10be95:	e8 56 e2 ff ff       	callq  10a0f0 <_ZN4core4iter8adapters9enumerate18Enumerate$LT$I$GT$3new17h413b0fbc692bcc77E>
  10be9a:	48 8b 04 24          	mov    (%rsp),%rax
  10be9e:	48 83 c4 18          	add    $0x18,%rsp
  10bea2:	c3                   	retq   
  10bea3:	cc                   	int3   
  10bea4:	cc                   	int3   
  10bea5:	cc                   	int3   
  10bea6:	cc                   	int3   
  10bea7:	cc                   	int3   
  10bea8:	cc                   	int3   
  10bea9:	cc                   	int3   
  10beaa:	cc                   	int3   
  10beab:	cc                   	int3   
  10beac:	cc                   	int3   
  10bead:	cc                   	int3   
  10beae:	cc                   	int3   
  10beaf:	cc                   	int3   

000000000010beb0 <_ZN4core4iter6traits8iterator8Iterator9enumerate17hfd88f1c176417c66E>:
  10beb0:	48 83 ec 18          	sub    $0x18,%rsp
  10beb4:	48 89 f8             	mov    %rdi,%rax
  10beb7:	48 89 04 24          	mov    %rax,(%rsp)
  10bebb:	48 89 74 24 08       	mov    %rsi,0x8(%rsp)
  10bec0:	48 89 54 24 10       	mov    %rdx,0x10(%rsp)
  10bec5:	e8 f6 e1 ff ff       	callq  10a0c0 <_ZN4core4iter8adapters9enumerate18Enumerate$LT$I$GT$3new17h31c516e052a8d5baE>
  10beca:	48 8b 04 24          	mov    (%rsp),%rax
  10bece:	48 83 c4 18          	add    $0x18,%rsp
  10bed2:	c3                   	retq   
  10bed3:	cc                   	int3   
  10bed4:	cc                   	int3   
  10bed5:	cc                   	int3   
  10bed6:	cc                   	int3   
  10bed7:	cc                   	int3   
  10bed8:	cc                   	int3   
  10bed9:	cc                   	int3   
  10beda:	cc                   	int3   
  10bedb:	cc                   	int3   
  10bedc:	cc                   	int3   
  10bedd:	cc                   	int3   
  10bede:	cc                   	int3   
  10bedf:	cc                   	int3   

000000000010bee0 <_ZN4core4iter6traits8iterator8Iterator3rev17h792918b195c76a1eE>:
  10bee0:	48 83 ec 18          	sub    $0x18,%rsp
  10bee4:	48 89 7c 24 08       	mov    %rdi,0x8(%rsp)
  10bee9:	48 89 74 24 10       	mov    %rsi,0x10(%rsp)
  10beee:	e8 0d 99 ff ff       	callq  105800 <_ZN4core4iter8adapters3rev12Rev$LT$T$GT$3new17h07e7d159b038d3e5E>
  10bef3:	48 83 c4 18          	add    $0x18,%rsp
  10bef7:	c3                   	retq   
  10bef8:	cc                   	int3   
  10bef9:	cc                   	int3   
  10befa:	cc                   	int3   
  10befb:	cc                   	int3   
  10befc:	cc                   	int3   
  10befd:	cc                   	int3   
  10befe:	cc                   	int3   
  10beff:	cc                   	int3   

000000000010bf00 <_ZN4core5slice4iter87_$LT$impl$u20$core..iter..traits..collect..IntoIterator$u20$for$u20$$RF$$u5b$T$u5d$$GT$9into_iter17h156d816ab719f656E>:
  10bf00:	48 83 ec 18          	sub    $0x18,%rsp
  10bf04:	48 89 7c 24 08       	mov    %rdi,0x8(%rsp)
  10bf09:	48 89 74 24 10       	mov    %rsi,0x10(%rsp)
  10bf0e:	e8 dd 29 00 00       	callq  10e8f0 <_ZN4core5slice29_$LT$impl$u20$$u5b$T$u5d$$GT$4iter17h56799e9d3f578d01E>
  10bf13:	48 83 c4 18          	add    $0x18,%rsp
  10bf17:	c3                   	retq   
  10bf18:	cc                   	int3   
  10bf19:	cc                   	int3   
  10bf1a:	cc                   	int3   
  10bf1b:	cc                   	int3   
  10bf1c:	cc                   	int3   
  10bf1d:	cc                   	int3   
  10bf1e:	cc                   	int3   
  10bf1f:	cc                   	int3   

000000000010bf20 <_ZN4core5slice4iter87_$LT$impl$u20$core..iter..traits..collect..IntoIterator$u20$for$u20$$RF$$u5b$T$u5d$$GT$9into_iter17hfb45659324715457E>:
  10bf20:	48 83 ec 18          	sub    $0x18,%rsp
  10bf24:	48 89 7c 24 08       	mov    %rdi,0x8(%rsp)
  10bf29:	48 89 74 24 10       	mov    %rsi,0x10(%rsp)
  10bf2e:	e8 9d 29 00 00       	callq  10e8d0 <_ZN4core5slice29_$LT$impl$u20$$u5b$T$u5d$$GT$4iter17h4b92e5232e1ff441E>
  10bf33:	48 83 c4 18          	add    $0x18,%rsp
  10bf37:	c3                   	retq   
  10bf38:	cc                   	int3   
  10bf39:	cc                   	int3   
  10bf3a:	cc                   	int3   
  10bf3b:	cc                   	int3   
  10bf3c:	cc                   	int3   
  10bf3d:	cc                   	int3   
  10bf3e:	cc                   	int3   
  10bf3f:	cc                   	int3   

000000000010bf40 <_ZN4core5slice4iter13Iter$LT$T$GT$3new17h111e611c9e701a04E>:
  10bf40:	48 83 ec 68          	sub    $0x68,%rsp
  10bf44:	48 89 34 24          	mov    %rsi,(%rsp)
  10bf48:	48 89 7c 24 08       	mov    %rdi,0x8(%rsp)
  10bf4d:	48 89 7c 24 28       	mov    %rdi,0x28(%rsp)
  10bf52:	48 89 74 24 30       	mov    %rsi,0x30(%rsp)
  10bf57:	48 89 7c 24 58       	mov    %rdi,0x58(%rsp)
  10bf5c:	48 89 74 24 60       	mov    %rsi,0x60(%rsp)
  10bf61:	48 89 7c 24 38       	mov    %rdi,0x38(%rsp)
  10bf66:	31 c0                	xor    %eax,%eax
  10bf68:	a8 01                	test   $0x1,%al
  10bf6a:	75 21                	jne    10bf8d <_ZN4core5slice4iter13Iter$LT$T$GT$3new17h111e611c9e701a04E+0x4d>
  10bf6c:	48 8b 44 24 08       	mov    0x8(%rsp),%rax
  10bf71:	48 8b 0c 24          	mov    (%rsp),%rcx
  10bf75:	48 89 44 24 40       	mov    %rax,0x40(%rsp)
  10bf7a:	48 89 4c 24 48       	mov    %rcx,0x48(%rsp)
  10bf7f:	48 6b c9 38          	imul   $0x38,%rcx,%rcx
  10bf83:	48 01 c8             	add    %rcx,%rax
  10bf86:	48 89 44 24 20       	mov    %rax,0x20(%rsp)
  10bf8b:	eb 0e                	jmp    10bf9b <_ZN4core5slice4iter13Iter$LT$T$GT$3new17h111e611c9e701a04E+0x5b>
  10bf8d:	48 8b 04 24          	mov    (%rsp),%rax
  10bf91:	48 89 44 24 50       	mov    %rax,0x50(%rsp)
  10bf96:	48 89 44 24 20       	mov    %rax,0x20(%rsp)
  10bf9b:	48 8b 7c 24 08       	mov    0x8(%rsp),%rdi
  10bfa0:	e8 6b 0b 00 00       	callq  10cb10 <_ZN4core3ptr8non_null16NonNull$LT$T$GT$13new_unchecked17h7b5a02882c486ba2E>
  10bfa5:	48 89 c1             	mov    %rax,%rcx
  10bfa8:	48 8b 44 24 20       	mov    0x20(%rsp),%rax
  10bfad:	48 89 4c 24 10       	mov    %rcx,0x10(%rsp)
  10bfb2:	48 89 44 24 18       	mov    %rax,0x18(%rsp)
  10bfb7:	48 8b 44 24 10       	mov    0x10(%rsp),%rax
  10bfbc:	48 8b 54 24 18       	mov    0x18(%rsp),%rdx
  10bfc1:	48 83 c4 68          	add    $0x68,%rsp
  10bfc5:	c3                   	retq   
  10bfc6:	cc                   	int3   
  10bfc7:	cc                   	int3   
  10bfc8:	cc                   	int3   
  10bfc9:	cc                   	int3   
  10bfca:	cc                   	int3   
  10bfcb:	cc                   	int3   
  10bfcc:	cc                   	int3   
  10bfcd:	cc                   	int3   
  10bfce:	cc                   	int3   
  10bfcf:	cc                   	int3   

000000000010bfd0 <_ZN4core5slice4iter13Iter$LT$T$GT$3new17h574c7a9464a55651E>:
  10bfd0:	48 83 ec 68          	sub    $0x68,%rsp
  10bfd4:	48 89 34 24          	mov    %rsi,(%rsp)
  10bfd8:	48 89 7c 24 08       	mov    %rdi,0x8(%rsp)
  10bfdd:	48 89 7c 24 28       	mov    %rdi,0x28(%rsp)
  10bfe2:	48 89 74 24 30       	mov    %rsi,0x30(%rsp)
  10bfe7:	48 89 7c 24 58       	mov    %rdi,0x58(%rsp)
  10bfec:	48 89 74 24 60       	mov    %rsi,0x60(%rsp)
  10bff1:	48 89 7c 24 38       	mov    %rdi,0x38(%rsp)
  10bff6:	31 c0                	xor    %eax,%eax
  10bff8:	a8 01                	test   $0x1,%al
  10bffa:	75 21                	jne    10c01d <_ZN4core5slice4iter13Iter$LT$T$GT$3new17h574c7a9464a55651E+0x4d>
  10bffc:	48 8b 44 24 08       	mov    0x8(%rsp),%rax
  10c001:	48 8b 0c 24          	mov    (%rsp),%rcx
  10c005:	48 89 44 24 40       	mov    %rax,0x40(%rsp)
  10c00a:	48 89 4c 24 48       	mov    %rcx,0x48(%rsp)
  10c00f:	48 c1 e1 05          	shl    $0x5,%rcx
  10c013:	48 01 c8             	add    %rcx,%rax
  10c016:	48 89 44 24 20       	mov    %rax,0x20(%rsp)
  10c01b:	eb 0e                	jmp    10c02b <_ZN4core5slice4iter13Iter$LT$T$GT$3new17h574c7a9464a55651E+0x5b>
  10c01d:	48 8b 04 24          	mov    (%rsp),%rax
  10c021:	48 89 44 24 50       	mov    %rax,0x50(%rsp)
  10c026:	48 89 44 24 20       	mov    %rax,0x20(%rsp)
  10c02b:	48 8b 7c 24 08       	mov    0x8(%rsp),%rdi
  10c030:	e8 fb 0b 00 00       	callq  10cc30 <_ZN4core3ptr8non_null16NonNull$LT$T$GT$13new_unchecked17hef8759ac5d49c5b7E>
  10c035:	48 89 c1             	mov    %rax,%rcx
  10c038:	48 8b 44 24 20       	mov    0x20(%rsp),%rax
  10c03d:	48 89 4c 24 10       	mov    %rcx,0x10(%rsp)
  10c042:	48 89 44 24 18       	mov    %rax,0x18(%rsp)
  10c047:	48 8b 44 24 10       	mov    0x10(%rsp),%rax
  10c04c:	48 8b 54 24 18       	mov    0x18(%rsp),%rdx
  10c051:	48 83 c4 68          	add    $0x68,%rsp
  10c055:	c3                   	retq   
  10c056:	cc                   	int3   
  10c057:	cc                   	int3   
  10c058:	cc                   	int3   
  10c059:	cc                   	int3   
  10c05a:	cc                   	int3   
  10c05b:	cc                   	int3   
  10c05c:	cc                   	int3   
  10c05d:	cc                   	int3   
  10c05e:	cc                   	int3   
  10c05f:	cc                   	int3   

000000000010c060 <_ZN4core5slice4iter13Iter$LT$T$GT$3new17h89a57654022084cdE>:
  10c060:	48 83 ec 68          	sub    $0x68,%rsp
  10c064:	48 89 34 24          	mov    %rsi,(%rsp)
  10c068:	48 89 7c 24 08       	mov    %rdi,0x8(%rsp)
  10c06d:	48 89 7c 24 28       	mov    %rdi,0x28(%rsp)
  10c072:	48 89 74 24 30       	mov    %rsi,0x30(%rsp)
  10c077:	48 89 7c 24 58       	mov    %rdi,0x58(%rsp)
  10c07c:	48 89 74 24 60       	mov    %rsi,0x60(%rsp)
  10c081:	48 89 7c 24 38       	mov    %rdi,0x38(%rsp)
  10c086:	31 c0                	xor    %eax,%eax
  10c088:	a8 01                	test   $0x1,%al
  10c08a:	75 1d                	jne    10c0a9 <_ZN4core5slice4iter13Iter$LT$T$GT$3new17h89a57654022084cdE+0x49>
  10c08c:	48 8b 0c 24          	mov    (%rsp),%rcx
  10c090:	48 8b 44 24 08       	mov    0x8(%rsp),%rax
  10c095:	48 89 44 24 40       	mov    %rax,0x40(%rsp)
  10c09a:	48 89 4c 24 48       	mov    %rcx,0x48(%rsp)
  10c09f:	48 01 c8             	add    %rcx,%rax
  10c0a2:	48 89 44 24 20       	mov    %rax,0x20(%rsp)
  10c0a7:	eb 0e                	jmp    10c0b7 <_ZN4core5slice4iter13Iter$LT$T$GT$3new17h89a57654022084cdE+0x57>
  10c0a9:	48 8b 04 24          	mov    (%rsp),%rax
  10c0ad:	48 89 44 24 50       	mov    %rax,0x50(%rsp)
  10c0b2:	48 89 44 24 20       	mov    %rax,0x20(%rsp)
  10c0b7:	48 8b 7c 24 08       	mov    0x8(%rsp),%rdi
  10c0bc:	e8 af 0a 00 00       	callq  10cb70 <_ZN4core3ptr8non_null16NonNull$LT$T$GT$13new_unchecked17h8fee96e291f2ca3dE>
  10c0c1:	48 89 c1             	mov    %rax,%rcx
  10c0c4:	48 8b 44 24 20       	mov    0x20(%rsp),%rax
  10c0c9:	48 89 4c 24 10       	mov    %rcx,0x10(%rsp)
  10c0ce:	48 89 44 24 18       	mov    %rax,0x18(%rsp)
  10c0d3:	48 8b 44 24 10       	mov    0x10(%rsp),%rax
  10c0d8:	48 8b 54 24 18       	mov    0x18(%rsp),%rdx
  10c0dd:	48 83 c4 68          	add    $0x68,%rsp
  10c0e1:	c3                   	retq   
  10c0e2:	cc                   	int3   
  10c0e3:	cc                   	int3   
  10c0e4:	cc                   	int3   
  10c0e5:	cc                   	int3   
  10c0e6:	cc                   	int3   
  10c0e7:	cc                   	int3   
  10c0e8:	cc                   	int3   
  10c0e9:	cc                   	int3   
  10c0ea:	cc                   	int3   
  10c0eb:	cc                   	int3   
  10c0ec:	cc                   	int3   
  10c0ed:	cc                   	int3   
  10c0ee:	cc                   	int3   
  10c0ef:	cc                   	int3   

000000000010c0f0 <_ZN4core5slice4iter13Iter$LT$T$GT$3new17hd1d6e350f0acbac1E>:
  10c0f0:	48 83 ec 68          	sub    $0x68,%rsp
  10c0f4:	48 89 34 24          	mov    %rsi,(%rsp)
  10c0f8:	48 89 7c 24 08       	mov    %rdi,0x8(%rsp)
  10c0fd:	48 89 7c 24 28       	mov    %rdi,0x28(%rsp)
  10c102:	48 89 74 24 30       	mov    %rsi,0x30(%rsp)
  10c107:	48 89 7c 24 58       	mov    %rdi,0x58(%rsp)
  10c10c:	48 89 74 24 60       	mov    %rsi,0x60(%rsp)
  10c111:	48 89 7c 24 38       	mov    %rdi,0x38(%rsp)
  10c116:	31 c0                	xor    %eax,%eax
  10c118:	a8 01                	test   $0x1,%al
  10c11a:	75 21                	jne    10c13d <_ZN4core5slice4iter13Iter$LT$T$GT$3new17hd1d6e350f0acbac1E+0x4d>
  10c11c:	48 8b 44 24 08       	mov    0x8(%rsp),%rax
  10c121:	48 8b 0c 24          	mov    (%rsp),%rcx
  10c125:	48 89 44 24 40       	mov    %rax,0x40(%rsp)
  10c12a:	48 89 4c 24 48       	mov    %rcx,0x48(%rsp)
  10c12f:	48 c1 e1 04          	shl    $0x4,%rcx
  10c133:	48 01 c8             	add    %rcx,%rax
  10c136:	48 89 44 24 20       	mov    %rax,0x20(%rsp)
  10c13b:	eb 0e                	jmp    10c14b <_ZN4core5slice4iter13Iter$LT$T$GT$3new17hd1d6e350f0acbac1E+0x5b>
  10c13d:	48 8b 04 24          	mov    (%rsp),%rax
  10c141:	48 89 44 24 50       	mov    %rax,0x50(%rsp)
  10c146:	48 89 44 24 20       	mov    %rax,0x20(%rsp)
  10c14b:	48 8b 7c 24 08       	mov    0x8(%rsp),%rdi
  10c150:	e8 5b 09 00 00       	callq  10cab0 <_ZN4core3ptr8non_null16NonNull$LT$T$GT$13new_unchecked17h7302b37e30e74e02E>
  10c155:	48 89 c1             	mov    %rax,%rcx
  10c158:	48 8b 44 24 20       	mov    0x20(%rsp),%rax
  10c15d:	48 89 4c 24 10       	mov    %rcx,0x10(%rsp)
  10c162:	48 89 44 24 18       	mov    %rax,0x18(%rsp)
  10c167:	48 8b 44 24 10       	mov    0x10(%rsp),%rax
  10c16c:	48 8b 54 24 18       	mov    0x18(%rsp),%rdx
  10c171:	48 83 c4 68          	add    $0x68,%rsp
  10c175:	c3                   	retq   
  10c176:	cc                   	int3   
  10c177:	cc                   	int3   
  10c178:	cc                   	int3   
  10c179:	cc                   	int3   
  10c17a:	cc                   	int3   
  10c17b:	cc                   	int3   
  10c17c:	cc                   	int3   
  10c17d:	cc                   	int3   
  10c17e:	cc                   	int3   
  10c17f:	cc                   	int3   

000000000010c180 <_ZN4core5slice4iter13Iter$LT$T$GT$3new17hfcd1344e6e18beadE>:
  10c180:	48 83 ec 68          	sub    $0x68,%rsp
  10c184:	48 89 34 24          	mov    %rsi,(%rsp)
  10c188:	48 89 7c 24 08       	mov    %rdi,0x8(%rsp)
  10c18d:	48 89 7c 24 28       	mov    %rdi,0x28(%rsp)
  10c192:	48 89 74 24 30       	mov    %rsi,0x30(%rsp)
  10c197:	48 89 7c 24 58       	mov    %rdi,0x58(%rsp)
  10c19c:	48 89 74 24 60       	mov    %rsi,0x60(%rsp)
  10c1a1:	48 89 7c 24 38       	mov    %rdi,0x38(%rsp)
  10c1a6:	31 c0                	xor    %eax,%eax
  10c1a8:	a8 01                	test   $0x1,%al
  10c1aa:	75 21                	jne    10c1cd <_ZN4core5slice4iter13Iter$LT$T$GT$3new17hfcd1344e6e18beadE+0x4d>
  10c1ac:	48 8b 44 24 08       	mov    0x8(%rsp),%rax
  10c1b1:	48 8b 0c 24          	mov    (%rsp),%rcx
  10c1b5:	48 89 44 24 40       	mov    %rax,0x40(%rsp)
  10c1ba:	48 89 4c 24 48       	mov    %rcx,0x48(%rsp)
  10c1bf:	48 c1 e1 03          	shl    $0x3,%rcx
  10c1c3:	48 01 c8             	add    %rcx,%rax
  10c1c6:	48 89 44 24 20       	mov    %rax,0x20(%rsp)
  10c1cb:	eb 0e                	jmp    10c1db <_ZN4core5slice4iter13Iter$LT$T$GT$3new17hfcd1344e6e18beadE+0x5b>
  10c1cd:	48 8b 04 24          	mov    (%rsp),%rax
  10c1d1:	48 89 44 24 50       	mov    %rax,0x50(%rsp)
  10c1d6:	48 89 44 24 20       	mov    %rax,0x20(%rsp)
  10c1db:	48 8b 7c 24 08       	mov    0x8(%rsp),%rdi
  10c1e0:	e8 eb 09 00 00       	callq  10cbd0 <_ZN4core3ptr8non_null16NonNull$LT$T$GT$13new_unchecked17hac2e6d5a1f12b409E>
  10c1e5:	48 89 c1             	mov    %rax,%rcx
  10c1e8:	48 8b 44 24 20       	mov    0x20(%rsp),%rax
  10c1ed:	48 89 4c 24 10       	mov    %rcx,0x10(%rsp)
  10c1f2:	48 89 44 24 18       	mov    %rax,0x18(%rsp)
  10c1f7:	48 8b 44 24 10       	mov    0x10(%rsp),%rax
  10c1fc:	48 8b 54 24 18       	mov    0x18(%rsp),%rdx
  10c201:	48 83 c4 68          	add    $0x68,%rsp
  10c205:	c3                   	retq   
  10c206:	cc                   	int3   
  10c207:	cc                   	int3   
  10c208:	cc                   	int3   
  10c209:	cc                   	int3   
  10c20a:	cc                   	int3   
  10c20b:	cc                   	int3   
  10c20c:	cc                   	int3   
  10c20d:	cc                   	int3   
  10c20e:	cc                   	int3   
  10c20f:	cc                   	int3   

000000000010c210 <_ZN4core5slice4iter13Iter$LT$T$GT$8as_slice17he6d56a44afb34311E>:
  10c210:	48 83 ec 38          	sub    $0x38,%rsp
  10c214:	48 89 7c 24 10       	mov    %rdi,0x10(%rsp)
  10c219:	48 89 7c 24 20       	mov    %rdi,0x20(%rsp)
  10c21e:	48 8b 07             	mov    (%rdi),%rax
  10c221:	48 89 44 24 08       	mov    %rax,0x8(%rsp)
  10c226:	48 89 44 24 30       	mov    %rax,0x30(%rsp)
  10c22b:	48 8b 37             	mov    (%rdi),%rsi
  10c22e:	48 8b 7f 08          	mov    0x8(%rdi),%rdi
  10c232:	48 89 74 24 28       	mov    %rsi,0x28(%rsp)
  10c237:	e8 c4 eb ff ff       	callq  10ae00 <_ZN4core3ptr9const_ptr33_$LT$impl$u20$$BP$const$u20$T$GT$7sub_ptr17hbb5f2b6c27645241E>
  10c23c:	48 8b 7c 24 08       	mov    0x8(%rsp),%rdi
  10c241:	48 89 44 24 18       	mov    %rax,0x18(%rsp)
  10c246:	48 8b 74 24 18       	mov    0x18(%rsp),%rsi
  10c24b:	e8 50 e2 ff ff       	callq  10a4a0 <_ZN4core5slice3raw14from_raw_parts17h5a4c48e0db5e3da5E>
  10c250:	48 83 c4 38          	add    $0x38,%rsp
  10c254:	c3                   	retq   
  10c255:	cc                   	int3   
  10c256:	cc                   	int3   
  10c257:	cc                   	int3   
  10c258:	cc                   	int3   
  10c259:	cc                   	int3   
  10c25a:	cc                   	int3   
  10c25b:	cc                   	int3   
  10c25c:	cc                   	int3   
  10c25d:	cc                   	int3   
  10c25e:	cc                   	int3   
  10c25f:	cc                   	int3   

000000000010c260 <_ZN4core5slice4iter16IterMut$LT$T$GT$3new17h91fcd83ab30a365eE>:
  10c260:	48 83 ec 68          	sub    $0x68,%rsp
  10c264:	48 89 34 24          	mov    %rsi,(%rsp)
  10c268:	48 89 7c 24 08       	mov    %rdi,0x8(%rsp)
  10c26d:	48 89 7c 24 28       	mov    %rdi,0x28(%rsp)
  10c272:	48 89 74 24 30       	mov    %rsi,0x30(%rsp)
  10c277:	48 89 7c 24 58       	mov    %rdi,0x58(%rsp)
  10c27c:	48 89 74 24 60       	mov    %rsi,0x60(%rsp)
  10c281:	48 89 7c 24 38       	mov    %rdi,0x38(%rsp)
  10c286:	31 c0                	xor    %eax,%eax
  10c288:	a8 01                	test   $0x1,%al
  10c28a:	75 1d                	jne    10c2a9 <_ZN4core5slice4iter16IterMut$LT$T$GT$3new17h91fcd83ab30a365eE+0x49>
  10c28c:	48 8b 0c 24          	mov    (%rsp),%rcx
  10c290:	48 8b 44 24 08       	mov    0x8(%rsp),%rax
  10c295:	48 89 44 24 40       	mov    %rax,0x40(%rsp)
  10c29a:	48 89 4c 24 48       	mov    %rcx,0x48(%rsp)
  10c29f:	48 01 c8             	add    %rcx,%rax
  10c2a2:	48 89 44 24 20       	mov    %rax,0x20(%rsp)
  10c2a7:	eb 0e                	jmp    10c2b7 <_ZN4core5slice4iter16IterMut$LT$T$GT$3new17h91fcd83ab30a365eE+0x57>
  10c2a9:	48 8b 04 24          	mov    (%rsp),%rax
  10c2ad:	48 89 44 24 50       	mov    %rax,0x50(%rsp)
  10c2b2:	48 89 44 24 20       	mov    %rax,0x20(%rsp)
  10c2b7:	48 8b 7c 24 08       	mov    0x8(%rsp),%rdi
  10c2bc:	e8 8f 07 00 00       	callq  10ca50 <_ZN4core3ptr8non_null16NonNull$LT$T$GT$13new_unchecked17h305d7a9dcf2aeea3E>
  10c2c1:	48 89 c1             	mov    %rax,%rcx
  10c2c4:	48 8b 44 24 20       	mov    0x20(%rsp),%rax
  10c2c9:	48 89 4c 24 10       	mov    %rcx,0x10(%rsp)
  10c2ce:	48 89 44 24 18       	mov    %rax,0x18(%rsp)
  10c2d3:	48 8b 44 24 10       	mov    0x10(%rsp),%rax
  10c2d8:	48 8b 54 24 18       	mov    0x18(%rsp),%rdx
  10c2dd:	48 83 c4 68          	add    $0x68,%rsp
  10c2e1:	c3                   	retq   
  10c2e2:	cc                   	int3   
  10c2e3:	cc                   	int3   
  10c2e4:	cc                   	int3   
  10c2e5:	cc                   	int3   
  10c2e6:	cc                   	int3   
  10c2e7:	cc                   	int3   
  10c2e8:	cc                   	int3   
  10c2e9:	cc                   	int3   
  10c2ea:	cc                   	int3   
  10c2eb:	cc                   	int3   
  10c2ec:	cc                   	int3   
  10c2ed:	cc                   	int3   
  10c2ee:	cc                   	int3   
  10c2ef:	cc                   	int3   

000000000010c2f0 <_ZN4core5slice4iter15Chunks$LT$T$GT$3new17h5aeda86fec62804bE>:
  10c2f0:	48 83 ec 18          	sub    $0x18,%rsp
  10c2f4:	48 89 f8             	mov    %rdi,%rax
  10c2f7:	48 89 34 24          	mov    %rsi,(%rsp)
  10c2fb:	48 89 54 24 08       	mov    %rdx,0x8(%rsp)
  10c300:	48 89 4c 24 10       	mov    %rcx,0x10(%rsp)
  10c305:	48 89 37             	mov    %rsi,(%rdi)
  10c308:	48 89 57 08          	mov    %rdx,0x8(%rdi)
  10c30c:	48 89 4f 10          	mov    %rcx,0x10(%rdi)
  10c310:	48 83 c4 18          	add    $0x18,%rsp
  10c314:	c3                   	retq   
  10c315:	cc                   	int3   
  10c316:	cc                   	int3   
  10c317:	cc                   	int3   
  10c318:	cc                   	int3   
  10c319:	cc                   	int3   
  10c31a:	cc                   	int3   
  10c31b:	cc                   	int3   
  10c31c:	cc                   	int3   
  10c31d:	cc                   	int3   
  10c31e:	cc                   	int3   
  10c31f:	cc                   	int3   

000000000010c320 <_ZN93_$LT$core..slice..iter..Chunks$LT$T$GT$$u20$as$u20$core..iter..traits..iterator..Iterator$GT$4next17h99114e51182ae955E>:
  10c320:	48 83 ec 68          	sub    $0x68,%rsp
  10c324:	48 89 f8             	mov    %rdi,%rax
  10c327:	48 89 04 24          	mov    %rax,(%rsp)
  10c32b:	48 89 44 24 38       	mov    %rax,0x38(%rsp)
  10c330:	48 8b 38             	mov    (%rax),%rdi
  10c333:	48 8b 70 08          	mov    0x8(%rax),%rsi
  10c337:	e8 74 24 00 00       	callq  10e7b0 <_ZN4core5slice29_$LT$impl$u20$$u5b$T$u5d$$GT$8is_empty17h8d9abccf13d8d832E>
  10c33c:	a8 01                	test   $0x1,%al
  10c33e:	75 74                	jne    10c3b4 <_ZN93_$LT$core..slice..iter..Chunks$LT$T$GT$$u20$as$u20$core..iter..traits..iterator..Iterator$GT$4next17h99114e51182ae955E+0x94>
  10c340:	48 8b 04 24          	mov    (%rsp),%rax
  10c344:	48 8b 78 08          	mov    0x8(%rax),%rdi
  10c348:	48 8b 70 10          	mov    0x10(%rax),%rsi
  10c34c:	e8 bf a3 ff ff       	callq  106710 <_ZN4core3cmp3min17h85effe1424c3cdd1E>
  10c351:	48 89 c1             	mov    %rax,%rcx
  10c354:	48 8b 04 24          	mov    (%rsp),%rax
  10c358:	48 89 4c 24 40       	mov    %rcx,0x40(%rsp)
  10c35d:	48 8b 30             	mov    (%rax),%rsi
  10c360:	48 8b 50 08          	mov    0x8(%rax),%rdx
  10c364:	48 8d 7c 24 18       	lea    0x18(%rsp),%rdi
  10c369:	4c 8d 05 18 60 00 00 	lea    0x6018(%rip),%r8        # 112388 <_ZN4core3fmt2rt12USIZE_MARKER17h1b31419084dfd5e3E+0x990>
  10c370:	e8 6b 29 00 00       	callq  10ece0 <_ZN4core5slice29_$LT$impl$u20$$u5b$T$u5d$$GT$8split_at17hd4724185ff0a4592E>
  10c375:	48 8b 14 24          	mov    (%rsp),%rdx
  10c379:	48 8b 4c 24 18       	mov    0x18(%rsp),%rcx
  10c37e:	48 8b 44 24 20       	mov    0x20(%rsp),%rax
  10c383:	48 89 4c 24 48       	mov    %rcx,0x48(%rsp)
  10c388:	48 89 44 24 50       	mov    %rax,0x50(%rsp)
  10c38d:	48 8b 7c 24 28       	mov    0x28(%rsp),%rdi
  10c392:	48 8b 74 24 30       	mov    0x30(%rsp),%rsi
  10c397:	48 89 7c 24 58       	mov    %rdi,0x58(%rsp)
  10c39c:	48 89 74 24 60       	mov    %rsi,0x60(%rsp)
  10c3a1:	48 89 3a             	mov    %rdi,(%rdx)
  10c3a4:	48 89 72 08          	mov    %rsi,0x8(%rdx)
  10c3a8:	48 89 4c 24 08       	mov    %rcx,0x8(%rsp)
  10c3ad:	48 89 44 24 10       	mov    %rax,0x10(%rsp)
  10c3b2:	eb 09                	jmp    10c3bd <_ZN93_$LT$core..slice..iter..Chunks$LT$T$GT$$u20$as$u20$core..iter..traits..iterator..Iterator$GT$4next17h99114e51182ae955E+0x9d>
  10c3b4:	48 c7 44 24 08 00 00 	movq   $0x0,0x8(%rsp)
  10c3bb:	00 00 
  10c3bd:	48 8b 44 24 08       	mov    0x8(%rsp),%rax
  10c3c2:	48 8b 54 24 10       	mov    0x10(%rsp),%rdx
  10c3c7:	48 83 c4 68          	add    $0x68,%rsp
  10c3cb:	c3                   	retq   
  10c3cc:	cc                   	int3   
  10c3cd:	cc                   	int3   
  10c3ce:	cc                   	int3   
  10c3cf:	cc                   	int3   

000000000010c3d0 <_ZN91_$LT$core..slice..iter..Iter$LT$T$GT$$u20$as$u20$core..iter..traits..iterator..Iterator$GT$4next17h0bd4cd2ea244217eE>:
  10c3d0:	48 83 ec 68          	sub    $0x68,%rsp
  10c3d4:	48 89 7c 24 10       	mov    %rdi,0x10(%rsp)
  10c3d9:	48 89 7c 24 28       	mov    %rdi,0x28(%rsp)
  10c3de:	b0 01                	mov    $0x1,%al
  10c3e0:	a8 01                	test   $0x1,%al
  10c3e2:	75 08                	jne    10c3ec <_ZN91_$LT$core..slice..iter..Iter$LT$T$GT$$u20$as$u20$core..iter..traits..iterator..Iterator$GT$4next17h0bd4cd2ea244217eE+0x1c>
  10c3e4:	31 c0                	xor    %eax,%eax
  10c3e6:	a8 01                	test   $0x1,%al
  10c3e8:	75 2e                	jne    10c418 <_ZN91_$LT$core..slice..iter..Iter$LT$T$GT$$u20$as$u20$core..iter..traits..iterator..Iterator$GT$4next17h0bd4cd2ea244217eE+0x48>
  10c3ea:	eb 10                	jmp    10c3fc <_ZN91_$LT$core..slice..iter..Iter$LT$T$GT$$u20$as$u20$core..iter..traits..iterator..Iterator$GT$4next17h0bd4cd2ea244217eE+0x2c>
  10c3ec:	48 8b 44 24 10       	mov    0x10(%rsp),%rax
  10c3f1:	48 8b 78 08          	mov    0x8(%rax),%rdi
  10c3f5:	e8 46 e9 ff ff       	callq  10ad40 <_ZN4core3ptr9const_ptr33_$LT$impl$u20$$BP$const$u20$T$GT$7is_null17h6dea5e0d9a48698eE>
  10c3fa:	eb e8                	jmp    10c3e4 <_ZN91_$LT$core..slice..iter..Iter$LT$T$GT$$u20$as$u20$core..iter..traits..iterator..Iterator$GT$4next17h0bd4cd2ea244217eE+0x14>
  10c3fc:	48 8b 4c 24 10       	mov    0x10(%rsp),%rcx
  10c401:	48 8b 01             	mov    (%rcx),%rax
  10c404:	48 89 44 24 30       	mov    %rax,0x30(%rsp)
  10c409:	48 3b 41 08          	cmp    0x8(%rcx),%rax
  10c40d:	0f 94 c0             	sete   %al
  10c410:	24 01                	and    $0x1,%al
  10c412:	88 44 24 27          	mov    %al,0x27(%rsp)
  10c416:	eb 20                	jmp    10c438 <_ZN91_$LT$core..slice..iter..Iter$LT$T$GT$$u20$as$u20$core..iter..traits..iterator..Iterator$GT$4next17h0bd4cd2ea244217eE+0x68>
  10c418:	48 8b 44 24 10       	mov    0x10(%rsp),%rax
  10c41d:	48 8b 40 08          	mov    0x8(%rax),%rax
  10c421:	48 89 44 24 38       	mov    %rax,0x38(%rsp)
  10c426:	48 89 44 24 40       	mov    %rax,0x40(%rsp)
  10c42b:	48 83 f8 00          	cmp    $0x0,%rax
  10c42f:	0f 94 c0             	sete   %al
  10c432:	24 01                	and    $0x1,%al
  10c434:	88 44 24 27          	mov    %al,0x27(%rsp)
  10c438:	f6 44 24 27 01       	testb  $0x1,0x27(%rsp)
  10c43d:	75 49                	jne    10c488 <_ZN91_$LT$core..slice..iter..Iter$LT$T$GT$$u20$as$u20$core..iter..traits..iterator..Iterator$GT$4next17h0bd4cd2ea244217eE+0xb8>
  10c43f:	48 8b 44 24 10       	mov    0x10(%rsp),%rax
  10c444:	48 89 44 24 48       	mov    %rax,0x48(%rsp)
  10c449:	48 c7 44 24 50 01 00 	movq   $0x1,0x50(%rsp)
  10c450:	00 00 
  10c452:	48 8b 08             	mov    (%rax),%rcx
  10c455:	48 89 4c 24 08       	mov    %rcx,0x8(%rsp)
  10c45a:	48 89 4c 24 58       	mov    %rcx,0x58(%rsp)
  10c45f:	48 8b 38             	mov    (%rax),%rdi
  10c462:	be 01 00 00 00       	mov    $0x1,%esi
  10c467:	e8 b4 08 00 00       	callq  10cd20 <_ZN4core3ptr8non_null16NonNull$LT$T$GT$3add17ha4156bc4f7859b65E>
  10c46c:	48 8b 4c 24 10       	mov    0x10(%rsp),%rcx
  10c471:	48 89 c2             	mov    %rax,%rdx
  10c474:	48 8b 44 24 08       	mov    0x8(%rsp),%rax
  10c479:	48 89 11             	mov    %rdx,(%rcx)
  10c47c:	48 89 44 24 60       	mov    %rax,0x60(%rsp)
  10c481:	48 89 44 24 18       	mov    %rax,0x18(%rsp)
  10c486:	eb 09                	jmp    10c491 <_ZN91_$LT$core..slice..iter..Iter$LT$T$GT$$u20$as$u20$core..iter..traits..iterator..Iterator$GT$4next17h0bd4cd2ea244217eE+0xc1>
  10c488:	48 c7 44 24 18 00 00 	movq   $0x0,0x18(%rsp)
  10c48f:	00 00 
  10c491:	48 8b 44 24 18       	mov    0x18(%rsp),%rax
  10c496:	48 83 c4 68          	add    $0x68,%rsp
  10c49a:	c3                   	retq   
  10c49b:	cc                   	int3   
  10c49c:	cc                   	int3   
  10c49d:	cc                   	int3   
  10c49e:	cc                   	int3   
  10c49f:	cc                   	int3   

000000000010c4a0 <_ZN91_$LT$core..slice..iter..Iter$LT$T$GT$$u20$as$u20$core..iter..traits..iterator..Iterator$GT$4next17h500ae09b351b41caE>:
  10c4a0:	48 83 ec 68          	sub    $0x68,%rsp
  10c4a4:	48 89 7c 24 10       	mov    %rdi,0x10(%rsp)
  10c4a9:	48 89 7c 24 28       	mov    %rdi,0x28(%rsp)
  10c4ae:	b0 01                	mov    $0x1,%al
  10c4b0:	a8 01                	test   $0x1,%al
  10c4b2:	75 08                	jne    10c4bc <_ZN91_$LT$core..slice..iter..Iter$LT$T$GT$$u20$as$u20$core..iter..traits..iterator..Iterator$GT$4next17h500ae09b351b41caE+0x1c>
  10c4b4:	31 c0                	xor    %eax,%eax
  10c4b6:	a8 01                	test   $0x1,%al
  10c4b8:	75 2e                	jne    10c4e8 <_ZN91_$LT$core..slice..iter..Iter$LT$T$GT$$u20$as$u20$core..iter..traits..iterator..Iterator$GT$4next17h500ae09b351b41caE+0x48>
  10c4ba:	eb 10                	jmp    10c4cc <_ZN91_$LT$core..slice..iter..Iter$LT$T$GT$$u20$as$u20$core..iter..traits..iterator..Iterator$GT$4next17h500ae09b351b41caE+0x2c>
  10c4bc:	48 8b 44 24 10       	mov    0x10(%rsp),%rax
  10c4c1:	48 8b 78 08          	mov    0x8(%rax),%rdi
  10c4c5:	e8 36 7e ff ff       	callq  104300 <_ZN4core3ptr9const_ptr33_$LT$impl$u20$$BP$const$u20$T$GT$7is_null17he078fccb73f674c5E>
  10c4ca:	eb e8                	jmp    10c4b4 <_ZN91_$LT$core..slice..iter..Iter$LT$T$GT$$u20$as$u20$core..iter..traits..iterator..Iterator$GT$4next17h500ae09b351b41caE+0x14>
  10c4cc:	48 8b 4c 24 10       	mov    0x10(%rsp),%rcx
  10c4d1:	48 8b 01             	mov    (%rcx),%rax
  10c4d4:	48 89 44 24 30       	mov    %rax,0x30(%rsp)
  10c4d9:	48 3b 41 08          	cmp    0x8(%rcx),%rax
  10c4dd:	0f 94 c0             	sete   %al
  10c4e0:	24 01                	and    $0x1,%al
  10c4e2:	88 44 24 27          	mov    %al,0x27(%rsp)
  10c4e6:	eb 20                	jmp    10c508 <_ZN91_$LT$core..slice..iter..Iter$LT$T$GT$$u20$as$u20$core..iter..traits..iterator..Iterator$GT$4next17h500ae09b351b41caE+0x68>
  10c4e8:	48 8b 44 24 10       	mov    0x10(%rsp),%rax
  10c4ed:	48 8b 40 08          	mov    0x8(%rax),%rax
  10c4f1:	48 89 44 24 38       	mov    %rax,0x38(%rsp)
  10c4f6:	48 89 44 24 40       	mov    %rax,0x40(%rsp)
  10c4fb:	48 83 f8 00          	cmp    $0x0,%rax
  10c4ff:	0f 94 c0             	sete   %al
  10c502:	24 01                	and    $0x1,%al
  10c504:	88 44 24 27          	mov    %al,0x27(%rsp)
  10c508:	f6 44 24 27 01       	testb  $0x1,0x27(%rsp)
  10c50d:	75 49                	jne    10c558 <_ZN91_$LT$core..slice..iter..Iter$LT$T$GT$$u20$as$u20$core..iter..traits..iterator..Iterator$GT$4next17h500ae09b351b41caE+0xb8>
  10c50f:	48 8b 44 24 10       	mov    0x10(%rsp),%rax
  10c514:	48 89 44 24 48       	mov    %rax,0x48(%rsp)
  10c519:	48 c7 44 24 50 01 00 	movq   $0x1,0x50(%rsp)
  10c520:	00 00 
  10c522:	48 8b 08             	mov    (%rax),%rcx
  10c525:	48 89 4c 24 08       	mov    %rcx,0x8(%rsp)
  10c52a:	48 89 4c 24 58       	mov    %rcx,0x58(%rsp)
  10c52f:	48 8b 38             	mov    (%rax),%rdi
  10c532:	be 01 00 00 00       	mov    $0x1,%esi
  10c537:	e8 14 08 00 00       	callq  10cd50 <_ZN4core3ptr8non_null16NonNull$LT$T$GT$3add17hed72f7d669081947E>
  10c53c:	48 8b 4c 24 10       	mov    0x10(%rsp),%rcx
  10c541:	48 89 c2             	mov    %rax,%rdx
  10c544:	48 8b 44 24 08       	mov    0x8(%rsp),%rax
  10c549:	48 89 11             	mov    %rdx,(%rcx)
  10c54c:	48 89 44 24 60       	mov    %rax,0x60(%rsp)
  10c551:	48 89 44 24 18       	mov    %rax,0x18(%rsp)
  10c556:	eb 09                	jmp    10c561 <_ZN91_$LT$core..slice..iter..Iter$LT$T$GT$$u20$as$u20$core..iter..traits..iterator..Iterator$GT$4next17h500ae09b351b41caE+0xc1>
  10c558:	48 c7 44 24 18 00 00 	movq   $0x0,0x18(%rsp)
  10c55f:	00 00 
  10c561:	48 8b 44 24 18       	mov    0x18(%rsp),%rax
  10c566:	48 83 c4 68          	add    $0x68,%rsp
  10c56a:	c3                   	retq   
  10c56b:	cc                   	int3   
  10c56c:	cc                   	int3   
  10c56d:	cc                   	int3   
  10c56e:	cc                   	int3   
  10c56f:	cc                   	int3   

000000000010c570 <_ZN91_$LT$core..slice..iter..Iter$LT$T$GT$$u20$as$u20$core..iter..traits..iterator..Iterator$GT$4next17h582a9fba863d25a1E>:
  10c570:	48 83 ec 68          	sub    $0x68,%rsp
  10c574:	48 89 7c 24 10       	mov    %rdi,0x10(%rsp)
  10c579:	48 89 7c 24 28       	mov    %rdi,0x28(%rsp)
  10c57e:	b0 01                	mov    $0x1,%al
  10c580:	a8 01                	test   $0x1,%al
  10c582:	75 08                	jne    10c58c <_ZN91_$LT$core..slice..iter..Iter$LT$T$GT$$u20$as$u20$core..iter..traits..iterator..Iterator$GT$4next17h582a9fba863d25a1E+0x1c>
  10c584:	31 c0                	xor    %eax,%eax
  10c586:	a8 01                	test   $0x1,%al
  10c588:	75 2e                	jne    10c5b8 <_ZN91_$LT$core..slice..iter..Iter$LT$T$GT$$u20$as$u20$core..iter..traits..iterator..Iterator$GT$4next17h582a9fba863d25a1E+0x48>
  10c58a:	eb 10                	jmp    10c59c <_ZN91_$LT$core..slice..iter..Iter$LT$T$GT$$u20$as$u20$core..iter..traits..iterator..Iterator$GT$4next17h582a9fba863d25a1E+0x2c>
  10c58c:	48 8b 44 24 10       	mov    0x10(%rsp),%rax
  10c591:	48 8b 78 08          	mov    0x8(%rax),%rdi
  10c595:	e8 d6 e7 ff ff       	callq  10ad70 <_ZN4core3ptr9const_ptr33_$LT$impl$u20$$BP$const$u20$T$GT$7is_null17h7a7e980da443e981E>
  10c59a:	eb e8                	jmp    10c584 <_ZN91_$LT$core..slice..iter..Iter$LT$T$GT$$u20$as$u20$core..iter..traits..iterator..Iterator$GT$4next17h582a9fba863d25a1E+0x14>
  10c59c:	48 8b 4c 24 10       	mov    0x10(%rsp),%rcx
  10c5a1:	48 8b 01             	mov    (%rcx),%rax
  10c5a4:	48 89 44 24 30       	mov    %rax,0x30(%rsp)
  10c5a9:	48 3b 41 08          	cmp    0x8(%rcx),%rax
  10c5ad:	0f 94 c0             	sete   %al
  10c5b0:	24 01                	and    $0x1,%al
  10c5b2:	88 44 24 27          	mov    %al,0x27(%rsp)
  10c5b6:	eb 20                	jmp    10c5d8 <_ZN91_$LT$core..slice..iter..Iter$LT$T$GT$$u20$as$u20$core..iter..traits..iterator..Iterator$GT$4next17h582a9fba863d25a1E+0x68>
  10c5b8:	48 8b 44 24 10       	mov    0x10(%rsp),%rax
  10c5bd:	48 8b 40 08          	mov    0x8(%rax),%rax
  10c5c1:	48 89 44 24 38       	mov    %rax,0x38(%rsp)
  10c5c6:	48 89 44 24 40       	mov    %rax,0x40(%rsp)
  10c5cb:	48 83 f8 00          	cmp    $0x0,%rax
  10c5cf:	0f 94 c0             	sete   %al
  10c5d2:	24 01                	and    $0x1,%al
  10c5d4:	88 44 24 27          	mov    %al,0x27(%rsp)
  10c5d8:	f6 44 24 27 01       	testb  $0x1,0x27(%rsp)
  10c5dd:	75 49                	jne    10c628 <_ZN91_$LT$core..slice..iter..Iter$LT$T$GT$$u20$as$u20$core..iter..traits..iterator..Iterator$GT$4next17h582a9fba863d25a1E+0xb8>
  10c5df:	48 8b 44 24 10       	mov    0x10(%rsp),%rax
  10c5e4:	48 89 44 24 48       	mov    %rax,0x48(%rsp)
  10c5e9:	48 c7 44 24 50 01 00 	movq   $0x1,0x50(%rsp)
  10c5f0:	00 00 
  10c5f2:	48 8b 08             	mov    (%rax),%rcx
  10c5f5:	48 89 4c 24 08       	mov    %rcx,0x8(%rsp)
  10c5fa:	48 89 4c 24 58       	mov    %rcx,0x58(%rsp)
  10c5ff:	48 8b 38             	mov    (%rax),%rdi
  10c602:	be 01 00 00 00       	mov    $0x1,%esi
  10c607:	e8 84 06 00 00       	callq  10cc90 <_ZN4core3ptr8non_null16NonNull$LT$T$GT$3add17h154c0fe2382084f8E>
  10c60c:	48 8b 4c 24 10       	mov    0x10(%rsp),%rcx
  10c611:	48 89 c2             	mov    %rax,%rdx
  10c614:	48 8b 44 24 08       	mov    0x8(%rsp),%rax
  10c619:	48 89 11             	mov    %rdx,(%rcx)
  10c61c:	48 89 44 24 60       	mov    %rax,0x60(%rsp)
  10c621:	48 89 44 24 18       	mov    %rax,0x18(%rsp)
  10c626:	eb 09                	jmp    10c631 <_ZN91_$LT$core..slice..iter..Iter$LT$T$GT$$u20$as$u20$core..iter..traits..iterator..Iterator$GT$4next17h582a9fba863d25a1E+0xc1>
  10c628:	48 c7 44 24 18 00 00 	movq   $0x0,0x18(%rsp)
  10c62f:	00 00 
  10c631:	48 8b 44 24 18       	mov    0x18(%rsp),%rax
  10c636:	48 83 c4 68          	add    $0x68,%rsp
  10c63a:	c3                   	retq   
  10c63b:	cc                   	int3   
  10c63c:	cc                   	int3   
  10c63d:	cc                   	int3   
  10c63e:	cc                   	int3   
  10c63f:	cc                   	int3   

000000000010c640 <_ZN91_$LT$core..slice..iter..Iter$LT$T$GT$$u20$as$u20$core..iter..traits..iterator..Iterator$GT$4next17hadf447fe4e457bdcE>:
  10c640:	48 83 ec 68          	sub    $0x68,%rsp
  10c644:	48 89 7c 24 10       	mov    %rdi,0x10(%rsp)
  10c649:	48 89 7c 24 28       	mov    %rdi,0x28(%rsp)
  10c64e:	b0 01                	mov    $0x1,%al
  10c650:	a8 01                	test   $0x1,%al
  10c652:	75 08                	jne    10c65c <_ZN91_$LT$core..slice..iter..Iter$LT$T$GT$$u20$as$u20$core..iter..traits..iterator..Iterator$GT$4next17hadf447fe4e457bdcE+0x1c>
  10c654:	31 c0                	xor    %eax,%eax
  10c656:	a8 01                	test   $0x1,%al
  10c658:	75 2e                	jne    10c688 <_ZN91_$LT$core..slice..iter..Iter$LT$T$GT$$u20$as$u20$core..iter..traits..iterator..Iterator$GT$4next17hadf447fe4e457bdcE+0x48>
  10c65a:	eb 10                	jmp    10c66c <_ZN91_$LT$core..slice..iter..Iter$LT$T$GT$$u20$as$u20$core..iter..traits..iterator..Iterator$GT$4next17hadf447fe4e457bdcE+0x2c>
  10c65c:	48 8b 44 24 10       	mov    0x10(%rsp),%rax
  10c661:	48 8b 78 08          	mov    0x8(%rax),%rdi
  10c665:	e8 36 e7 ff ff       	callq  10ada0 <_ZN4core3ptr9const_ptr33_$LT$impl$u20$$BP$const$u20$T$GT$7is_null17hcc6849e03d468a61E>
  10c66a:	eb e8                	jmp    10c654 <_ZN91_$LT$core..slice..iter..Iter$LT$T$GT$$u20$as$u20$core..iter..traits..iterator..Iterator$GT$4next17hadf447fe4e457bdcE+0x14>
  10c66c:	48 8b 4c 24 10       	mov    0x10(%rsp),%rcx
  10c671:	48 8b 01             	mov    (%rcx),%rax
  10c674:	48 89 44 24 30       	mov    %rax,0x30(%rsp)
  10c679:	48 3b 41 08          	cmp    0x8(%rcx),%rax
  10c67d:	0f 94 c0             	sete   %al
  10c680:	24 01                	and    $0x1,%al
  10c682:	88 44 24 27          	mov    %al,0x27(%rsp)
  10c686:	eb 20                	jmp    10c6a8 <_ZN91_$LT$core..slice..iter..Iter$LT$T$GT$$u20$as$u20$core..iter..traits..iterator..Iterator$GT$4next17hadf447fe4e457bdcE+0x68>
  10c688:	48 8b 44 24 10       	mov    0x10(%rsp),%rax
  10c68d:	48 8b 40 08          	mov    0x8(%rax),%rax
  10c691:	48 89 44 24 38       	mov    %rax,0x38(%rsp)
  10c696:	48 89 44 24 40       	mov    %rax,0x40(%rsp)
  10c69b:	48 83 f8 00          	cmp    $0x0,%rax
  10c69f:	0f 94 c0             	sete   %al
  10c6a2:	24 01                	and    $0x1,%al
  10c6a4:	88 44 24 27          	mov    %al,0x27(%rsp)
  10c6a8:	f6 44 24 27 01       	testb  $0x1,0x27(%rsp)
  10c6ad:	75 49                	jne    10c6f8 <_ZN91_$LT$core..slice..iter..Iter$LT$T$GT$$u20$as$u20$core..iter..traits..iterator..Iterator$GT$4next17hadf447fe4e457bdcE+0xb8>
  10c6af:	48 8b 44 24 10       	mov    0x10(%rsp),%rax
  10c6b4:	48 89 44 24 48       	mov    %rax,0x48(%rsp)
  10c6b9:	48 c7 44 24 50 01 00 	movq   $0x1,0x50(%rsp)
  10c6c0:	00 00 
  10c6c2:	48 8b 08             	mov    (%rax),%rcx
  10c6c5:	48 89 4c 24 08       	mov    %rcx,0x8(%rsp)
  10c6ca:	48 89 4c 24 58       	mov    %rcx,0x58(%rsp)
  10c6cf:	48 8b 38             	mov    (%rax),%rdi
  10c6d2:	be 01 00 00 00       	mov    $0x1,%esi
  10c6d7:	e8 e4 05 00 00       	callq  10ccc0 <_ZN4core3ptr8non_null16NonNull$LT$T$GT$3add17h23766ce66cfaaf71E>
  10c6dc:	48 8b 4c 24 10       	mov    0x10(%rsp),%rcx
  10c6e1:	48 89 c2             	mov    %rax,%rdx
  10c6e4:	48 8b 44 24 08       	mov    0x8(%rsp),%rax
  10c6e9:	48 89 11             	mov    %rdx,(%rcx)
  10c6ec:	48 89 44 24 60       	mov    %rax,0x60(%rsp)
  10c6f1:	48 89 44 24 18       	mov    %rax,0x18(%rsp)
  10c6f6:	eb 09                	jmp    10c701 <_ZN91_$LT$core..slice..iter..Iter$LT$T$GT$$u20$as$u20$core..iter..traits..iterator..Iterator$GT$4next17hadf447fe4e457bdcE+0xc1>
  10c6f8:	48 c7 44 24 18 00 00 	movq   $0x0,0x18(%rsp)
  10c6ff:	00 00 
  10c701:	48 8b 44 24 18       	mov    0x18(%rsp),%rax
  10c706:	48 83 c4 68          	add    $0x68,%rsp
  10c70a:	c3                   	retq   
  10c70b:	cc                   	int3   
  10c70c:	cc                   	int3   
  10c70d:	cc                   	int3   
  10c70e:	cc                   	int3   
  10c70f:	cc                   	int3   

000000000010c710 <_ZN91_$LT$core..slice..iter..Iter$LT$T$GT$$u20$as$u20$core..iter..traits..iterator..Iterator$GT$4next17hb427a95c8c4e7d23E>:
  10c710:	48 83 ec 68          	sub    $0x68,%rsp
  10c714:	48 89 7c 24 10       	mov    %rdi,0x10(%rsp)
  10c719:	48 89 7c 24 28       	mov    %rdi,0x28(%rsp)
  10c71e:	b0 01                	mov    $0x1,%al
  10c720:	a8 01                	test   $0x1,%al
  10c722:	75 08                	jne    10c72c <_ZN91_$LT$core..slice..iter..Iter$LT$T$GT$$u20$as$u20$core..iter..traits..iterator..Iterator$GT$4next17hb427a95c8c4e7d23E+0x1c>
  10c724:	31 c0                	xor    %eax,%eax
  10c726:	a8 01                	test   $0x1,%al
  10c728:	75 2e                	jne    10c758 <_ZN91_$LT$core..slice..iter..Iter$LT$T$GT$$u20$as$u20$core..iter..traits..iterator..Iterator$GT$4next17hb427a95c8c4e7d23E+0x48>
  10c72a:	eb 10                	jmp    10c73c <_ZN91_$LT$core..slice..iter..Iter$LT$T$GT$$u20$as$u20$core..iter..traits..iterator..Iterator$GT$4next17hb427a95c8c4e7d23E+0x2c>
  10c72c:	48 8b 44 24 10       	mov    0x10(%rsp),%rax
  10c731:	48 8b 78 08          	mov    0x8(%rax),%rdi
  10c735:	e8 f6 7b ff ff       	callq  104330 <_ZN4core3ptr9const_ptr33_$LT$impl$u20$$BP$const$u20$T$GT$7is_null17hea1259b1b25dec97E>
  10c73a:	eb e8                	jmp    10c724 <_ZN91_$LT$core..slice..iter..Iter$LT$T$GT$$u20$as$u20$core..iter..traits..iterator..Iterator$GT$4next17hb427a95c8c4e7d23E+0x14>
  10c73c:	48 8b 4c 24 10       	mov    0x10(%rsp),%rcx
  10c741:	48 8b 01             	mov    (%rcx),%rax
  10c744:	48 89 44 24 30       	mov    %rax,0x30(%rsp)
  10c749:	48 3b 41 08          	cmp    0x8(%rcx),%rax
  10c74d:	0f 94 c0             	sete   %al
  10c750:	24 01                	and    $0x1,%al
  10c752:	88 44 24 27          	mov    %al,0x27(%rsp)
  10c756:	eb 20                	jmp    10c778 <_ZN91_$LT$core..slice..iter..Iter$LT$T$GT$$u20$as$u20$core..iter..traits..iterator..Iterator$GT$4next17hb427a95c8c4e7d23E+0x68>
  10c758:	48 8b 44 24 10       	mov    0x10(%rsp),%rax
  10c75d:	48 8b 40 08          	mov    0x8(%rax),%rax
  10c761:	48 89 44 24 38       	mov    %rax,0x38(%rsp)
  10c766:	48 89 44 24 40       	mov    %rax,0x40(%rsp)
  10c76b:	48 83 f8 00          	cmp    $0x0,%rax
  10c76f:	0f 94 c0             	sete   %al
  10c772:	24 01                	and    $0x1,%al
  10c774:	88 44 24 27          	mov    %al,0x27(%rsp)
  10c778:	f6 44 24 27 01       	testb  $0x1,0x27(%rsp)
  10c77d:	75 49                	jne    10c7c8 <_ZN91_$LT$core..slice..iter..Iter$LT$T$GT$$u20$as$u20$core..iter..traits..iterator..Iterator$GT$4next17hb427a95c8c4e7d23E+0xb8>
  10c77f:	48 8b 44 24 10       	mov    0x10(%rsp),%rax
  10c784:	48 89 44 24 48       	mov    %rax,0x48(%rsp)
  10c789:	48 c7 44 24 50 01 00 	movq   $0x1,0x50(%rsp)
  10c790:	00 00 
  10c792:	48 8b 08             	mov    (%rax),%rcx
  10c795:	48 89 4c 24 08       	mov    %rcx,0x8(%rsp)
  10c79a:	48 89 4c 24 58       	mov    %rcx,0x58(%rsp)
  10c79f:	48 8b 38             	mov    (%rax),%rdi
  10c7a2:	be 01 00 00 00       	mov    $0x1,%esi
  10c7a7:	e8 44 05 00 00       	callq  10ccf0 <_ZN4core3ptr8non_null16NonNull$LT$T$GT$3add17h337ecf6caa150cd4E>
  10c7ac:	48 8b 4c 24 10       	mov    0x10(%rsp),%rcx
  10c7b1:	48 89 c2             	mov    %rax,%rdx
  10c7b4:	48 8b 44 24 08       	mov    0x8(%rsp),%rax
  10c7b9:	48 89 11             	mov    %rdx,(%rcx)
  10c7bc:	48 89 44 24 60       	mov    %rax,0x60(%rsp)
  10c7c1:	48 89 44 24 18       	mov    %rax,0x18(%rsp)
  10c7c6:	eb 09                	jmp    10c7d1 <_ZN91_$LT$core..slice..iter..Iter$LT$T$GT$$u20$as$u20$core..iter..traits..iterator..Iterator$GT$4next17hb427a95c8c4e7d23E+0xc1>
  10c7c8:	48 c7 44 24 18 00 00 	movq   $0x0,0x18(%rsp)
  10c7cf:	00 00 
  10c7d1:	48 8b 44 24 18       	mov    0x18(%rsp),%rax
  10c7d6:	48 83 c4 68          	add    $0x68,%rsp
  10c7da:	c3                   	retq   
  10c7db:	cc                   	int3   
  10c7dc:	cc                   	int3   
  10c7dd:	cc                   	int3   
  10c7de:	cc                   	int3   
  10c7df:	cc                   	int3   

000000000010c7e0 <_ZN91_$LT$core..slice..iter..Iter$LT$T$GT$$u20$as$u20$core..iter..traits..iterator..Iterator$GT$4fold17h1d8b314c2d3ca8d5E>:
  10c7e0:	48 81 ec c8 00 00 00 	sub    $0xc8,%rsp
  10c7e7:	48 89 54 24 10       	mov    %rdx,0x10(%rsp)
  10c7ec:	48 89 74 24 18       	mov    %rsi,0x18(%rsp)
  10c7f1:	48 89 7c 24 20       	mov    %rdi,0x20(%rsp)
  10c7f6:	48 89 7c 24 68       	mov    %rdi,0x68(%rsp)
  10c7fb:	48 89 74 24 70       	mov    %rsi,0x70(%rsp)
  10c800:	48 89 54 24 78       	mov    %rdx,0x78(%rsp)
  10c805:	31 c0                	xor    %eax,%eax
  10c807:	a8 01                	test   $0x1,%al
  10c809:	75 20                	jne    10c82b <_ZN91_$LT$core..slice..iter..Iter$LT$T$GT$$u20$as$u20$core..iter..traits..iterator..Iterator$GT$4fold17h1d8b314c2d3ca8d5E+0x4b>
  10c80b:	48 8b 44 24 20       	mov    0x20(%rsp),%rax
  10c810:	48 8b 4c 24 18       	mov    0x18(%rsp),%rcx
  10c815:	48 89 84 24 90 00 00 	mov    %rax,0x90(%rsp)
  10c81c:	00 
  10c81d:	48 39 c8             	cmp    %rcx,%rax
  10c820:	0f 94 c0             	sete   %al
  10c823:	24 01                	and    $0x1,%al
  10c825:	88 44 24 3f          	mov    %al,0x3f(%rsp)
  10c829:	eb 22                	jmp    10c84d <_ZN91_$LT$core..slice..iter..Iter$LT$T$GT$$u20$as$u20$core..iter..traits..iterator..Iterator$GT$4fold17h1d8b314c2d3ca8d5E+0x6d>
  10c82b:	48 8b 44 24 18       	mov    0x18(%rsp),%rax
  10c830:	48 89 84 24 a8 00 00 	mov    %rax,0xa8(%rsp)
  10c837:	00 
  10c838:	48 89 84 24 b0 00 00 	mov    %rax,0xb0(%rsp)
  10c83f:	00 
  10c840:	48 83 f8 00          	cmp    $0x0,%rax
  10c844:	0f 94 c0             	sete   %al
  10c847:	24 01                	and    $0x1,%al
  10c849:	88 44 24 3f          	mov    %al,0x3f(%rsp)
  10c84d:	f6 44 24 3f 01       	testb  $0x1,0x3f(%rsp)
  10c852:	75 1b                	jne    10c86f <_ZN91_$LT$core..slice..iter..Iter$LT$T$GT$$u20$as$u20$core..iter..traits..iterator..Iterator$GT$4fold17h1d8b314c2d3ca8d5E+0x8f>
  10c854:	48 8b 44 24 10       	mov    0x10(%rsp),%rax
  10c859:	48 89 44 24 40       	mov    %rax,0x40(%rsp)
  10c85e:	48 c7 44 24 48 00 00 	movq   $0x0,0x48(%rsp)
  10c865:	00 00 
  10c867:	31 c0                	xor    %eax,%eax
  10c869:	a8 01                	test   $0x1,%al
  10c86b:	75 2f                	jne    10c89c <_ZN91_$LT$core..slice..iter..Iter$LT$T$GT$$u20$as$u20$core..iter..traits..iterator..Iterator$GT$4fold17h1d8b314c2d3ca8d5E+0xbc>
  10c86d:	eb 0f                	jmp    10c87e <_ZN91_$LT$core..slice..iter..Iter$LT$T$GT$$u20$as$u20$core..iter..traits..iterator..Iterator$GT$4fold17h1d8b314c2d3ca8d5E+0x9e>
  10c86f:	48 8b 44 24 10       	mov    0x10(%rsp),%rax
  10c874:	48 89 44 24 30       	mov    %rax,0x30(%rsp)
  10c879:	e9 b9 00 00 00       	jmpq   10c937 <_ZN91_$LT$core..slice..iter..Iter$LT$T$GT$$u20$as$u20$core..iter..traits..iterator..Iterator$GT$4fold17h1d8b314c2d3ca8d5E+0x157>
  10c87e:	48 8b 74 24 20       	mov    0x20(%rsp),%rsi
  10c883:	48 8b 7c 24 18       	mov    0x18(%rsp),%rdi
  10c888:	48 89 b4 24 88 00 00 	mov    %rsi,0x88(%rsp)
  10c88f:	00 
  10c890:	e8 6b e5 ff ff       	callq  10ae00 <_ZN4core3ptr9const_ptr33_$LT$impl$u20$$BP$const$u20$T$GT$7sub_ptr17hbb5f2b6c27645241E>
  10c895:	48 89 44 24 50       	mov    %rax,0x50(%rsp)
  10c89a:	eb 1a                	jmp    10c8b6 <_ZN91_$LT$core..slice..iter..Iter$LT$T$GT$$u20$as$u20$core..iter..traits..iterator..Iterator$GT$4fold17h1d8b314c2d3ca8d5E+0xd6>
  10c89c:	48 8b 44 24 18       	mov    0x18(%rsp),%rax
  10c8a1:	48 89 84 24 98 00 00 	mov    %rax,0x98(%rsp)
  10c8a8:	00 
  10c8a9:	48 89 84 24 a0 00 00 	mov    %rax,0xa0(%rsp)
  10c8b0:	00 
  10c8b1:	48 89 44 24 50       	mov    %rax,0x50(%rsp)
  10c8b6:	48 8b 7c 24 20       	mov    0x20(%rsp),%rdi
  10c8bb:	48 8b 44 24 40       	mov    0x40(%rsp),%rax
  10c8c0:	48 89 44 24 08       	mov    %rax,0x8(%rsp)
  10c8c5:	48 8b 74 24 48       	mov    0x48(%rsp),%rsi
  10c8ca:	e8 f1 03 00 00       	callq  10ccc0 <_ZN4core3ptr8non_null16NonNull$LT$T$GT$3add17h23766ce66cfaaf71E>
  10c8cf:	48 8b 4c 24 08       	mov    0x8(%rsp),%rcx
  10c8d4:	48 89 84 24 80 00 00 	mov    %rax,0x80(%rsp)
  10c8db:	00 
  10c8dc:	48 89 4c 24 58       	mov    %rcx,0x58(%rsp)
  10c8e1:	48 89 44 24 60       	mov    %rax,0x60(%rsp)
  10c8e6:	48 8b 74 24 58       	mov    0x58(%rsp),%rsi
  10c8eb:	48 8b 54 24 60       	mov    0x60(%rsp),%rdx
  10c8f0:	48 8d 7c 24 28       	lea    0x28(%rsp),%rdi
  10c8f5:	e8 26 9f ff ff       	callq  106820 <_ZN4core4iter8adapters3map8map_fold28_$u7b$$u7b$closure$u7d$$u7d$17hd69b99169413aa80E>
  10c8fa:	48 89 44 24 40       	mov    %rax,0x40(%rsp)
  10c8ff:	48 8b 44 24 48       	mov    0x48(%rsp),%rax
  10c904:	48 89 84 24 b8 00 00 	mov    %rax,0xb8(%rsp)
  10c90b:	00 
  10c90c:	48 c7 84 24 c0 00 00 	movq   $0x1,0xc0(%rsp)
  10c913:	00 01 00 00 00 
  10c918:	48 83 c0 01          	add    $0x1,%rax
  10c91c:	48 89 44 24 48       	mov    %rax,0x48(%rsp)
  10c921:	48 8b 44 24 48       	mov    0x48(%rsp),%rax
  10c926:	48 3b 44 24 50       	cmp    0x50(%rsp),%rax
  10c92b:	75 89                	jne    10c8b6 <_ZN91_$LT$core..slice..iter..Iter$LT$T$GT$$u20$as$u20$core..iter..traits..iterator..Iterator$GT$4fold17h1d8b314c2d3ca8d5E+0xd6>
  10c92d:	48 8b 44 24 40       	mov    0x40(%rsp),%rax
  10c932:	48 89 44 24 30       	mov    %rax,0x30(%rsp)
  10c937:	48 8b 44 24 30       	mov    0x30(%rsp),%rax
  10c93c:	48 81 c4 c8 00 00 00 	add    $0xc8,%rsp
  10c943:	c3                   	retq   
  10c944:	cc                   	int3   
  10c945:	cc                   	int3   
  10c946:	cc                   	int3   
  10c947:	cc                   	int3   
  10c948:	cc                   	int3   
  10c949:	cc                   	int3   
  10c94a:	cc                   	int3   
  10c94b:	cc                   	int3   
  10c94c:	cc                   	int3   
  10c94d:	cc                   	int3   
  10c94e:	cc                   	int3   
  10c94f:	cc                   	int3   

000000000010c950 <_ZN109_$LT$core..slice..iter..IterMut$LT$T$GT$$u20$as$u20$core..iter..traits..double_ended..DoubleEndedIterator$GT$9next_back17h01b5dc8224627c40E>:
  10c950:	48 81 ec 88 00 00 00 	sub    $0x88,%rsp
  10c957:	48 89 3c 24          	mov    %rdi,(%rsp)
  10c95b:	48 89 7c 24 18       	mov    %rdi,0x18(%rsp)
  10c960:	b0 01                	mov    $0x1,%al
  10c962:	a8 01                	test   $0x1,%al
  10c964:	75 08                	jne    10c96e <_ZN109_$LT$core..slice..iter..IterMut$LT$T$GT$$u20$as$u20$core..iter..traits..double_ended..DoubleEndedIterator$GT$9next_back17h01b5dc8224627c40E+0x1e>
  10c966:	31 c0                	xor    %eax,%eax
  10c968:	a8 01                	test   $0x1,%al
  10c96a:	75 2c                	jne    10c998 <_ZN109_$LT$core..slice..iter..IterMut$LT$T$GT$$u20$as$u20$core..iter..traits..double_ended..DoubleEndedIterator$GT$9next_back17h01b5dc8224627c40E+0x48>
  10c96c:	eb 0f                	jmp    10c97d <_ZN109_$LT$core..slice..iter..IterMut$LT$T$GT$$u20$as$u20$core..iter..traits..double_ended..DoubleEndedIterator$GT$9next_back17h01b5dc8224627c40E+0x2d>
  10c96e:	48 8b 04 24          	mov    (%rsp),%rax
  10c972:	48 8b 78 08          	mov    0x8(%rax),%rdi
  10c976:	e8 f5 eb ff ff       	callq  10b570 <_ZN4core3ptr7mut_ptr31_$LT$impl$u20$$BP$mut$u20$T$GT$7is_null17hadfb62f81baa32faE>
  10c97b:	eb e9                	jmp    10c966 <_ZN109_$LT$core..slice..iter..IterMut$LT$T$GT$$u20$as$u20$core..iter..traits..double_ended..DoubleEndedIterator$GT$9next_back17h01b5dc8224627c40E+0x16>
  10c97d:	48 8b 0c 24          	mov    (%rsp),%rcx
  10c981:	48 8b 01             	mov    (%rcx),%rax
  10c984:	48 89 44 24 20       	mov    %rax,0x20(%rsp)
  10c989:	48 3b 41 08          	cmp    0x8(%rcx),%rax
  10c98d:	0f 94 c0             	sete   %al
  10c990:	24 01                	and    $0x1,%al
  10c992:	88 44 24 17          	mov    %al,0x17(%rsp)
  10c996:	eb 1f                	jmp    10c9b7 <_ZN109_$LT$core..slice..iter..IterMut$LT$T$GT$$u20$as$u20$core..iter..traits..double_ended..DoubleEndedIterator$GT$9next_back17h01b5dc8224627c40E+0x67>
  10c998:	48 8b 04 24          	mov    (%rsp),%rax
  10c99c:	48 8b 40 08          	mov    0x8(%rax),%rax
  10c9a0:	48 89 44 24 28       	mov    %rax,0x28(%rsp)
  10c9a5:	48 89 44 24 30       	mov    %rax,0x30(%rsp)
  10c9aa:	48 83 f8 00          	cmp    $0x0,%rax
  10c9ae:	0f 94 c0             	sete   %al
  10c9b1:	24 01                	and    $0x1,%al
  10c9b3:	88 44 24 17          	mov    %al,0x17(%rsp)
  10c9b7:	f6 44 24 17 01       	testb  $0x1,0x17(%rsp)
  10c9bc:	75 6d                	jne    10ca2b <_ZN109_$LT$core..slice..iter..IterMut$LT$T$GT$$u20$as$u20$core..iter..traits..double_ended..DoubleEndedIterator$GT$9next_back17h01b5dc8224627c40E+0xdb>
  10c9be:	48 8b 04 24          	mov    (%rsp),%rax
  10c9c2:	48 89 44 24 40       	mov    %rax,0x40(%rsp)
  10c9c7:	48 c7 44 24 48 01 00 	movq   $0x1,0x48(%rsp)
  10c9ce:	00 00 
  10c9d0:	48 8b 48 08          	mov    0x8(%rax),%rcx
  10c9d4:	48 89 4c 24 50       	mov    %rcx,0x50(%rsp)
  10c9d9:	48 c7 44 24 58 01 00 	movq   $0x1,0x58(%rsp)
  10c9e0:	00 00 
  10c9e2:	48 c7 44 24 70 01 00 	movq   $0x1,0x70(%rsp)
  10c9e9:	00 00 
  10c9eb:	48 c7 44 24 78 00 00 	movq   $0x0,0x78(%rsp)
  10c9f2:	00 00 
  10c9f4:	48 c7 84 24 80 00 00 	movq   $0x1,0x80(%rsp)
  10c9fb:	00 01 00 00 00 
  10ca00:	48 89 4c 24 60       	mov    %rcx,0x60(%rsp)
  10ca05:	48 c7 44 24 68 ff ff 	movq   $0xffffffffffffffff,0x68(%rsp)
  10ca0c:	ff ff 
  10ca0e:	48 83 c1 ff          	add    $0xffffffffffffffff,%rcx
  10ca12:	48 89 48 08          	mov    %rcx,0x8(%rax)
  10ca16:	48 8b 40 08          	mov    0x8(%rax),%rax
  10ca1a:	48 89 44 24 38       	mov    %rax,0x38(%rsp)
  10ca1f:	48 8b 44 24 38       	mov    0x38(%rsp),%rax
  10ca24:	48 89 44 24 08       	mov    %rax,0x8(%rsp)
  10ca29:	eb 09                	jmp    10ca34 <_ZN109_$LT$core..slice..iter..IterMut$LT$T$GT$$u20$as$u20$core..iter..traits..double_ended..DoubleEndedIterator$GT$9next_back17h01b5dc8224627c40E+0xe4>
  10ca2b:	48 c7 44 24 08 00 00 	movq   $0x0,0x8(%rsp)
  10ca32:	00 00 
  10ca34:	48 8b 44 24 08       	mov    0x8(%rsp),%rax
  10ca39:	48 81 c4 88 00 00 00 	add    $0x88,%rsp
  10ca40:	c3                   	retq   
  10ca41:	cc                   	int3   
  10ca42:	cc                   	int3   
  10ca43:	cc                   	int3   
  10ca44:	cc                   	int3   
  10ca45:	cc                   	int3   
  10ca46:	cc                   	int3   
  10ca47:	cc                   	int3   
  10ca48:	cc                   	int3   
  10ca49:	cc                   	int3   
  10ca4a:	cc                   	int3   
  10ca4b:	cc                   	int3   
  10ca4c:	cc                   	int3   
  10ca4d:	cc                   	int3   
  10ca4e:	cc                   	int3   
  10ca4f:	cc                   	int3   

000000000010ca50 <_ZN4core3ptr8non_null16NonNull$LT$T$GT$13new_unchecked17h305d7a9dcf2aeea3E>:
  10ca50:	48 83 ec 28          	sub    $0x28,%rsp
  10ca54:	48 89 3c 24          	mov    %rdi,(%rsp)
  10ca58:	48 89 7c 24 18       	mov    %rdi,0x18(%rsp)
  10ca5d:	b0 01                	mov    $0x1,%al
  10ca5f:	a8 01                	test   $0x1,%al
  10ca61:	75 13                	jne    10ca76 <_ZN4core3ptr8non_null16NonNull$LT$T$GT$13new_unchecked17h305d7a9dcf2aeea3E+0x26>
  10ca63:	48 8b 04 24          	mov    (%rsp),%rax
  10ca67:	48 89 44 24 08       	mov    %rax,0x8(%rsp)
  10ca6c:	48 8b 44 24 08       	mov    0x8(%rsp),%rax
  10ca71:	48 83 c4 28          	add    $0x28,%rsp
  10ca75:	c3                   	retq   
  10ca76:	48 8b 04 24          	mov    (%rsp),%rax
  10ca7a:	48 89 44 24 10       	mov    %rax,0x10(%rsp)
  10ca7f:	48 8b 7c 24 10       	mov    0x10(%rsp),%rdi
  10ca84:	48 89 7c 24 20       	mov    %rdi,0x20(%rsp)
  10ca89:	e8 e2 ea ff ff       	callq  10b570 <_ZN4core3ptr7mut_ptr31_$LT$impl$u20$$BP$mut$u20$T$GT$7is_null17hadfb62f81baa32faE>
  10ca8e:	a8 01                	test   $0x1,%al
  10ca90:	75 02                	jne    10ca94 <_ZN4core3ptr8non_null16NonNull$LT$T$GT$13new_unchecked17h305d7a9dcf2aeea3E+0x44>
  10ca92:	eb 13                	jmp    10caa7 <_ZN4core3ptr8non_null16NonNull$LT$T$GT$13new_unchecked17h305d7a9dcf2aeea3E+0x57>
  10ca94:	48 8d 3d 7d 4c ff ff 	lea    -0xb383(%rip),%rdi        # 101718 <str.1+0x98>
  10ca9b:	be 5d 00 00 00       	mov    $0x5d,%esi
  10caa0:	e8 db 89 ff ff       	callq  105480 <_ZN4core9panicking14panic_nounwind17hbf97f84b8fd59176E>
  10caa5:	0f 0b                	ud2    
  10caa7:	eb ba                	jmp    10ca63 <_ZN4core3ptr8non_null16NonNull$LT$T$GT$13new_unchecked17h305d7a9dcf2aeea3E+0x13>
  10caa9:	cc                   	int3   
  10caaa:	cc                   	int3   
  10caab:	cc                   	int3   
  10caac:	cc                   	int3   
  10caad:	cc                   	int3   
  10caae:	cc                   	int3   
  10caaf:	cc                   	int3   

000000000010cab0 <_ZN4core3ptr8non_null16NonNull$LT$T$GT$13new_unchecked17h7302b37e30e74e02E>:
  10cab0:	48 83 ec 28          	sub    $0x28,%rsp
  10cab4:	48 89 3c 24          	mov    %rdi,(%rsp)
  10cab8:	48 89 7c 24 18       	mov    %rdi,0x18(%rsp)
  10cabd:	b0 01                	mov    $0x1,%al
  10cabf:	a8 01                	test   $0x1,%al
  10cac1:	75 13                	jne    10cad6 <_ZN4core3ptr8non_null16NonNull$LT$T$GT$13new_unchecked17h7302b37e30e74e02E+0x26>
  10cac3:	48 8b 04 24          	mov    (%rsp),%rax
  10cac7:	48 89 44 24 08       	mov    %rax,0x8(%rsp)
  10cacc:	48 8b 44 24 08       	mov    0x8(%rsp),%rax
  10cad1:	48 83 c4 28          	add    $0x28,%rsp
  10cad5:	c3                   	retq   
  10cad6:	48 8b 04 24          	mov    (%rsp),%rax
  10cada:	48 89 44 24 10       	mov    %rax,0x10(%rsp)
  10cadf:	48 8b 7c 24 10       	mov    0x10(%rsp),%rdi
  10cae4:	48 89 7c 24 20       	mov    %rdi,0x20(%rsp)
  10cae9:	e8 d2 79 ff ff       	callq  1044c0 <_ZN4core3ptr7mut_ptr31_$LT$impl$u20$$BP$mut$u20$T$GT$7is_null17h8c109605ec70bb98E>
  10caee:	a8 01                	test   $0x1,%al
  10caf0:	75 02                	jne    10caf4 <_ZN4core3ptr8non_null16NonNull$LT$T$GT$13new_unchecked17h7302b37e30e74e02E+0x44>
  10caf2:	eb 13                	jmp    10cb07 <_ZN4core3ptr8non_null16NonNull$LT$T$GT$13new_unchecked17h7302b37e30e74e02E+0x57>
  10caf4:	48 8d 3d 1d 4c ff ff 	lea    -0xb3e3(%rip),%rdi        # 101718 <str.1+0x98>
  10cafb:	be 5d 00 00 00       	mov    $0x5d,%esi
  10cb00:	e8 7b 89 ff ff       	callq  105480 <_ZN4core9panicking14panic_nounwind17hbf97f84b8fd59176E>
  10cb05:	0f 0b                	ud2    
  10cb07:	eb ba                	jmp    10cac3 <_ZN4core3ptr8non_null16NonNull$LT$T$GT$13new_unchecked17h7302b37e30e74e02E+0x13>
  10cb09:	cc                   	int3   
  10cb0a:	cc                   	int3   
  10cb0b:	cc                   	int3   
  10cb0c:	cc                   	int3   
  10cb0d:	cc                   	int3   
  10cb0e:	cc                   	int3   
  10cb0f:	cc                   	int3   

000000000010cb10 <_ZN4core3ptr8non_null16NonNull$LT$T$GT$13new_unchecked17h7b5a02882c486ba2E>:
  10cb10:	48 83 ec 28          	sub    $0x28,%rsp
  10cb14:	48 89 3c 24          	mov    %rdi,(%rsp)
  10cb18:	48 89 7c 24 18       	mov    %rdi,0x18(%rsp)
  10cb1d:	b0 01                	mov    $0x1,%al
  10cb1f:	a8 01                	test   $0x1,%al
  10cb21:	75 13                	jne    10cb36 <_ZN4core3ptr8non_null16NonNull$LT$T$GT$13new_unchecked17h7b5a02882c486ba2E+0x26>
  10cb23:	48 8b 04 24          	mov    (%rsp),%rax
  10cb27:	48 89 44 24 08       	mov    %rax,0x8(%rsp)
  10cb2c:	48 8b 44 24 08       	mov    0x8(%rsp),%rax
  10cb31:	48 83 c4 28          	add    $0x28,%rsp
  10cb35:	c3                   	retq   
  10cb36:	48 8b 04 24          	mov    (%rsp),%rax
  10cb3a:	48 89 44 24 10       	mov    %rax,0x10(%rsp)
  10cb3f:	48 8b 7c 24 10       	mov    0x10(%rsp),%rdi
  10cb44:	48 89 7c 24 20       	mov    %rdi,0x20(%rsp)
  10cb49:	e8 a2 79 ff ff       	callq  1044f0 <_ZN4core3ptr7mut_ptr31_$LT$impl$u20$$BP$mut$u20$T$GT$7is_null17hc58c3d30244f470eE>
  10cb4e:	a8 01                	test   $0x1,%al
  10cb50:	75 02                	jne    10cb54 <_ZN4core3ptr8non_null16NonNull$LT$T$GT$13new_unchecked17h7b5a02882c486ba2E+0x44>
  10cb52:	eb 13                	jmp    10cb67 <_ZN4core3ptr8non_null16NonNull$LT$T$GT$13new_unchecked17h7b5a02882c486ba2E+0x57>
  10cb54:	48 8d 3d bd 4b ff ff 	lea    -0xb443(%rip),%rdi        # 101718 <str.1+0x98>
  10cb5b:	be 5d 00 00 00       	mov    $0x5d,%esi
  10cb60:	e8 1b 89 ff ff       	callq  105480 <_ZN4core9panicking14panic_nounwind17hbf97f84b8fd59176E>
  10cb65:	0f 0b                	ud2    
  10cb67:	eb ba                	jmp    10cb23 <_ZN4core3ptr8non_null16NonNull$LT$T$GT$13new_unchecked17h7b5a02882c486ba2E+0x13>
  10cb69:	cc                   	int3   
  10cb6a:	cc                   	int3   
  10cb6b:	cc                   	int3   
  10cb6c:	cc                   	int3   
  10cb6d:	cc                   	int3   
  10cb6e:	cc                   	int3   
  10cb6f:	cc                   	int3   

000000000010cb70 <_ZN4core3ptr8non_null16NonNull$LT$T$GT$13new_unchecked17h8fee96e291f2ca3dE>:
  10cb70:	48 83 ec 28          	sub    $0x28,%rsp
  10cb74:	48 89 3c 24          	mov    %rdi,(%rsp)
  10cb78:	48 89 7c 24 18       	mov    %rdi,0x18(%rsp)
  10cb7d:	b0 01                	mov    $0x1,%al
  10cb7f:	a8 01                	test   $0x1,%al
  10cb81:	75 13                	jne    10cb96 <_ZN4core3ptr8non_null16NonNull$LT$T$GT$13new_unchecked17h8fee96e291f2ca3dE+0x26>
  10cb83:	48 8b 04 24          	mov    (%rsp),%rax
  10cb87:	48 89 44 24 08       	mov    %rax,0x8(%rsp)
  10cb8c:	48 8b 44 24 08       	mov    0x8(%rsp),%rax
  10cb91:	48 83 c4 28          	add    $0x28,%rsp
  10cb95:	c3                   	retq   
  10cb96:	48 8b 04 24          	mov    (%rsp),%rax
  10cb9a:	48 89 44 24 10       	mov    %rax,0x10(%rsp)
  10cb9f:	48 8b 7c 24 10       	mov    0x10(%rsp),%rdi
  10cba4:	48 89 7c 24 20       	mov    %rdi,0x20(%rsp)
  10cba9:	e8 82 9a ff ff       	callq  106630 <_ZN4core3ptr7mut_ptr31_$LT$impl$u20$$BP$mut$u20$T$GT$7is_null17h23b345778fe93ec5E>
  10cbae:	a8 01                	test   $0x1,%al
  10cbb0:	75 02                	jne    10cbb4 <_ZN4core3ptr8non_null16NonNull$LT$T$GT$13new_unchecked17h8fee96e291f2ca3dE+0x44>
  10cbb2:	eb 13                	jmp    10cbc7 <_ZN4core3ptr8non_null16NonNull$LT$T$GT$13new_unchecked17h8fee96e291f2ca3dE+0x57>
  10cbb4:	48 8d 3d 5d 4b ff ff 	lea    -0xb4a3(%rip),%rdi        # 101718 <str.1+0x98>
  10cbbb:	be 5d 00 00 00       	mov    $0x5d,%esi
  10cbc0:	e8 bb 88 ff ff       	callq  105480 <_ZN4core9panicking14panic_nounwind17hbf97f84b8fd59176E>
  10cbc5:	0f 0b                	ud2    
  10cbc7:	eb ba                	jmp    10cb83 <_ZN4core3ptr8non_null16NonNull$LT$T$GT$13new_unchecked17h8fee96e291f2ca3dE+0x13>
  10cbc9:	cc                   	int3   
  10cbca:	cc                   	int3   
  10cbcb:	cc                   	int3   
  10cbcc:	cc                   	int3   
  10cbcd:	cc                   	int3   
  10cbce:	cc                   	int3   
  10cbcf:	cc                   	int3   

000000000010cbd0 <_ZN4core3ptr8non_null16NonNull$LT$T$GT$13new_unchecked17hac2e6d5a1f12b409E>:
  10cbd0:	48 83 ec 28          	sub    $0x28,%rsp
  10cbd4:	48 89 3c 24          	mov    %rdi,(%rsp)
  10cbd8:	48 89 7c 24 18       	mov    %rdi,0x18(%rsp)
  10cbdd:	b0 01                	mov    $0x1,%al
  10cbdf:	a8 01                	test   $0x1,%al
  10cbe1:	75 13                	jne    10cbf6 <_ZN4core3ptr8non_null16NonNull$LT$T$GT$13new_unchecked17hac2e6d5a1f12b409E+0x26>
  10cbe3:	48 8b 04 24          	mov    (%rsp),%rax
  10cbe7:	48 89 44 24 08       	mov    %rax,0x8(%rsp)
  10cbec:	48 8b 44 24 08       	mov    0x8(%rsp),%rax
  10cbf1:	48 83 c4 28          	add    $0x28,%rsp
  10cbf5:	c3                   	retq   
  10cbf6:	48 8b 04 24          	mov    (%rsp),%rax
  10cbfa:	48 89 44 24 10       	mov    %rax,0x10(%rsp)
  10cbff:	48 8b 7c 24 10       	mov    0x10(%rsp),%rdi
  10cc04:	48 89 7c 24 20       	mov    %rdi,0x20(%rsp)
  10cc09:	e8 82 9a ff ff       	callq  106690 <_ZN4core3ptr7mut_ptr31_$LT$impl$u20$$BP$mut$u20$T$GT$7is_null17he5886177d91cb675E>
  10cc0e:	a8 01                	test   $0x1,%al
  10cc10:	75 02                	jne    10cc14 <_ZN4core3ptr8non_null16NonNull$LT$T$GT$13new_unchecked17hac2e6d5a1f12b409E+0x44>
  10cc12:	eb 13                	jmp    10cc27 <_ZN4core3ptr8non_null16NonNull$LT$T$GT$13new_unchecked17hac2e6d5a1f12b409E+0x57>
  10cc14:	48 8d 3d fd 4a ff ff 	lea    -0xb503(%rip),%rdi        # 101718 <str.1+0x98>
  10cc1b:	be 5d 00 00 00       	mov    $0x5d,%esi
  10cc20:	e8 5b 88 ff ff       	callq  105480 <_ZN4core9panicking14panic_nounwind17hbf97f84b8fd59176E>
  10cc25:	0f 0b                	ud2    
  10cc27:	eb ba                	jmp    10cbe3 <_ZN4core3ptr8non_null16NonNull$LT$T$GT$13new_unchecked17hac2e6d5a1f12b409E+0x13>
  10cc29:	cc                   	int3   
  10cc2a:	cc                   	int3   
  10cc2b:	cc                   	int3   
  10cc2c:	cc                   	int3   
  10cc2d:	cc                   	int3   
  10cc2e:	cc                   	int3   
  10cc2f:	cc                   	int3   

000000000010cc30 <_ZN4core3ptr8non_null16NonNull$LT$T$GT$13new_unchecked17hef8759ac5d49c5b7E>:
  10cc30:	48 83 ec 28          	sub    $0x28,%rsp
  10cc34:	48 89 3c 24          	mov    %rdi,(%rsp)
  10cc38:	48 89 7c 24 18       	mov    %rdi,0x18(%rsp)
  10cc3d:	b0 01                	mov    $0x1,%al
  10cc3f:	a8 01                	test   $0x1,%al
  10cc41:	75 13                	jne    10cc56 <_ZN4core3ptr8non_null16NonNull$LT$T$GT$13new_unchecked17hef8759ac5d49c5b7E+0x26>
  10cc43:	48 8b 04 24          	mov    (%rsp),%rax
  10cc47:	48 89 44 24 08       	mov    %rax,0x8(%rsp)
  10cc4c:	48 8b 44 24 08       	mov    0x8(%rsp),%rax
  10cc51:	48 83 c4 28          	add    $0x28,%rsp
  10cc55:	c3                   	retq   
  10cc56:	48 8b 04 24          	mov    (%rsp),%rax
  10cc5a:	48 89 44 24 10       	mov    %rax,0x10(%rsp)
  10cc5f:	48 8b 7c 24 10       	mov    0x10(%rsp),%rdi
  10cc64:	48 89 7c 24 20       	mov    %rdi,0x20(%rsp)
  10cc69:	e8 f2 99 ff ff       	callq  106660 <_ZN4core3ptr7mut_ptr31_$LT$impl$u20$$BP$mut$u20$T$GT$7is_null17h47fc864485d9c9adE>
  10cc6e:	a8 01                	test   $0x1,%al
  10cc70:	75 02                	jne    10cc74 <_ZN4core3ptr8non_null16NonNull$LT$T$GT$13new_unchecked17hef8759ac5d49c5b7E+0x44>
  10cc72:	eb 13                	jmp    10cc87 <_ZN4core3ptr8non_null16NonNull$LT$T$GT$13new_unchecked17hef8759ac5d49c5b7E+0x57>
  10cc74:	48 8d 3d 9d 4a ff ff 	lea    -0xb563(%rip),%rdi        # 101718 <str.1+0x98>
  10cc7b:	be 5d 00 00 00       	mov    $0x5d,%esi
  10cc80:	e8 fb 87 ff ff       	callq  105480 <_ZN4core9panicking14panic_nounwind17hbf97f84b8fd59176E>
  10cc85:	0f 0b                	ud2    
  10cc87:	eb ba                	jmp    10cc43 <_ZN4core3ptr8non_null16NonNull$LT$T$GT$13new_unchecked17hef8759ac5d49c5b7E+0x13>
  10cc89:	cc                   	int3   
  10cc8a:	cc                   	int3   
  10cc8b:	cc                   	int3   
  10cc8c:	cc                   	int3   
  10cc8d:	cc                   	int3   
  10cc8e:	cc                   	int3   
  10cc8f:	cc                   	int3   

000000000010cc90 <_ZN4core3ptr8non_null16NonNull$LT$T$GT$3add17h154c0fe2382084f8E>:
  10cc90:	48 83 ec 28          	sub    $0x28,%rsp
  10cc94:	48 89 7c 24 08       	mov    %rdi,0x8(%rsp)
  10cc99:	48 89 74 24 10       	mov    %rsi,0x10(%rsp)
  10cc9e:	48 89 7c 24 18       	mov    %rdi,0x18(%rsp)
  10cca3:	48 89 74 24 20       	mov    %rsi,0x20(%rsp)
  10cca8:	48 c1 e6 03          	shl    $0x3,%rsi
  10ccac:	48 01 f7             	add    %rsi,%rdi
  10ccaf:	48 89 3c 24          	mov    %rdi,(%rsp)
  10ccb3:	48 8b 04 24          	mov    (%rsp),%rax
  10ccb7:	48 83 c4 28          	add    $0x28,%rsp
  10ccbb:	c3                   	retq   
  10ccbc:	cc                   	int3   
  10ccbd:	cc                   	int3   
  10ccbe:	cc                   	int3   
  10ccbf:	cc                   	int3   

000000000010ccc0 <_ZN4core3ptr8non_null16NonNull$LT$T$GT$3add17h23766ce66cfaaf71E>:
  10ccc0:	48 83 ec 28          	sub    $0x28,%rsp
  10ccc4:	48 89 7c 24 08       	mov    %rdi,0x8(%rsp)
  10ccc9:	48 89 74 24 10       	mov    %rsi,0x10(%rsp)
  10ccce:	48 89 7c 24 18       	mov    %rdi,0x18(%rsp)
  10ccd3:	48 89 74 24 20       	mov    %rsi,0x20(%rsp)
  10ccd8:	48 01 f7             	add    %rsi,%rdi
  10ccdb:	48 89 3c 24          	mov    %rdi,(%rsp)
  10ccdf:	48 8b 04 24          	mov    (%rsp),%rax
  10cce3:	48 83 c4 28          	add    $0x28,%rsp
  10cce7:	c3                   	retq   
  10cce8:	cc                   	int3   
  10cce9:	cc                   	int3   
  10ccea:	cc                   	int3   
  10cceb:	cc                   	int3   
  10ccec:	cc                   	int3   
  10cced:	cc                   	int3   
  10ccee:	cc                   	int3   
  10ccef:	cc                   	int3   

000000000010ccf0 <_ZN4core3ptr8non_null16NonNull$LT$T$GT$3add17h337ecf6caa150cd4E>:
  10ccf0:	48 83 ec 28          	sub    $0x28,%rsp
  10ccf4:	48 89 7c 24 08       	mov    %rdi,0x8(%rsp)
  10ccf9:	48 89 74 24 10       	mov    %rsi,0x10(%rsp)
  10ccfe:	48 89 7c 24 18       	mov    %rdi,0x18(%rsp)
  10cd03:	48 89 74 24 20       	mov    %rsi,0x20(%rsp)
  10cd08:	48 6b c6 38          	imul   $0x38,%rsi,%rax
  10cd0c:	48 01 c7             	add    %rax,%rdi
  10cd0f:	48 89 3c 24          	mov    %rdi,(%rsp)
  10cd13:	48 8b 04 24          	mov    (%rsp),%rax
  10cd17:	48 83 c4 28          	add    $0x28,%rsp
  10cd1b:	c3                   	retq   
  10cd1c:	cc                   	int3   
  10cd1d:	cc                   	int3   
  10cd1e:	cc                   	int3   
  10cd1f:	cc                   	int3   

000000000010cd20 <_ZN4core3ptr8non_null16NonNull$LT$T$GT$3add17ha4156bc4f7859b65E>:
  10cd20:	48 83 ec 28          	sub    $0x28,%rsp
  10cd24:	48 89 7c 24 08       	mov    %rdi,0x8(%rsp)
  10cd29:	48 89 74 24 10       	mov    %rsi,0x10(%rsp)
  10cd2e:	48 89 7c 24 18       	mov    %rdi,0x18(%rsp)
  10cd33:	48 89 74 24 20       	mov    %rsi,0x20(%rsp)
  10cd38:	48 c1 e6 05          	shl    $0x5,%rsi
  10cd3c:	48 01 f7             	add    %rsi,%rdi
  10cd3f:	48 89 3c 24          	mov    %rdi,(%rsp)
  10cd43:	48 8b 04 24          	mov    (%rsp),%rax
  10cd47:	48 83 c4 28          	add    $0x28,%rsp
  10cd4b:	c3                   	retq   
  10cd4c:	cc                   	int3   
  10cd4d:	cc                   	int3   
  10cd4e:	cc                   	int3   
  10cd4f:	cc                   	int3   

000000000010cd50 <_ZN4core3ptr8non_null16NonNull$LT$T$GT$3add17hed72f7d669081947E>:
  10cd50:	48 83 ec 28          	sub    $0x28,%rsp
  10cd54:	48 89 7c 24 08       	mov    %rdi,0x8(%rsp)
  10cd59:	48 89 74 24 10       	mov    %rsi,0x10(%rsp)
  10cd5e:	48 89 7c 24 18       	mov    %rdi,0x18(%rsp)
  10cd63:	48 89 74 24 20       	mov    %rsi,0x20(%rsp)
  10cd68:	48 c1 e6 04          	shl    $0x4,%rsi
  10cd6c:	48 01 f7             	add    %rsi,%rdi
  10cd6f:	48 89 3c 24          	mov    %rdi,(%rsp)
  10cd73:	48 8b 04 24          	mov    (%rsp),%rax
  10cd77:	48 83 c4 28          	add    $0x28,%rsp
  10cd7b:	c3                   	retq   
  10cd7c:	cc                   	int3   
  10cd7d:	cc                   	int3   
  10cd7e:	cc                   	int3   
  10cd7f:	cc                   	int3   

000000000010cd80 <_ZN89_$LT$core..ops..range..Range$LT$T$GT$$u20$as$u20$core..iter..range..RangeIteratorImpl$GT$9spec_next17hca853451dd0ba8e8E>:
  10cd80:	48 83 ec 48          	sub    $0x48,%rsp
  10cd84:	48 89 7c 24 10       	mov    %rdi,0x10(%rsp)
  10cd89:	48 89 7c 24 28       	mov    %rdi,0x28(%rsp)
  10cd8e:	48 89 f8             	mov    %rdi,%rax
  10cd91:	48 83 c0 08          	add    $0x8,%rax
  10cd95:	48 89 7c 24 38       	mov    %rdi,0x38(%rsp)
  10cd9a:	48 89 44 24 40       	mov    %rax,0x40(%rsp)
  10cd9f:	48 8b 07             	mov    (%rdi),%rax
  10cda2:	48 3b 47 08          	cmp    0x8(%rdi),%rax
  10cda6:	72 0b                	jb     10cdb3 <_ZN89_$LT$core..ops..range..Range$LT$T$GT$$u20$as$u20$core..iter..range..RangeIteratorImpl$GT$9spec_next17hca853451dd0ba8e8E+0x33>
  10cda8:	48 c7 44 24 18 00 00 	movq   $0x0,0x18(%rsp)
  10cdaf:	00 00 
  10cdb1:	eb 3a                	jmp    10cded <_ZN89_$LT$core..ops..range..Range$LT$T$GT$$u20$as$u20$core..iter..range..RangeIteratorImpl$GT$9spec_next17hca853451dd0ba8e8E+0x6d>
  10cdb3:	48 8b 44 24 10       	mov    0x10(%rsp),%rax
  10cdb8:	48 8b 38             	mov    (%rax),%rdi
  10cdbb:	48 89 7c 24 08       	mov    %rdi,0x8(%rsp)
  10cdc0:	48 89 7c 24 30       	mov    %rdi,0x30(%rsp)
  10cdc5:	be 01 00 00 00       	mov    $0x1,%esi
  10cdca:	e8 21 f0 ff ff       	callq  10bdf0 <_ZN49_$LT$usize$u20$as$u20$core..iter..range..Step$GT$17forward_unchecked17h84a06967c3c10fd6E>
  10cdcf:	48 8b 4c 24 10       	mov    0x10(%rsp),%rcx
  10cdd4:	48 89 c2             	mov    %rax,%rdx
  10cdd7:	48 8b 44 24 08       	mov    0x8(%rsp),%rax
  10cddc:	48 89 11             	mov    %rdx,(%rcx)
  10cddf:	48 89 44 24 20       	mov    %rax,0x20(%rsp)
  10cde4:	48 c7 44 24 18 01 00 	movq   $0x1,0x18(%rsp)
  10cdeb:	00 00 
  10cded:	48 8b 44 24 18       	mov    0x18(%rsp),%rax
  10cdf2:	48 8b 54 24 20       	mov    0x20(%rsp),%rdx
  10cdf7:	48 83 c4 48          	add    $0x48,%rsp
  10cdfb:	c3                   	retq   
  10cdfc:	cc                   	int3   
  10cdfd:	cc                   	int3   
  10cdfe:	cc                   	int3   
  10cdff:	cc                   	int3   

000000000010ce00 <_ZN4core4iter5range101_$LT$impl$u20$core..iter..traits..iterator..Iterator$u20$for$u20$core..ops..range..Range$LT$A$GT$$GT$4next17h1e143a2b9ee3d11bE>:
  10ce00:	50                   	push   %rax
  10ce01:	48 89 3c 24          	mov    %rdi,(%rsp)
  10ce05:	e8 76 ff ff ff       	callq  10cd80 <_ZN89_$LT$core..ops..range..Range$LT$T$GT$$u20$as$u20$core..iter..range..RangeIteratorImpl$GT$9spec_next17hca853451dd0ba8e8E>
  10ce0a:	59                   	pop    %rcx
  10ce0b:	c3                   	retq   
  10ce0c:	cc                   	int3   
  10ce0d:	cc                   	int3   
  10ce0e:	cc                   	int3   
  10ce0f:	cc                   	int3   

000000000010ce10 <_ZN63_$LT$I$u20$as$u20$core..iter..traits..collect..IntoIterator$GT$9into_iter17h3e6eed25d9a5d22cE>:
  10ce10:	48 83 ec 10          	sub    $0x10,%rsp
  10ce14:	48 89 f2             	mov    %rsi,%rdx
  10ce17:	48 89 f8             	mov    %rdi,%rax
  10ce1a:	48 89 04 24          	mov    %rax,(%rsp)
  10ce1e:	48 89 54 24 08       	mov    %rdx,0x8(%rsp)
  10ce23:	48 83 c4 10          	add    $0x10,%rsp
  10ce27:	c3                   	retq   
  10ce28:	cc                   	int3   
  10ce29:	cc                   	int3   
  10ce2a:	cc                   	int3   
  10ce2b:	cc                   	int3   
  10ce2c:	cc                   	int3   
  10ce2d:	cc                   	int3   
  10ce2e:	cc                   	int3   
  10ce2f:	cc                   	int3   

000000000010ce30 <_ZN106_$LT$core..ops..range..Range$LT$usize$GT$$u20$as$u20$core..slice..index..SliceIndex$LT$$u5b$T$u5d$$GT$$GT$3get17h7ac1e30b282c87a1E>:
  10ce30:	48 83 ec 58          	sub    $0x58,%rsp
  10ce34:	48 89 0c 24          	mov    %rcx,(%rsp)
  10ce38:	48 89 54 24 08       	mov    %rdx,0x8(%rsp)
  10ce3d:	48 89 74 24 10       	mov    %rsi,0x10(%rsp)
  10ce42:	48 89 7c 24 18       	mov    %rdi,0x18(%rsp)
  10ce47:	48 89 7c 24 38       	mov    %rdi,0x38(%rsp)
  10ce4c:	48 89 74 24 40       	mov    %rsi,0x40(%rsp)
  10ce51:	48 89 54 24 48       	mov    %rdx,0x48(%rsp)
  10ce56:	48 89 4c 24 50       	mov    %rcx,0x50(%rsp)
  10ce5b:	48 39 f7             	cmp    %rsi,%rdi
  10ce5e:	77 17                	ja     10ce77 <_ZN106_$LT$core..ops..range..Range$LT$usize$GT$$u20$as$u20$core..slice..index..SliceIndex$LT$$u5b$T$u5d$$GT$$GT$3get17h7ac1e30b282c87a1E+0x47>
  10ce60:	48 8b 44 24 10       	mov    0x10(%rsp),%rax
  10ce65:	48 8b 0c 24          	mov    (%rsp),%rcx
  10ce69:	48 39 c8             	cmp    %rcx,%rax
  10ce6c:	0f 97 c0             	seta   %al
  10ce6f:	24 01                	and    $0x1,%al
  10ce71:	88 44 24 37          	mov    %al,0x37(%rsp)
  10ce75:	eb 05                	jmp    10ce7c <_ZN106_$LT$core..ops..range..Range$LT$usize$GT$$u20$as$u20$core..slice..index..SliceIndex$LT$$u5b$T$u5d$$GT$$GT$3get17h7ac1e30b282c87a1E+0x4c>
  10ce77:	c6 44 24 37 01       	movb   $0x1,0x37(%rsp)
  10ce7c:	f6 44 24 37 01       	testb  $0x1,0x37(%rsp)
  10ce81:	75 24                	jne    10cea7 <_ZN106_$LT$core..ops..range..Range$LT$usize$GT$$u20$as$u20$core..slice..index..SliceIndex$LT$$u5b$T$u5d$$GT$$GT$3get17h7ac1e30b282c87a1E+0x77>
  10ce83:	48 8b 0c 24          	mov    (%rsp),%rcx
  10ce87:	48 8b 54 24 08       	mov    0x8(%rsp),%rdx
  10ce8c:	48 8b 74 24 10       	mov    0x10(%rsp),%rsi
  10ce91:	48 8b 7c 24 18       	mov    0x18(%rsp),%rdi
  10ce96:	e8 95 01 00 00       	callq  10d030 <_ZN106_$LT$core..ops..range..Range$LT$usize$GT$$u20$as$u20$core..slice..index..SliceIndex$LT$$u5b$T$u5d$$GT$$GT$13get_unchecked17h5a66ba3854bb3e51E>
  10ce9b:	48 89 44 24 20       	mov    %rax,0x20(%rsp)
  10cea0:	48 89 54 24 28       	mov    %rdx,0x28(%rsp)
  10cea5:	eb 09                	jmp    10ceb0 <_ZN106_$LT$core..ops..range..Range$LT$usize$GT$$u20$as$u20$core..slice..index..SliceIndex$LT$$u5b$T$u5d$$GT$$GT$3get17h7ac1e30b282c87a1E+0x80>
  10cea7:	48 c7 44 24 20 00 00 	movq   $0x0,0x20(%rsp)
  10ceae:	00 00 
  10ceb0:	48 8b 44 24 20       	mov    0x20(%rsp),%rax
  10ceb5:	48 8b 54 24 28       	mov    0x28(%rsp),%rdx
  10ceba:	48 83 c4 58          	add    $0x58,%rsp
  10cebe:	c3                   	retq   
  10cebf:	cc                   	int3   

000000000010cec0 <_ZN106_$LT$core..ops..range..Range$LT$usize$GT$$u20$as$u20$core..slice..index..SliceIndex$LT$$u5b$T$u5d$$GT$$GT$13get_unchecked17h3ca1eeed7843c3f5E>:
  10cec0:	48 81 ec d8 00 00 00 	sub    $0xd8,%rsp
  10cec7:	48 89 4c 24 28       	mov    %rcx,0x28(%rsp)
  10cecc:	48 89 54 24 30       	mov    %rdx,0x30(%rsp)
  10ced1:	48 89 74 24 38       	mov    %rsi,0x38(%rsp)
  10ced6:	48 89 7c 24 40       	mov    %rdi,0x40(%rsp)
  10cedb:	48 89 7c 24 78       	mov    %rdi,0x78(%rsp)
  10cee0:	48 89 b4 24 80 00 00 	mov    %rsi,0x80(%rsp)
  10cee7:	00 
  10cee8:	48 89 94 24 88 00 00 	mov    %rdx,0x88(%rsp)
  10ceef:	00 
  10cef0:	48 89 8c 24 90 00 00 	mov    %rcx,0x90(%rsp)
  10cef7:	00 
  10cef8:	48 89 7c 24 48       	mov    %rdi,0x48(%rsp)
  10cefd:	48 89 74 24 50       	mov    %rsi,0x50(%rsp)
  10cf02:	b0 01                	mov    $0x1,%al
  10cf04:	a8 01                	test   $0x1,%al
  10cf06:	75 56                	jne    10cf5e <_ZN106_$LT$core..ops..range..Range$LT$usize$GT$$u20$as$u20$core..slice..index..SliceIndex$LT$$u5b$T$u5d$$GT$$GT$13get_unchecked17h3ca1eeed7843c3f5E+0x9e>
  10cf08:	48 8b 4c 24 40       	mov    0x40(%rsp),%rcx
  10cf0d:	48 8b 74 24 28       	mov    0x28(%rsp),%rsi
  10cf12:	48 8b 7c 24 30       	mov    0x30(%rsp),%rdi
  10cf17:	48 8b 44 24 38       	mov    0x38(%rsp),%rax
  10cf1c:	48 29 c8             	sub    %rcx,%rax
  10cf1f:	48 89 44 24 20       	mov    %rax,0x20(%rsp)
  10cf24:	48 89 84 24 98 00 00 	mov    %rax,0x98(%rsp)
  10cf2b:	00 
  10cf2c:	e8 ff e5 ff ff       	callq  10b530 <_ZN4core3ptr9const_ptr43_$LT$impl$u20$$BP$const$u20$$u5b$T$u5d$$GT$6as_ptr17h54a1e46e9aa1245bE>
  10cf31:	48 8b 74 24 20       	mov    0x20(%rsp),%rsi
  10cf36:	48 89 c7             	mov    %rax,%rdi
  10cf39:	48 8b 44 24 40       	mov    0x40(%rsp),%rax
  10cf3e:	48 89 bc 24 a0 00 00 	mov    %rdi,0xa0(%rsp)
  10cf45:	00 
  10cf46:	48 89 84 24 a8 00 00 	mov    %rax,0xa8(%rsp)
  10cf4d:	00 
  10cf4e:	48 01 c7             	add    %rax,%rdi
  10cf51:	e8 1a 0f 00 00       	callq  10de70 <_ZN4core3ptr20slice_from_raw_parts17hbd94b18a72283d0bE>
  10cf56:	48 81 c4 d8 00 00 00 	add    $0xd8,%rsp
  10cf5d:	c3                   	retq   
  10cf5e:	48 8b 44 24 28       	mov    0x28(%rsp),%rax
  10cf63:	48 8b 4c 24 30       	mov    0x30(%rsp),%rcx
  10cf68:	48 8b 74 24 48       	mov    0x48(%rsp),%rsi
  10cf6d:	48 8b 54 24 50       	mov    0x50(%rsp),%rdx
  10cf72:	48 89 74 24 58       	mov    %rsi,0x58(%rsp)
  10cf77:	48 89 54 24 60       	mov    %rdx,0x60(%rsp)
  10cf7c:	48 89 4c 24 68       	mov    %rcx,0x68(%rsp)
  10cf81:	48 89 44 24 70       	mov    %rax,0x70(%rsp)
  10cf86:	48 8b 4c 24 58       	mov    0x58(%rsp),%rcx
  10cf8b:	48 8b 44 24 60       	mov    0x60(%rsp),%rax
  10cf90:	48 89 44 24 08       	mov    %rax,0x8(%rsp)
  10cf95:	48 8b 74 24 68       	mov    0x68(%rsp),%rsi
  10cf9a:	48 89 74 24 10       	mov    %rsi,0x10(%rsp)
  10cf9f:	48 8b 54 24 70       	mov    0x70(%rsp),%rdx
  10cfa4:	48 89 54 24 18       	mov    %rdx,0x18(%rsp)
  10cfa9:	48 89 8c 24 b8 00 00 	mov    %rcx,0xb8(%rsp)
  10cfb0:	00 
  10cfb1:	48 89 84 24 c0 00 00 	mov    %rax,0xc0(%rsp)
  10cfb8:	00 
  10cfb9:	48 89 b4 24 c8 00 00 	mov    %rsi,0xc8(%rsp)
  10cfc0:	00 
  10cfc1:	48 89 94 24 d0 00 00 	mov    %rdx,0xd0(%rsp)
  10cfc8:	00 
  10cfc9:	48 39 c8             	cmp    %rcx,%rax
  10cfcc:	73 0a                	jae    10cfd8 <_ZN106_$LT$core..ops..range..Range$LT$usize$GT$$u20$as$u20$core..slice..index..SliceIndex$LT$$u5b$T$u5d$$GT$$GT$13get_unchecked17h3ca1eeed7843c3f5E+0x118>
  10cfce:	c6 84 24 b7 00 00 00 	movb   $0x0,0xb7(%rsp)
  10cfd5:	00 
  10cfd6:	eb 26                	jmp    10cffe <_ZN106_$LT$core..ops..range..Range$LT$usize$GT$$u20$as$u20$core..slice..index..SliceIndex$LT$$u5b$T$u5d$$GT$$GT$13get_unchecked17h3ca1eeed7843c3f5E+0x13e>
  10cfd8:	48 8b 74 24 18       	mov    0x18(%rsp),%rsi
  10cfdd:	48 8b 7c 24 10       	mov    0x10(%rsp),%rdi
  10cfe2:	e8 09 e5 ff ff       	callq  10b4f0 <_ZN4core3ptr9const_ptr43_$LT$impl$u20$$BP$const$u20$$u5b$T$u5d$$GT$3len17hc4a3ada742fc702cE>
  10cfe7:	48 89 c1             	mov    %rax,%rcx
  10cfea:	48 8b 44 24 08       	mov    0x8(%rsp),%rax
  10cfef:	48 39 c8             	cmp    %rcx,%rax
  10cff2:	0f 96 c0             	setbe  %al
  10cff5:	24 01                	and    $0x1,%al
  10cff7:	88 84 24 b7 00 00 00 	mov    %al,0xb7(%rsp)
  10cffe:	8a 84 24 b7 00 00 00 	mov    0xb7(%rsp),%al
  10d005:	34 ff                	xor    $0xff,%al
  10d007:	a8 01                	test   $0x1,%al
  10d009:	75 02                	jne    10d00d <_ZN106_$LT$core..ops..range..Range$LT$usize$GT$$u20$as$u20$core..slice..index..SliceIndex$LT$$u5b$T$u5d$$GT$$GT$13get_unchecked17h3ca1eeed7843c3f5E+0x14d>
  10d00b:	eb 13                	jmp    10d020 <_ZN106_$LT$core..ops..range..Range$LT$usize$GT$$u20$as$u20$core..slice..index..SliceIndex$LT$$u5b$T$u5d$$GT$$GT$13get_unchecked17h3ca1eeed7843c3f5E+0x160>
  10d00d:	48 8d 3d 61 47 ff ff 	lea    -0xb89f(%rip),%rdi        # 101775 <str.1+0xf5>
  10d014:	be 61 00 00 00       	mov    $0x61,%esi
  10d019:	e8 62 84 ff ff       	callq  105480 <_ZN4core9panicking14panic_nounwind17hbf97f84b8fd59176E>
  10d01e:	0f 0b                	ud2    
  10d020:	e9 e3 fe ff ff       	jmpq   10cf08 <_ZN106_$LT$core..ops..range..Range$LT$usize$GT$$u20$as$u20$core..slice..index..SliceIndex$LT$$u5b$T$u5d$$GT$$GT$13get_unchecked17h3ca1eeed7843c3f5E+0x48>
  10d025:	cc                   	int3   
  10d026:	cc                   	int3   
  10d027:	cc                   	int3   
  10d028:	cc                   	int3   
  10d029:	cc                   	int3   
  10d02a:	cc                   	int3   
  10d02b:	cc                   	int3   
  10d02c:	cc                   	int3   
  10d02d:	cc                   	int3   
  10d02e:	cc                   	int3   
  10d02f:	cc                   	int3   

000000000010d030 <_ZN106_$LT$core..ops..range..Range$LT$usize$GT$$u20$as$u20$core..slice..index..SliceIndex$LT$$u5b$T$u5d$$GT$$GT$13get_unchecked17h5a66ba3854bb3e51E>:
  10d030:	48 81 ec d8 00 00 00 	sub    $0xd8,%rsp
  10d037:	48 89 4c 24 28       	mov    %rcx,0x28(%rsp)
  10d03c:	48 89 54 24 30       	mov    %rdx,0x30(%rsp)
  10d041:	48 89 74 24 38       	mov    %rsi,0x38(%rsp)
  10d046:	48 89 7c 24 40       	mov    %rdi,0x40(%rsp)
  10d04b:	48 89 7c 24 78       	mov    %rdi,0x78(%rsp)
  10d050:	48 89 b4 24 80 00 00 	mov    %rsi,0x80(%rsp)
  10d057:	00 
  10d058:	48 89 94 24 88 00 00 	mov    %rdx,0x88(%rsp)
  10d05f:	00 
  10d060:	48 89 8c 24 90 00 00 	mov    %rcx,0x90(%rsp)
  10d067:	00 
  10d068:	48 89 7c 24 48       	mov    %rdi,0x48(%rsp)
  10d06d:	48 89 74 24 50       	mov    %rsi,0x50(%rsp)
  10d072:	b0 01                	mov    $0x1,%al
  10d074:	a8 01                	test   $0x1,%al
  10d076:	75 56                	jne    10d0ce <_ZN106_$LT$core..ops..range..Range$LT$usize$GT$$u20$as$u20$core..slice..index..SliceIndex$LT$$u5b$T$u5d$$GT$$GT$13get_unchecked17h5a66ba3854bb3e51E+0x9e>
  10d078:	48 8b 4c 24 40       	mov    0x40(%rsp),%rcx
  10d07d:	48 8b 74 24 28       	mov    0x28(%rsp),%rsi
  10d082:	48 8b 7c 24 30       	mov    0x30(%rsp),%rdi
  10d087:	48 8b 44 24 38       	mov    0x38(%rsp),%rax
  10d08c:	48 29 c8             	sub    %rcx,%rax
  10d08f:	48 89 44 24 20       	mov    %rax,0x20(%rsp)
  10d094:	48 89 84 24 98 00 00 	mov    %rax,0x98(%rsp)
  10d09b:	00 
  10d09c:	e8 6f e4 ff ff       	callq  10b510 <_ZN4core3ptr9const_ptr43_$LT$impl$u20$$BP$const$u20$$u5b$T$u5d$$GT$6as_ptr17h41b895457b254e1bE>
  10d0a1:	48 8b 74 24 20       	mov    0x20(%rsp),%rsi
  10d0a6:	48 89 c7             	mov    %rax,%rdi
  10d0a9:	48 8b 44 24 40       	mov    0x40(%rsp),%rax
  10d0ae:	48 89 bc 24 a0 00 00 	mov    %rdi,0xa0(%rsp)
  10d0b5:	00 
  10d0b6:	48 89 84 24 a8 00 00 	mov    %rax,0xa8(%rsp)
  10d0bd:	00 
  10d0be:	48 01 c7             	add    %rax,%rdi
  10d0c1:	e8 8a 0d 00 00       	callq  10de50 <_ZN4core3ptr20slice_from_raw_parts17hbd64ee62e243d2a3E>
  10d0c6:	48 81 c4 d8 00 00 00 	add    $0xd8,%rsp
  10d0cd:	c3                   	retq   
  10d0ce:	48 8b 44 24 28       	mov    0x28(%rsp),%rax
  10d0d3:	48 8b 4c 24 30       	mov    0x30(%rsp),%rcx
  10d0d8:	48 8b 74 24 48       	mov    0x48(%rsp),%rsi
  10d0dd:	48 8b 54 24 50       	mov    0x50(%rsp),%rdx
  10d0e2:	48 89 74 24 58       	mov    %rsi,0x58(%rsp)
  10d0e7:	48 89 54 24 60       	mov    %rdx,0x60(%rsp)
  10d0ec:	48 89 4c 24 68       	mov    %rcx,0x68(%rsp)
  10d0f1:	48 89 44 24 70       	mov    %rax,0x70(%rsp)
  10d0f6:	48 8b 4c 24 58       	mov    0x58(%rsp),%rcx
  10d0fb:	48 8b 44 24 60       	mov    0x60(%rsp),%rax
  10d100:	48 89 44 24 08       	mov    %rax,0x8(%rsp)
  10d105:	48 8b 74 24 68       	mov    0x68(%rsp),%rsi
  10d10a:	48 89 74 24 10       	mov    %rsi,0x10(%rsp)
  10d10f:	48 8b 54 24 70       	mov    0x70(%rsp),%rdx
  10d114:	48 89 54 24 18       	mov    %rdx,0x18(%rsp)
  10d119:	48 89 8c 24 b8 00 00 	mov    %rcx,0xb8(%rsp)
  10d120:	00 
  10d121:	48 89 84 24 c0 00 00 	mov    %rax,0xc0(%rsp)
  10d128:	00 
  10d129:	48 89 b4 24 c8 00 00 	mov    %rsi,0xc8(%rsp)
  10d130:	00 
  10d131:	48 89 94 24 d0 00 00 	mov    %rdx,0xd0(%rsp)
  10d138:	00 
  10d139:	48 39 c8             	cmp    %rcx,%rax
  10d13c:	73 0a                	jae    10d148 <_ZN106_$LT$core..ops..range..Range$LT$usize$GT$$u20$as$u20$core..slice..index..SliceIndex$LT$$u5b$T$u5d$$GT$$GT$13get_unchecked17h5a66ba3854bb3e51E+0x118>
  10d13e:	c6 84 24 b7 00 00 00 	movb   $0x0,0xb7(%rsp)
  10d145:	00 
  10d146:	eb 26                	jmp    10d16e <_ZN106_$LT$core..ops..range..Range$LT$usize$GT$$u20$as$u20$core..slice..index..SliceIndex$LT$$u5b$T$u5d$$GT$$GT$13get_unchecked17h5a66ba3854bb3e51E+0x13e>
  10d148:	48 8b 74 24 18       	mov    0x18(%rsp),%rsi
  10d14d:	48 8b 7c 24 10       	mov    0x10(%rsp),%rdi
  10d152:	e8 59 e3 ff ff       	callq  10b4b0 <_ZN4core3ptr9const_ptr43_$LT$impl$u20$$BP$const$u20$$u5b$T$u5d$$GT$3len17h2025d8233704ca40E>
  10d157:	48 89 c1             	mov    %rax,%rcx
  10d15a:	48 8b 44 24 08       	mov    0x8(%rsp),%rax
  10d15f:	48 39 c8             	cmp    %rcx,%rax
  10d162:	0f 96 c0             	setbe  %al
  10d165:	24 01                	and    $0x1,%al
  10d167:	88 84 24 b7 00 00 00 	mov    %al,0xb7(%rsp)
  10d16e:	8a 84 24 b7 00 00 00 	mov    0xb7(%rsp),%al
  10d175:	34 ff                	xor    $0xff,%al
  10d177:	a8 01                	test   $0x1,%al
  10d179:	75 02                	jne    10d17d <_ZN106_$LT$core..ops..range..Range$LT$usize$GT$$u20$as$u20$core..slice..index..SliceIndex$LT$$u5b$T$u5d$$GT$$GT$13get_unchecked17h5a66ba3854bb3e51E+0x14d>
  10d17b:	eb 13                	jmp    10d190 <_ZN106_$LT$core..ops..range..Range$LT$usize$GT$$u20$as$u20$core..slice..index..SliceIndex$LT$$u5b$T$u5d$$GT$$GT$13get_unchecked17h5a66ba3854bb3e51E+0x160>
  10d17d:	48 8d 3d f1 45 ff ff 	lea    -0xba0f(%rip),%rdi        # 101775 <str.1+0xf5>
  10d184:	be 61 00 00 00       	mov    $0x61,%esi
  10d189:	e8 f2 82 ff ff       	callq  105480 <_ZN4core9panicking14panic_nounwind17hbf97f84b8fd59176E>
  10d18e:	0f 0b                	ud2    
  10d190:	e9 e3 fe ff ff       	jmpq   10d078 <_ZN106_$LT$core..ops..range..Range$LT$usize$GT$$u20$as$u20$core..slice..index..SliceIndex$LT$$u5b$T$u5d$$GT$$GT$13get_unchecked17h5a66ba3854bb3e51E+0x48>
  10d195:	cc                   	int3   
  10d196:	cc                   	int3   
  10d197:	cc                   	int3   
  10d198:	cc                   	int3   
  10d199:	cc                   	int3   
  10d19a:	cc                   	int3   
  10d19b:	cc                   	int3   
  10d19c:	cc                   	int3   
  10d19d:	cc                   	int3   
  10d19e:	cc                   	int3   
  10d19f:	cc                   	int3   

000000000010d1a0 <_ZN106_$LT$core..ops..range..Range$LT$usize$GT$$u20$as$u20$core..slice..index..SliceIndex$LT$$u5b$T$u5d$$GT$$GT$17get_unchecked_mut17h3bee516fe26d18f6E>:
  10d1a0:	48 81 ec e8 00 00 00 	sub    $0xe8,%rsp
  10d1a7:	48 89 4c 24 18       	mov    %rcx,0x18(%rsp)
  10d1ac:	48 89 54 24 20       	mov    %rdx,0x20(%rsp)
  10d1b1:	48 89 74 24 28       	mov    %rsi,0x28(%rsp)
  10d1b6:	48 89 7c 24 30       	mov    %rdi,0x30(%rsp)
  10d1bb:	48 89 7c 24 68       	mov    %rdi,0x68(%rsp)
  10d1c0:	48 89 74 24 70       	mov    %rsi,0x70(%rsp)
  10d1c5:	48 89 54 24 78       	mov    %rdx,0x78(%rsp)
  10d1ca:	48 89 8c 24 80 00 00 	mov    %rcx,0x80(%rsp)
  10d1d1:	00 
  10d1d2:	48 89 7c 24 38       	mov    %rdi,0x38(%rsp)
  10d1d7:	48 89 74 24 40       	mov    %rsi,0x40(%rsp)
  10d1dc:	b0 01                	mov    $0x1,%al
  10d1de:	a8 01                	test   $0x1,%al
  10d1e0:	75 4f                	jne    10d231 <_ZN106_$LT$core..ops..range..Range$LT$usize$GT$$u20$as$u20$core..slice..index..SliceIndex$LT$$u5b$T$u5d$$GT$$GT$17get_unchecked_mut17h3bee516fe26d18f6E+0x91>
  10d1e2:	48 8b 44 24 30       	mov    0x30(%rsp),%rax
  10d1e7:	48 8b 7c 24 20       	mov    0x20(%rsp),%rdi
  10d1ec:	48 8b 4c 24 18       	mov    0x18(%rsp),%rcx
  10d1f1:	48 8b 74 24 28       	mov    0x28(%rsp),%rsi
  10d1f6:	48 29 c6             	sub    %rax,%rsi
  10d1f9:	48 89 b4 24 88 00 00 	mov    %rsi,0x88(%rsp)
  10d200:	00 
  10d201:	48 89 bc 24 a0 00 00 	mov    %rdi,0xa0(%rsp)
  10d208:	00 
  10d209:	48 89 8c 24 a8 00 00 	mov    %rcx,0xa8(%rsp)
  10d210:	00 
  10d211:	48 89 bc 24 90 00 00 	mov    %rdi,0x90(%rsp)
  10d218:	00 
  10d219:	48 89 84 24 98 00 00 	mov    %rax,0x98(%rsp)
  10d220:	00 
  10d221:	48 01 c7             	add    %rax,%rdi
  10d224:	e8 87 0c 00 00       	callq  10deb0 <_ZN4core3ptr24slice_from_raw_parts_mut17hbfec43066f00032aE>
  10d229:	48 81 c4 e8 00 00 00 	add    $0xe8,%rsp
  10d230:	c3                   	retq   
  10d231:	48 8b 44 24 18       	mov    0x18(%rsp),%rax
  10d236:	48 8b 4c 24 20       	mov    0x20(%rsp),%rcx
  10d23b:	48 8b 74 24 38       	mov    0x38(%rsp),%rsi
  10d240:	48 8b 54 24 40       	mov    0x40(%rsp),%rdx
  10d245:	48 89 74 24 48       	mov    %rsi,0x48(%rsp)
  10d24a:	48 89 54 24 50       	mov    %rdx,0x50(%rsp)
  10d24f:	48 89 4c 24 58       	mov    %rcx,0x58(%rsp)
  10d254:	48 89 44 24 60       	mov    %rax,0x60(%rsp)
  10d259:	48 8b 4c 24 48       	mov    0x48(%rsp),%rcx
  10d25e:	48 8b 44 24 50       	mov    0x50(%rsp),%rax
  10d263:	48 89 04 24          	mov    %rax,(%rsp)
  10d267:	48 8b 74 24 58       	mov    0x58(%rsp),%rsi
  10d26c:	48 89 74 24 08       	mov    %rsi,0x8(%rsp)
  10d271:	48 8b 54 24 60       	mov    0x60(%rsp),%rdx
  10d276:	48 89 54 24 10       	mov    %rdx,0x10(%rsp)
  10d27b:	48 89 8c 24 b8 00 00 	mov    %rcx,0xb8(%rsp)
  10d282:	00 
  10d283:	48 89 84 24 c0 00 00 	mov    %rax,0xc0(%rsp)
  10d28a:	00 
  10d28b:	48 89 b4 24 c8 00 00 	mov    %rsi,0xc8(%rsp)
  10d292:	00 
  10d293:	48 89 94 24 d0 00 00 	mov    %rdx,0xd0(%rsp)
  10d29a:	00 
  10d29b:	48 39 c8             	cmp    %rcx,%rax
  10d29e:	73 0a                	jae    10d2aa <_ZN106_$LT$core..ops..range..Range$LT$usize$GT$$u20$as$u20$core..slice..index..SliceIndex$LT$$u5b$T$u5d$$GT$$GT$17get_unchecked_mut17h3bee516fe26d18f6E+0x10a>
  10d2a0:	c6 84 24 b7 00 00 00 	movb   $0x0,0xb7(%rsp)
  10d2a7:	00 
  10d2a8:	eb 35                	jmp    10d2df <_ZN106_$LT$core..ops..range..Range$LT$usize$GT$$u20$as$u20$core..slice..index..SliceIndex$LT$$u5b$T$u5d$$GT$$GT$17get_unchecked_mut17h3bee516fe26d18f6E+0x13f>
  10d2aa:	48 8b 74 24 10       	mov    0x10(%rsp),%rsi
  10d2af:	48 8b 7c 24 08       	mov    0x8(%rsp),%rdi
  10d2b4:	48 89 bc 24 d8 00 00 	mov    %rdi,0xd8(%rsp)
  10d2bb:	00 
  10d2bc:	48 89 b4 24 e0 00 00 	mov    %rsi,0xe0(%rsp)
  10d2c3:	00 
  10d2c4:	e8 f7 91 ff ff       	callq  1064c0 <_ZN4core3ptr8metadata8metadata17he216e17a006137dbE>
  10d2c9:	48 89 c1             	mov    %rax,%rcx
  10d2cc:	48 8b 04 24          	mov    (%rsp),%rax
  10d2d0:	48 39 c8             	cmp    %rcx,%rax
  10d2d3:	0f 96 c0             	setbe  %al
  10d2d6:	24 01                	and    $0x1,%al
  10d2d8:	88 84 24 b7 00 00 00 	mov    %al,0xb7(%rsp)
  10d2df:	8a 84 24 b7 00 00 00 	mov    0xb7(%rsp),%al
  10d2e6:	34 ff                	xor    $0xff,%al
  10d2e8:	a8 01                	test   $0x1,%al
  10d2ea:	75 02                	jne    10d2ee <_ZN106_$LT$core..ops..range..Range$LT$usize$GT$$u20$as$u20$core..slice..index..SliceIndex$LT$$u5b$T$u5d$$GT$$GT$17get_unchecked_mut17h3bee516fe26d18f6E+0x14e>
  10d2ec:	eb 13                	jmp    10d301 <_ZN106_$LT$core..ops..range..Range$LT$usize$GT$$u20$as$u20$core..slice..index..SliceIndex$LT$$u5b$T$u5d$$GT$$GT$17get_unchecked_mut17h3bee516fe26d18f6E+0x161>
  10d2ee:	48 8d 3d e1 44 ff ff 	lea    -0xbb1f(%rip),%rdi        # 1017d6 <str.1+0x156>
  10d2f5:	be 65 00 00 00       	mov    $0x65,%esi
  10d2fa:	e8 81 81 ff ff       	callq  105480 <_ZN4core9panicking14panic_nounwind17hbf97f84b8fd59176E>
  10d2ff:	0f 0b                	ud2    
  10d301:	e9 dc fe ff ff       	jmpq   10d1e2 <_ZN106_$LT$core..ops..range..Range$LT$usize$GT$$u20$as$u20$core..slice..index..SliceIndex$LT$$u5b$T$u5d$$GT$$GT$17get_unchecked_mut17h3bee516fe26d18f6E+0x42>
  10d306:	cc                   	int3   
  10d307:	cc                   	int3   
  10d308:	cc                   	int3   
  10d309:	cc                   	int3   
  10d30a:	cc                   	int3   
  10d30b:	cc                   	int3   
  10d30c:	cc                   	int3   
  10d30d:	cc                   	int3   
  10d30e:	cc                   	int3   
  10d30f:	cc                   	int3   

000000000010d310 <_ZN106_$LT$core..ops..range..Range$LT$usize$GT$$u20$as$u20$core..slice..index..SliceIndex$LT$$u5b$T$u5d$$GT$$GT$5index17hfa1efe9110b7c12bE>:
  10d310:	48 83 ec 48          	sub    $0x48,%rsp
  10d314:	4c 89 04 24          	mov    %r8,(%rsp)
  10d318:	48 89 4c 24 08       	mov    %rcx,0x8(%rsp)
  10d31d:	48 89 54 24 10       	mov    %rdx,0x10(%rsp)
  10d322:	48 89 74 24 18       	mov    %rsi,0x18(%rsp)
  10d327:	48 89 7c 24 20       	mov    %rdi,0x20(%rsp)
  10d32c:	48 89 7c 24 28       	mov    %rdi,0x28(%rsp)
  10d331:	48 89 74 24 30       	mov    %rsi,0x30(%rsp)
  10d336:	48 89 54 24 38       	mov    %rdx,0x38(%rsp)
  10d33b:	48 89 4c 24 40       	mov    %rcx,0x40(%rsp)
  10d340:	48 39 f7             	cmp    %rsi,%rdi
  10d343:	77 11                	ja     10d356 <_ZN106_$LT$core..ops..range..Range$LT$usize$GT$$u20$as$u20$core..slice..index..SliceIndex$LT$$u5b$T$u5d$$GT$$GT$5index17hfa1efe9110b7c12bE+0x46>
  10d345:	48 8b 44 24 18       	mov    0x18(%rsp),%rax
  10d34a:	48 8b 4c 24 08       	mov    0x8(%rsp),%rcx
  10d34f:	48 39 c8             	cmp    %rcx,%rax
  10d352:	77 35                	ja     10d389 <_ZN106_$LT$core..ops..range..Range$LT$usize$GT$$u20$as$u20$core..slice..index..SliceIndex$LT$$u5b$T$u5d$$GT$$GT$5index17hfa1efe9110b7c12bE+0x79>
  10d354:	eb 15                	jmp    10d36b <_ZN106_$LT$core..ops..range..Range$LT$usize$GT$$u20$as$u20$core..slice..index..SliceIndex$LT$$u5b$T$u5d$$GT$$GT$5index17hfa1efe9110b7c12bE+0x5b>
  10d356:	48 8b 14 24          	mov    (%rsp),%rdx
  10d35a:	48 8b 74 24 18       	mov    0x18(%rsp),%rsi
  10d35f:	48 8b 7c 24 20       	mov    0x20(%rsp),%rdi
  10d364:	e8 a7 be ff ff       	callq  109210 <_ZN4core5slice5index22slice_index_order_fail17hf528346f735002e9E>
  10d369:	0f 0b                	ud2    
  10d36b:	48 8b 4c 24 08       	mov    0x8(%rsp),%rcx
  10d370:	48 8b 54 24 10       	mov    0x10(%rsp),%rdx
  10d375:	48 8b 74 24 18       	mov    0x18(%rsp),%rsi
  10d37a:	48 8b 7c 24 20       	mov    0x20(%rsp),%rdi
  10d37f:	e8 ac fc ff ff       	callq  10d030 <_ZN106_$LT$core..ops..range..Range$LT$usize$GT$$u20$as$u20$core..slice..index..SliceIndex$LT$$u5b$T$u5d$$GT$$GT$13get_unchecked17h5a66ba3854bb3e51E>
  10d384:	48 83 c4 48          	add    $0x48,%rsp
  10d388:	c3                   	retq   
  10d389:	48 8b 14 24          	mov    (%rsp),%rdx
  10d38d:	48 8b 74 24 08       	mov    0x8(%rsp),%rsi
  10d392:	48 8b 7c 24 18       	mov    0x18(%rsp),%rdi
  10d397:	e8 64 bd ff ff       	callq  109100 <_ZN4core5slice5index24slice_end_index_len_fail17hcb665b9362076296E>
  10d39c:	0f 0b                	ud2    
  10d39e:	cc                   	int3   
  10d39f:	cc                   	int3   

000000000010d3a0 <_ZN106_$LT$core..ops..range..Range$LT$usize$GT$$u20$as$u20$core..slice..index..SliceIndex$LT$$u5b$T$u5d$$GT$$GT$9index_mut17h0fe2c136dd061a50E>:
  10d3a0:	48 83 ec 48          	sub    $0x48,%rsp
  10d3a4:	4c 89 04 24          	mov    %r8,(%rsp)
  10d3a8:	48 89 4c 24 08       	mov    %rcx,0x8(%rsp)
  10d3ad:	48 89 54 24 10       	mov    %rdx,0x10(%rsp)
  10d3b2:	48 89 74 24 18       	mov    %rsi,0x18(%rsp)
  10d3b7:	48 89 7c 24 20       	mov    %rdi,0x20(%rsp)
  10d3bc:	48 89 7c 24 28       	mov    %rdi,0x28(%rsp)
  10d3c1:	48 89 74 24 30       	mov    %rsi,0x30(%rsp)
  10d3c6:	48 89 54 24 38       	mov    %rdx,0x38(%rsp)
  10d3cb:	48 89 4c 24 40       	mov    %rcx,0x40(%rsp)
  10d3d0:	48 39 f7             	cmp    %rsi,%rdi
  10d3d3:	77 11                	ja     10d3e6 <_ZN106_$LT$core..ops..range..Range$LT$usize$GT$$u20$as$u20$core..slice..index..SliceIndex$LT$$u5b$T$u5d$$GT$$GT$9index_mut17h0fe2c136dd061a50E+0x46>
  10d3d5:	48 8b 44 24 18       	mov    0x18(%rsp),%rax
  10d3da:	48 8b 4c 24 08       	mov    0x8(%rsp),%rcx
  10d3df:	48 39 c8             	cmp    %rcx,%rax
  10d3e2:	77 35                	ja     10d419 <_ZN106_$LT$core..ops..range..Range$LT$usize$GT$$u20$as$u20$core..slice..index..SliceIndex$LT$$u5b$T$u5d$$GT$$GT$9index_mut17h0fe2c136dd061a50E+0x79>
  10d3e4:	eb 15                	jmp    10d3fb <_ZN106_$LT$core..ops..range..Range$LT$usize$GT$$u20$as$u20$core..slice..index..SliceIndex$LT$$u5b$T$u5d$$GT$$GT$9index_mut17h0fe2c136dd061a50E+0x5b>
  10d3e6:	48 8b 14 24          	mov    (%rsp),%rdx
  10d3ea:	48 8b 74 24 18       	mov    0x18(%rsp),%rsi
  10d3ef:	48 8b 7c 24 20       	mov    0x20(%rsp),%rdi
  10d3f4:	e8 17 be ff ff       	callq  109210 <_ZN4core5slice5index22slice_index_order_fail17hf528346f735002e9E>
  10d3f9:	0f 0b                	ud2    
  10d3fb:	48 8b 4c 24 08       	mov    0x8(%rsp),%rcx
  10d400:	48 8b 54 24 10       	mov    0x10(%rsp),%rdx
  10d405:	48 8b 74 24 18       	mov    0x18(%rsp),%rsi
  10d40a:	48 8b 7c 24 20       	mov    0x20(%rsp),%rdi
  10d40f:	e8 8c fd ff ff       	callq  10d1a0 <_ZN106_$LT$core..ops..range..Range$LT$usize$GT$$u20$as$u20$core..slice..index..SliceIndex$LT$$u5b$T$u5d$$GT$$GT$17get_unchecked_mut17h3bee516fe26d18f6E>
  10d414:	48 83 c4 48          	add    $0x48,%rsp
  10d418:	c3                   	retq   
  10d419:	48 8b 14 24          	mov    (%rsp),%rdx
  10d41d:	48 8b 74 24 08       	mov    0x8(%rsp),%rsi
  10d422:	48 8b 7c 24 18       	mov    0x18(%rsp),%rdi
  10d427:	e8 d4 bc ff ff       	callq  109100 <_ZN4core5slice5index24slice_end_index_len_fail17hcb665b9362076296E>
  10d42c:	0f 0b                	ud2    
  10d42e:	cc                   	int3   
  10d42f:	cc                   	int3   

000000000010d430 <_ZN108_$LT$core..ops..range..RangeTo$LT$usize$GT$$u20$as$u20$core..slice..index..SliceIndex$LT$$u5b$T$u5d$$GT$$GT$9index_mut17h4479a0204ae328caE>:
  10d430:	48 83 ec 28          	sub    $0x28,%rsp
  10d434:	49 89 c8             	mov    %rcx,%r8
  10d437:	48 89 d1             	mov    %rdx,%rcx
  10d43a:	48 89 f2             	mov    %rsi,%rdx
  10d43d:	48 89 7c 24 10       	mov    %rdi,0x10(%rsp)
  10d442:	48 89 54 24 18       	mov    %rdx,0x18(%rsp)
  10d447:	48 89 4c 24 20       	mov    %rcx,0x20(%rsp)
  10d44c:	48 c7 04 24 00 00 00 	movq   $0x0,(%rsp)
  10d453:	00 
  10d454:	48 89 7c 24 08       	mov    %rdi,0x8(%rsp)
  10d459:	48 8b 3c 24          	mov    (%rsp),%rdi
  10d45d:	48 8b 74 24 08       	mov    0x8(%rsp),%rsi
  10d462:	e8 39 ff ff ff       	callq  10d3a0 <_ZN106_$LT$core..ops..range..Range$LT$usize$GT$$u20$as$u20$core..slice..index..SliceIndex$LT$$u5b$T$u5d$$GT$$GT$9index_mut17h0fe2c136dd061a50E>
  10d467:	48 83 c4 28          	add    $0x28,%rsp
  10d46b:	c3                   	retq   
  10d46c:	cc                   	int3   
  10d46d:	cc                   	int3   
  10d46e:	cc                   	int3   
  10d46f:	cc                   	int3   

000000000010d470 <_ZN110_$LT$core..ops..range..RangeFrom$LT$usize$GT$$u20$as$u20$core..slice..index..SliceIndex$LT$$u5b$T$u5d$$GT$$GT$13get_unchecked17h9595f6a6823fdf98E>:
  10d470:	48 83 ec 48          	sub    $0x48,%rsp
  10d474:	48 89 54 24 18       	mov    %rdx,0x18(%rsp)
  10d479:	48 89 f0             	mov    %rsi,%rax
  10d47c:	48 8b 74 24 18       	mov    0x18(%rsp),%rsi
  10d481:	48 89 44 24 10       	mov    %rax,0x10(%rsp)
  10d486:	48 89 f8             	mov    %rdi,%rax
  10d489:	48 8b 7c 24 10       	mov    0x10(%rsp),%rdi
  10d48e:	48 89 44 24 08       	mov    %rax,0x8(%rsp)
  10d493:	48 89 44 24 30       	mov    %rax,0x30(%rsp)
  10d498:	48 89 7c 24 38       	mov    %rdi,0x38(%rsp)
  10d49d:	48 89 74 24 40       	mov    %rsi,0x40(%rsp)
  10d4a2:	e8 09 e0 ff ff       	callq  10b4b0 <_ZN4core3ptr9const_ptr43_$LT$impl$u20$$BP$const$u20$$u5b$T$u5d$$GT$3len17h2025d8233704ca40E>
  10d4a7:	48 8b 7c 24 08       	mov    0x8(%rsp),%rdi
  10d4ac:	48 8b 54 24 10       	mov    0x10(%rsp),%rdx
  10d4b1:	48 8b 4c 24 18       	mov    0x18(%rsp),%rcx
  10d4b6:	48 89 7c 24 20       	mov    %rdi,0x20(%rsp)
  10d4bb:	48 89 44 24 28       	mov    %rax,0x28(%rsp)
  10d4c0:	48 8b 7c 24 20       	mov    0x20(%rsp),%rdi
  10d4c5:	48 8b 74 24 28       	mov    0x28(%rsp),%rsi
  10d4ca:	e8 61 fb ff ff       	callq  10d030 <_ZN106_$LT$core..ops..range..Range$LT$usize$GT$$u20$as$u20$core..slice..index..SliceIndex$LT$$u5b$T$u5d$$GT$$GT$13get_unchecked17h5a66ba3854bb3e51E>
  10d4cf:	48 83 c4 48          	add    $0x48,%rsp
  10d4d3:	c3                   	retq   
  10d4d4:	cc                   	int3   
  10d4d5:	cc                   	int3   
  10d4d6:	cc                   	int3   
  10d4d7:	cc                   	int3   
  10d4d8:	cc                   	int3   
  10d4d9:	cc                   	int3   
  10d4da:	cc                   	int3   
  10d4db:	cc                   	int3   
  10d4dc:	cc                   	int3   
  10d4dd:	cc                   	int3   
  10d4de:	cc                   	int3   
  10d4df:	cc                   	int3   

000000000010d4e0 <_ZN110_$LT$core..ops..range..RangeFrom$LT$usize$GT$$u20$as$u20$core..slice..index..SliceIndex$LT$$u5b$T$u5d$$GT$$GT$13get_unchecked17he6a9907ac5cad181E>:
  10d4e0:	48 83 ec 48          	sub    $0x48,%rsp
  10d4e4:	48 89 54 24 18       	mov    %rdx,0x18(%rsp)
  10d4e9:	48 89 f0             	mov    %rsi,%rax
  10d4ec:	48 8b 74 24 18       	mov    0x18(%rsp),%rsi
  10d4f1:	48 89 44 24 10       	mov    %rax,0x10(%rsp)
  10d4f6:	48 89 f8             	mov    %rdi,%rax
  10d4f9:	48 8b 7c 24 10       	mov    0x10(%rsp),%rdi
  10d4fe:	48 89 44 24 08       	mov    %rax,0x8(%rsp)
  10d503:	48 89 44 24 30       	mov    %rax,0x30(%rsp)
  10d508:	48 89 7c 24 38       	mov    %rdi,0x38(%rsp)
  10d50d:	48 89 74 24 40       	mov    %rsi,0x40(%rsp)
  10d512:	e8 d9 df ff ff       	callq  10b4f0 <_ZN4core3ptr9const_ptr43_$LT$impl$u20$$BP$const$u20$$u5b$T$u5d$$GT$3len17hc4a3ada742fc702cE>
  10d517:	48 8b 7c 24 08       	mov    0x8(%rsp),%rdi
  10d51c:	48 8b 54 24 10       	mov    0x10(%rsp),%rdx
  10d521:	48 8b 4c 24 18       	mov    0x18(%rsp),%rcx
  10d526:	48 89 7c 24 20       	mov    %rdi,0x20(%rsp)
  10d52b:	48 89 44 24 28       	mov    %rax,0x28(%rsp)
  10d530:	48 8b 7c 24 20       	mov    0x20(%rsp),%rdi
  10d535:	48 8b 74 24 28       	mov    0x28(%rsp),%rsi
  10d53a:	e8 81 f9 ff ff       	callq  10cec0 <_ZN106_$LT$core..ops..range..Range$LT$usize$GT$$u20$as$u20$core..slice..index..SliceIndex$LT$$u5b$T$u5d$$GT$$GT$13get_unchecked17h3ca1eeed7843c3f5E>
  10d53f:	48 83 c4 48          	add    $0x48,%rsp
  10d543:	c3                   	retq   
  10d544:	cc                   	int3   
  10d545:	cc                   	int3   
  10d546:	cc                   	int3   
  10d547:	cc                   	int3   
  10d548:	cc                   	int3   
  10d549:	cc                   	int3   
  10d54a:	cc                   	int3   
  10d54b:	cc                   	int3   
  10d54c:	cc                   	int3   
  10d54d:	cc                   	int3   
  10d54e:	cc                   	int3   
  10d54f:	cc                   	int3   

000000000010d550 <_ZN110_$LT$core..ops..range..RangeFrom$LT$usize$GT$$u20$as$u20$core..slice..index..SliceIndex$LT$$u5b$T$u5d$$GT$$GT$5index17h4252d9ba5dffc0e8E>:
  10d550:	48 83 ec 38          	sub    $0x38,%rsp
  10d554:	48 89 0c 24          	mov    %rcx,(%rsp)
  10d558:	48 89 54 24 08       	mov    %rdx,0x8(%rsp)
  10d55d:	48 89 74 24 10       	mov    %rsi,0x10(%rsp)
  10d562:	48 89 7c 24 18       	mov    %rdi,0x18(%rsp)
  10d567:	48 89 7c 24 20       	mov    %rdi,0x20(%rsp)
  10d56c:	48 89 74 24 28       	mov    %rsi,0x28(%rsp)
  10d571:	48 89 54 24 30       	mov    %rdx,0x30(%rsp)
  10d576:	48 39 d7             	cmp    %rdx,%rdi
  10d579:	77 19                	ja     10d594 <_ZN110_$LT$core..ops..range..RangeFrom$LT$usize$GT$$u20$as$u20$core..slice..index..SliceIndex$LT$$u5b$T$u5d$$GT$$GT$5index17h4252d9ba5dffc0e8E+0x44>
  10d57b:	48 8b 54 24 08       	mov    0x8(%rsp),%rdx
  10d580:	48 8b 74 24 10       	mov    0x10(%rsp),%rsi
  10d585:	48 8b 7c 24 18       	mov    0x18(%rsp),%rdi
  10d58a:	e8 51 ff ff ff       	callq  10d4e0 <_ZN110_$LT$core..ops..range..RangeFrom$LT$usize$GT$$u20$as$u20$core..slice..index..SliceIndex$LT$$u5b$T$u5d$$GT$$GT$13get_unchecked17he6a9907ac5cad181E>
  10d58f:	48 83 c4 38          	add    $0x38,%rsp
  10d593:	c3                   	retq   
  10d594:	48 8b 14 24          	mov    (%rsp),%rdx
  10d598:	48 8b 74 24 08       	mov    0x8(%rsp),%rsi
  10d59d:	48 8b 7c 24 18       	mov    0x18(%rsp),%rdi
  10d5a2:	e8 49 ba ff ff       	callq  108ff0 <_ZN4core5slice5index26slice_start_index_len_fail17hd0e8f5ae1e1fbd13E>
  10d5a7:	0f 0b                	ud2    
  10d5a9:	cc                   	int3   
  10d5aa:	cc                   	int3   
  10d5ab:	cc                   	int3   
  10d5ac:	cc                   	int3   
  10d5ad:	cc                   	int3   
  10d5ae:	cc                   	int3   
  10d5af:	cc                   	int3   

000000000010d5b0 <_ZN110_$LT$core..ops..range..RangeFrom$LT$usize$GT$$u20$as$u20$core..slice..index..SliceIndex$LT$$u5b$T$u5d$$GT$$GT$5index17h69c257c2be443331E>:
  10d5b0:	48 83 ec 38          	sub    $0x38,%rsp
  10d5b4:	48 89 0c 24          	mov    %rcx,(%rsp)
  10d5b8:	48 89 54 24 08       	mov    %rdx,0x8(%rsp)
  10d5bd:	48 89 74 24 10       	mov    %rsi,0x10(%rsp)
  10d5c2:	48 89 7c 24 18       	mov    %rdi,0x18(%rsp)
  10d5c7:	48 89 7c 24 20       	mov    %rdi,0x20(%rsp)
  10d5cc:	48 89 74 24 28       	mov    %rsi,0x28(%rsp)
  10d5d1:	48 89 54 24 30       	mov    %rdx,0x30(%rsp)
  10d5d6:	48 39 d7             	cmp    %rdx,%rdi
  10d5d9:	77 19                	ja     10d5f4 <_ZN110_$LT$core..ops..range..RangeFrom$LT$usize$GT$$u20$as$u20$core..slice..index..SliceIndex$LT$$u5b$T$u5d$$GT$$GT$5index17h69c257c2be443331E+0x44>
  10d5db:	48 8b 54 24 08       	mov    0x8(%rsp),%rdx
  10d5e0:	48 8b 74 24 10       	mov    0x10(%rsp),%rsi
  10d5e5:	48 8b 7c 24 18       	mov    0x18(%rsp),%rdi
  10d5ea:	e8 81 fe ff ff       	callq  10d470 <_ZN110_$LT$core..ops..range..RangeFrom$LT$usize$GT$$u20$as$u20$core..slice..index..SliceIndex$LT$$u5b$T$u5d$$GT$$GT$13get_unchecked17h9595f6a6823fdf98E>
  10d5ef:	48 83 c4 38          	add    $0x38,%rsp
  10d5f3:	c3                   	retq   
  10d5f4:	48 8b 14 24          	mov    (%rsp),%rdx
  10d5f8:	48 8b 74 24 08       	mov    0x8(%rsp),%rsi
  10d5fd:	48 8b 7c 24 18       	mov    0x18(%rsp),%rdi
  10d602:	e8 e9 b9 ff ff       	callq  108ff0 <_ZN4core5slice5index26slice_start_index_len_fail17hd0e8f5ae1e1fbd13E>
  10d607:	0f 0b                	ud2    
  10d609:	cc                   	int3   
  10d60a:	cc                   	int3   
  10d60b:	cc                   	int3   
  10d60c:	cc                   	int3   
  10d60d:	cc                   	int3   
  10d60e:	cc                   	int3   
  10d60f:	cc                   	int3   

000000000010d610 <_ZN97_$LT$core..ops..range..RangeFull$u20$as$u20$core..slice..index..SliceIndex$LT$$u5b$T$u5d$$GT$$GT$9index_mut17h1d6296a9abf6fae6E>:
  10d610:	48 83 ec 20          	sub    $0x20,%rsp
  10d614:	48 89 f2             	mov    %rsi,%rdx
  10d617:	48 89 f8             	mov    %rdi,%rax
  10d61a:	48 89 44 24 10       	mov    %rax,0x10(%rsp)
  10d61f:	48 89 54 24 18       	mov    %rdx,0x18(%rsp)
  10d624:	48 83 c4 20          	add    $0x20,%rsp
  10d628:	c3                   	retq   
  10d629:	cc                   	int3   
  10d62a:	cc                   	int3   
  10d62b:	cc                   	int3   
  10d62c:	cc                   	int3   
  10d62d:	cc                   	int3   
  10d62e:	cc                   	int3   
  10d62f:	cc                   	int3   

000000000010d630 <_ZN4core3str6traits108_$LT$impl$u20$core..slice..index..SliceIndex$LT$str$GT$$u20$for$u20$core..ops..range..Range$LT$usize$GT$$GT$13get_unchecked17h5fbe8bd7b4be1a05E>:
  10d630:	48 81 ec f8 00 00 00 	sub    $0xf8,%rsp
  10d637:	48 89 4c 24 30       	mov    %rcx,0x30(%rsp)
  10d63c:	48 89 54 24 38       	mov    %rdx,0x38(%rsp)
  10d641:	48 89 74 24 40       	mov    %rsi,0x40(%rsp)
  10d646:	48 89 7c 24 48       	mov    %rdi,0x48(%rsp)
  10d64b:	48 89 bc 24 80 00 00 	mov    %rdi,0x80(%rsp)
  10d652:	00 
  10d653:	48 89 b4 24 88 00 00 	mov    %rsi,0x88(%rsp)
  10d65a:	00 
  10d65b:	48 89 94 24 90 00 00 	mov    %rdx,0x90(%rsp)
  10d662:	00 
  10d663:	48 89 8c 24 98 00 00 	mov    %rcx,0x98(%rsp)
  10d66a:	00 
  10d66b:	48 89 94 24 a0 00 00 	mov    %rdx,0xa0(%rsp)
  10d672:	00 
  10d673:	48 89 8c 24 a8 00 00 	mov    %rcx,0xa8(%rsp)
  10d67a:	00 
  10d67b:	48 89 7c 24 50       	mov    %rdi,0x50(%rsp)
  10d680:	48 89 74 24 58       	mov    %rsi,0x58(%rsp)
  10d685:	b0 01                	mov    $0x1,%al
  10d687:	a8 01                	test   $0x1,%al
  10d689:	75 5a                	jne    10d6e5 <_ZN4core3str6traits108_$LT$impl$u20$core..slice..index..SliceIndex$LT$str$GT$$u20$for$u20$core..ops..range..Range$LT$usize$GT$$GT$13get_unchecked17h5fbe8bd7b4be1a05E+0xb5>
  10d68b:	48 8b 74 24 30       	mov    0x30(%rsp),%rsi
  10d690:	48 8b 7c 24 38       	mov    0x38(%rsp),%rdi
  10d695:	e8 76 de ff ff       	callq  10b510 <_ZN4core3ptr9const_ptr43_$LT$impl$u20$$BP$const$u20$$u5b$T$u5d$$GT$6as_ptr17h41b895457b254e1bE>
  10d69a:	48 8b 4c 24 48       	mov    0x48(%rsp),%rcx
  10d69f:	48 89 c2             	mov    %rax,%rdx
  10d6a2:	48 8b 44 24 40       	mov    0x40(%rsp),%rax
  10d6a7:	48 89 94 24 c0 00 00 	mov    %rdx,0xc0(%rsp)
  10d6ae:	00 
  10d6af:	48 89 8c 24 c8 00 00 	mov    %rcx,0xc8(%rsp)
  10d6b6:	00 
  10d6b7:	48 01 ca             	add    %rcx,%rdx
  10d6ba:	48 89 54 24 20       	mov    %rdx,0x20(%rsp)
  10d6bf:	48 89 94 24 b0 00 00 	mov    %rdx,0xb0(%rsp)
  10d6c6:	00 
  10d6c7:	48 89 c2             	mov    %rax,%rdx
  10d6ca:	48 29 ca             	sub    %rcx,%rdx
  10d6cd:	48 89 54 24 28       	mov    %rdx,0x28(%rsp)
  10d6d2:	48 39 c8             	cmp    %rcx,%rax
  10d6d5:	0f 92 c0             	setb   %al
  10d6d8:	a8 01                	test   $0x1,%al
  10d6da:	0f 85 eb 00 00 00    	jne    10d7cb <_ZN4core3str6traits108_$LT$impl$u20$core..slice..index..SliceIndex$LT$str$GT$$u20$for$u20$core..ops..range..Range$LT$usize$GT$$GT$13get_unchecked17h5fbe8bd7b4be1a05E+0x19b>
  10d6e0:	e9 c7 00 00 00       	jmpq   10d7ac <_ZN4core3str6traits108_$LT$impl$u20$core..slice..index..SliceIndex$LT$str$GT$$u20$for$u20$core..ops..range..Range$LT$usize$GT$$GT$13get_unchecked17h5fbe8bd7b4be1a05E+0x17c>
  10d6e5:	48 8b 44 24 30       	mov    0x30(%rsp),%rax
  10d6ea:	48 8b 4c 24 38       	mov    0x38(%rsp),%rcx
  10d6ef:	48 8b 74 24 50       	mov    0x50(%rsp),%rsi
  10d6f4:	48 8b 54 24 58       	mov    0x58(%rsp),%rdx
  10d6f9:	48 89 74 24 60       	mov    %rsi,0x60(%rsp)
  10d6fe:	48 89 54 24 68       	mov    %rdx,0x68(%rsp)
  10d703:	48 89 4c 24 70       	mov    %rcx,0x70(%rsp)
  10d708:	48 89 44 24 78       	mov    %rax,0x78(%rsp)
  10d70d:	48 8b 4c 24 60       	mov    0x60(%rsp),%rcx
  10d712:	48 8b 44 24 68       	mov    0x68(%rsp),%rax
  10d717:	48 89 44 24 08       	mov    %rax,0x8(%rsp)
  10d71c:	48 8b 74 24 70       	mov    0x70(%rsp),%rsi
  10d721:	48 89 74 24 10       	mov    %rsi,0x10(%rsp)
  10d726:	48 8b 54 24 78       	mov    0x78(%rsp),%rdx
  10d72b:	48 89 54 24 18       	mov    %rdx,0x18(%rsp)
  10d730:	48 89 8c 24 d8 00 00 	mov    %rcx,0xd8(%rsp)
  10d737:	00 
  10d738:	48 89 84 24 e0 00 00 	mov    %rax,0xe0(%rsp)
  10d73f:	00 
  10d740:	48 89 b4 24 e8 00 00 	mov    %rsi,0xe8(%rsp)
  10d747:	00 
  10d748:	48 89 94 24 f0 00 00 	mov    %rdx,0xf0(%rsp)
  10d74f:	00 
  10d750:	48 39 c8             	cmp    %rcx,%rax
  10d753:	73 0a                	jae    10d75f <_ZN4core3str6traits108_$LT$impl$u20$core..slice..index..SliceIndex$LT$str$GT$$u20$for$u20$core..ops..range..Range$LT$usize$GT$$GT$13get_unchecked17h5fbe8bd7b4be1a05E+0x12f>
  10d755:	c6 84 24 d7 00 00 00 	movb   $0x0,0xd7(%rsp)
  10d75c:	00 
  10d75d:	eb 26                	jmp    10d785 <_ZN4core3str6traits108_$LT$impl$u20$core..slice..index..SliceIndex$LT$str$GT$$u20$for$u20$core..ops..range..Range$LT$usize$GT$$GT$13get_unchecked17h5fbe8bd7b4be1a05E+0x155>
  10d75f:	48 8b 74 24 18       	mov    0x18(%rsp),%rsi
  10d764:	48 8b 7c 24 10       	mov    0x10(%rsp),%rdi
  10d769:	e8 42 dd ff ff       	callq  10b4b0 <_ZN4core3ptr9const_ptr43_$LT$impl$u20$$BP$const$u20$$u5b$T$u5d$$GT$3len17h2025d8233704ca40E>
  10d76e:	48 89 c1             	mov    %rax,%rcx
  10d771:	48 8b 44 24 08       	mov    0x8(%rsp),%rax
  10d776:	48 39 c8             	cmp    %rcx,%rax
  10d779:	0f 96 c0             	setbe  %al
  10d77c:	24 01                	and    $0x1,%al
  10d77e:	88 84 24 d7 00 00 00 	mov    %al,0xd7(%rsp)
  10d785:	8a 84 24 d7 00 00 00 	mov    0xd7(%rsp),%al
  10d78c:	34 ff                	xor    $0xff,%al
  10d78e:	a8 01                	test   $0x1,%al
  10d790:	75 02                	jne    10d794 <_ZN4core3str6traits108_$LT$impl$u20$core..slice..index..SliceIndex$LT$str$GT$$u20$for$u20$core..ops..range..Range$LT$usize$GT$$GT$13get_unchecked17h5fbe8bd7b4be1a05E+0x164>
  10d792:	eb 13                	jmp    10d7a7 <_ZN4core3str6traits108_$LT$impl$u20$core..slice..index..SliceIndex$LT$str$GT$$u20$for$u20$core..ops..range..Range$LT$usize$GT$$GT$13get_unchecked17h5fbe8bd7b4be1a05E+0x177>
  10d794:	48 8d 3d a0 40 ff ff 	lea    -0xbf60(%rip),%rdi        # 10183b <str.1+0x1bb>
  10d79b:	be 66 00 00 00       	mov    $0x66,%esi
  10d7a0:	e8 db 7c ff ff       	callq  105480 <_ZN4core9panicking14panic_nounwind17hbf97f84b8fd59176E>
  10d7a5:	0f 0b                	ud2    
  10d7a7:	e9 df fe ff ff       	jmpq   10d68b <_ZN4core3str6traits108_$LT$impl$u20$core..slice..index..SliceIndex$LT$str$GT$$u20$for$u20$core..ops..range..Range$LT$usize$GT$$GT$13get_unchecked17h5fbe8bd7b4be1a05E+0x5b>
  10d7ac:	48 8b 74 24 28       	mov    0x28(%rsp),%rsi
  10d7b1:	48 8b 7c 24 20       	mov    0x20(%rsp),%rdi
  10d7b6:	48 89 b4 24 b8 00 00 	mov    %rsi,0xb8(%rsp)
  10d7bd:	00 
  10d7be:	e8 8d 06 00 00       	callq  10de50 <_ZN4core3ptr20slice_from_raw_parts17hbd64ee62e243d2a3E>
  10d7c3:	48 81 c4 f8 00 00 00 	add    $0xf8,%rsp
  10d7ca:	c3                   	retq   
  10d7cb:	48 8d 3d ae 3e ff ff 	lea    -0xc152(%rip),%rdi        # 101680 <str.1>
  10d7d2:	48 8d 15 c7 4b 00 00 	lea    0x4bc7(%rip),%rdx        # 1123a0 <_ZN4core3fmt2rt12USIZE_MARKER17h1b31419084dfd5e3E+0x9a8>
  10d7d9:	be 21 00 00 00       	mov    $0x21,%esi
  10d7de:	e8 4d 7c ff ff       	callq  105430 <_ZN4core9panicking5panic17h4e18ef80ec7677b0E>
  10d7e3:	0f 0b                	ud2    
  10d7e5:	cc                   	int3   
  10d7e6:	cc                   	int3   
  10d7e7:	cc                   	int3   
  10d7e8:	cc                   	int3   
  10d7e9:	cc                   	int3   
  10d7ea:	cc                   	int3   
  10d7eb:	cc                   	int3   
  10d7ec:	cc                   	int3   
  10d7ed:	cc                   	int3   
  10d7ee:	cc                   	int3   
  10d7ef:	cc                   	int3   

000000000010d7f0 <_ZN4core3str6traits110_$LT$impl$u20$core..slice..index..SliceIndex$LT$str$GT$$u20$for$u20$core..ops..range..RangeTo$LT$usize$GT$$GT$3get17h8e0882a3bf1b047fE>:
  10d7f0:	48 83 ec 48          	sub    $0x48,%rsp
  10d7f4:	48 89 54 24 08       	mov    %rdx,0x8(%rsp)
  10d7f9:	48 89 f0             	mov    %rsi,%rax
  10d7fc:	48 8b 74 24 08       	mov    0x8(%rsp),%rsi
  10d801:	48 89 44 24 10       	mov    %rax,0x10(%rsp)
  10d806:	48 89 fa             	mov    %rdi,%rdx
  10d809:	48 8b 7c 24 10       	mov    0x10(%rsp),%rdi
  10d80e:	48 89 54 24 18       	mov    %rdx,0x18(%rsp)
  10d813:	48 89 54 24 30       	mov    %rdx,0x30(%rsp)
  10d818:	48 89 7c 24 38       	mov    %rdi,0x38(%rsp)
  10d81d:	48 89 74 24 40       	mov    %rsi,0x40(%rsp)
  10d822:	e8 69 0c 00 00       	callq  10e490 <_ZN4core3str21_$LT$impl$u20$str$GT$16is_char_boundary17h9f8002c85933d8d6E>
  10d827:	a8 01                	test   $0x1,%al
  10d829:	75 0b                	jne    10d836 <_ZN4core3str6traits110_$LT$impl$u20$core..slice..index..SliceIndex$LT$str$GT$$u20$for$u20$core..ops..range..RangeTo$LT$usize$GT$$GT$3get17h8e0882a3bf1b047fE+0x46>
  10d82b:	48 c7 44 24 20 00 00 	movq   $0x0,0x20(%rsp)
  10d832:	00 00 
  10d834:	eb 1e                	jmp    10d854 <_ZN4core3str6traits110_$LT$impl$u20$core..slice..index..SliceIndex$LT$str$GT$$u20$for$u20$core..ops..range..RangeTo$LT$usize$GT$$GT$3get17h8e0882a3bf1b047fE+0x64>
  10d836:	48 8b 54 24 08       	mov    0x8(%rsp),%rdx
  10d83b:	48 8b 74 24 10       	mov    0x10(%rsp),%rsi
  10d840:	48 8b 7c 24 18       	mov    0x18(%rsp),%rdi
  10d845:	e8 26 00 00 00       	callq  10d870 <_ZN4core3str6traits110_$LT$impl$u20$core..slice..index..SliceIndex$LT$str$GT$$u20$for$u20$core..ops..range..RangeTo$LT$usize$GT$$GT$13get_unchecked17h2fb6871f819a12b5E>
  10d84a:	48 89 44 24 20       	mov    %rax,0x20(%rsp)
  10d84f:	48 89 54 24 28       	mov    %rdx,0x28(%rsp)
  10d854:	48 8b 44 24 20       	mov    0x20(%rsp),%rax
  10d859:	48 8b 54 24 28       	mov    0x28(%rsp),%rdx
  10d85e:	48 83 c4 48          	add    $0x48,%rsp
  10d862:	c3                   	retq   
  10d863:	cc                   	int3   
  10d864:	cc                   	int3   
  10d865:	cc                   	int3   
  10d866:	cc                   	int3   
  10d867:	cc                   	int3   
  10d868:	cc                   	int3   
  10d869:	cc                   	int3   
  10d86a:	cc                   	int3   
  10d86b:	cc                   	int3   
  10d86c:	cc                   	int3   
  10d86d:	cc                   	int3   
  10d86e:	cc                   	int3   
  10d86f:	cc                   	int3   

000000000010d870 <_ZN4core3str6traits110_$LT$impl$u20$core..slice..index..SliceIndex$LT$str$GT$$u20$for$u20$core..ops..range..RangeTo$LT$usize$GT$$GT$13get_unchecked17h2fb6871f819a12b5E>:
  10d870:	48 83 ec 28          	sub    $0x28,%rsp
  10d874:	48 89 d1             	mov    %rdx,%rcx
  10d877:	48 89 f2             	mov    %rsi,%rdx
  10d87a:	48 89 7c 24 10       	mov    %rdi,0x10(%rsp)
  10d87f:	48 89 54 24 18       	mov    %rdx,0x18(%rsp)
  10d884:	48 89 4c 24 20       	mov    %rcx,0x20(%rsp)
  10d889:	48 c7 04 24 00 00 00 	movq   $0x0,(%rsp)
  10d890:	00 
  10d891:	48 89 7c 24 08       	mov    %rdi,0x8(%rsp)
  10d896:	48 8b 3c 24          	mov    (%rsp),%rdi
  10d89a:	48 8b 74 24 08       	mov    0x8(%rsp),%rsi
  10d89f:	e8 8c fd ff ff       	callq  10d630 <_ZN4core3str6traits108_$LT$impl$u20$core..slice..index..SliceIndex$LT$str$GT$$u20$for$u20$core..ops..range..Range$LT$usize$GT$$GT$13get_unchecked17h5fbe8bd7b4be1a05E>
  10d8a4:	48 83 c4 28          	add    $0x28,%rsp
  10d8a8:	c3                   	retq   
  10d8a9:	cc                   	int3   
  10d8aa:	cc                   	int3   
  10d8ab:	cc                   	int3   
  10d8ac:	cc                   	int3   
  10d8ad:	cc                   	int3   
  10d8ae:	cc                   	int3   
  10d8af:	cc                   	int3   

000000000010d8b0 <_ZN81_$LT$core..str..pattern..CharSearcher$u20$as$u20$core..str..pattern..Searcher$GT$8haystack17hb9343fe0693df368E>:
  10d8b0:	50                   	push   %rax
  10d8b1:	48 89 3c 24          	mov    %rdi,(%rsp)
  10d8b5:	48 8b 07             	mov    (%rdi),%rax
  10d8b8:	48 8b 57 08          	mov    0x8(%rdi),%rdx
  10d8bc:	59                   	pop    %rcx
  10d8bd:	c3                   	retq   
  10d8be:	cc                   	int3   
  10d8bf:	cc                   	int3   

000000000010d8c0 <_ZN81_$LT$core..str..pattern..CharSearcher$u20$as$u20$core..str..pattern..Searcher$GT$10next_match17h225529ddd9fe94c6E>:
  10d8c0:	48 81 ec 38 01 00 00 	sub    $0x138,%rsp
  10d8c7:	48 89 74 24 38       	mov    %rsi,0x38(%rsp)
  10d8cc:	48 89 7c 24 40       	mov    %rdi,0x40(%rsp)
  10d8d1:	48 89 7c 24 48       	mov    %rdi,0x48(%rsp)
  10d8d6:	48 89 b4 24 e8 00 00 	mov    %rsi,0xe8(%rsp)
  10d8dd:	00 
  10d8de:	48 8b 44 24 38       	mov    0x38(%rsp),%rax
  10d8e3:	48 8b 38             	mov    (%rax),%rdi
  10d8e6:	48 8b 70 08          	mov    0x8(%rax),%rsi
  10d8ea:	48 89 bc 24 28 01 00 	mov    %rdi,0x128(%rsp)
  10d8f1:	00 
  10d8f2:	48 89 b4 24 30 01 00 	mov    %rsi,0x130(%rsp)
  10d8f9:	00 
  10d8fa:	48 8b 48 10          	mov    0x10(%rax),%rcx
  10d8fe:	48 8b 40 18          	mov    0x18(%rax),%rax
  10d902:	48 89 4c 24 68       	mov    %rcx,0x68(%rsp)
  10d907:	48 89 44 24 70       	mov    %rax,0x70(%rsp)
  10d90c:	48 8b 54 24 68       	mov    0x68(%rsp),%rdx
  10d911:	48 8b 4c 24 70       	mov    0x70(%rsp),%rcx
  10d916:	e8 b5 0e 00 00       	callq  10e7d0 <_ZN4core5slice29_$LT$impl$u20$$u5b$T$u5d$$GT$3get17h0256a46bc42be2ffE>
  10d91b:	48 89 c7             	mov    %rax,%rdi
  10d91e:	48 89 d6             	mov    %rdx,%rsi
  10d921:	e8 1a c5 ff ff       	callq  109e40 <_ZN75_$LT$core..option..Option$LT$T$GT$$u20$as$u20$core..ops..try_trait..Try$GT$6branch17h323e4d64456a61c8E>
  10d926:	48 89 54 24 60       	mov    %rdx,0x60(%rsp)
  10d92b:	48 89 44 24 58       	mov    %rax,0x58(%rsp)
  10d930:	48 8b 54 24 58       	mov    0x58(%rsp),%rdx
  10d935:	31 c0                	xor    %eax,%eax
  10d937:	b9 01 00 00 00       	mov    $0x1,%ecx
  10d93c:	48 83 fa 00          	cmp    $0x0,%rdx
  10d940:	48 0f 44 c1          	cmove  %rcx,%rax
  10d944:	48 83 f8 00          	cmp    $0x0,%rax
  10d948:	75 52                	jne    10d99c <_ZN81_$LT$core..str..pattern..CharSearcher$u20$as$u20$core..str..pattern..Searcher$GT$10next_match17h225529ddd9fe94c6E+0xdc>
  10d94a:	48 8b 44 24 38       	mov    0x38(%rsp),%rax
  10d94f:	48 8b 54 24 58       	mov    0x58(%rsp),%rdx
  10d954:	48 89 54 24 18       	mov    %rdx,0x18(%rsp)
  10d959:	48 8b 4c 24 60       	mov    0x60(%rsp),%rcx
  10d95e:	48 89 4c 24 20       	mov    %rcx,0x20(%rsp)
  10d963:	48 89 94 24 f0 00 00 	mov    %rdx,0xf0(%rsp)
  10d96a:	00 
  10d96b:	48 89 8c 24 f8 00 00 	mov    %rcx,0xf8(%rsp)
  10d972:	00 
  10d973:	48 89 c1             	mov    %rax,%rcx
  10d976:	48 83 c1 28          	add    $0x28,%rcx
  10d97a:	48 89 4c 24 28       	mov    %rcx,0x28(%rsp)
  10d97f:	48 8b 40 20          	mov    0x20(%rax),%rax
  10d983:	48 89 c1             	mov    %rax,%rcx
  10d986:	48 83 e9 01          	sub    $0x1,%rcx
  10d98a:	48 89 4c 24 30       	mov    %rcx,0x30(%rsp)
  10d98f:	48 83 f8 01          	cmp    $0x1,%rax
  10d993:	0f 92 c0             	setb   %al
  10d996:	a8 01                	test   $0x1,%al
  10d998:	75 58                	jne    10d9f2 <_ZN81_$LT$core..str..pattern..CharSearcher$u20$as$u20$core..str..pattern..Searcher$GT$10next_match17h225529ddd9fe94c6E+0x132>
  10d99a:	eb 0f                	jmp    10d9ab <_ZN81_$LT$core..str..pattern..CharSearcher$u20$as$u20$core..str..pattern..Searcher$GT$10next_match17h225529ddd9fe94c6E+0xeb>
  10d99c:	48 8b 7c 24 40       	mov    0x40(%rsp),%rdi
  10d9a1:	e8 6a c6 ff ff       	callq  10a010 <_ZN84_$LT$core..option..Option$LT$T$GT$$u20$as$u20$core..ops..try_trait..FromResidual$GT$13from_residual17hff541c032699cd57E>
  10d9a6:	e9 9f 02 00 00       	jmpq   10dc4a <_ZN81_$LT$core..str..pattern..CharSearcher$u20$as$u20$core..str..pattern..Searcher$GT$10next_match17h225529ddd9fe94c6E+0x38a>
  10d9ab:	48 8b 54 24 30       	mov    0x30(%rsp),%rdx
  10d9b0:	48 8b 7c 24 28       	mov    0x28(%rsp),%rdi
  10d9b5:	be 04 00 00 00       	mov    $0x4,%esi
  10d9ba:	e8 e1 0e 00 00       	callq  10e8a0 <_ZN4core5slice29_$LT$impl$u20$$u5b$T$u5d$$GT$13get_unchecked17h72b7b2957b709cd4E>
  10d9bf:	48 8b 74 24 18       	mov    0x18(%rsp),%rsi
  10d9c4:	48 8b 54 24 20       	mov    0x20(%rsp),%rdx
  10d9c9:	0f b6 38             	movzbl (%rax),%edi
  10d9cc:	40 88 f8             	mov    %dil,%al
  10d9cf:	88 84 24 07 01 00 00 	mov    %al,0x107(%rsp)
  10d9d6:	e8 05 6e ff ff       	callq  1047e0 <_ZN4core5slice6memchr6memchr17h6ef4b0ef55d5f14bE>
  10d9db:	48 89 94 24 80 00 00 	mov    %rdx,0x80(%rsp)
  10d9e2:	00 
  10d9e3:	48 89 44 24 78       	mov    %rax,0x78(%rsp)
  10d9e8:	48 83 7c 24 78 01    	cmpq   $0x1,0x78(%rsp)
  10d9ee:	74 1c                	je     10da0c <_ZN81_$LT$core..str..pattern..CharSearcher$u20$as$u20$core..str..pattern..Searcher$GT$10next_match17h225529ddd9fe94c6E+0x14c>
  10d9f0:	eb 3c                	jmp    10da2e <_ZN81_$LT$core..str..pattern..CharSearcher$u20$as$u20$core..str..pattern..Searcher$GT$10next_match17h225529ddd9fe94c6E+0x16e>
  10d9f2:	48 8d 3d 87 3c ff ff 	lea    -0xc379(%rip),%rdi        # 101680 <str.1>
  10d9f9:	48 8d 15 b8 49 00 00 	lea    0x49b8(%rip),%rdx        # 1123b8 <_ZN4core3fmt2rt12USIZE_MARKER17h1b31419084dfd5e3E+0x9c0>
  10da00:	be 21 00 00 00       	mov    $0x21,%esi
  10da05:	e8 26 7a ff ff       	callq  105430 <_ZN4core9panicking5panic17h4e18ef80ec7677b0E>
  10da0a:	0f 0b                	ud2    
  10da0c:	48 8b 84 24 80 00 00 	mov    0x80(%rsp),%rax
  10da13:	00 
  10da14:	48 89 84 24 08 01 00 	mov    %rax,0x108(%rsp)
  10da1b:	00 
  10da1c:	48 83 c0 01          	add    $0x1,%rax
  10da20:	48 89 44 24 10       	mov    %rax,0x10(%rsp)
  10da25:	0f 92 c0             	setb   %al
  10da28:	a8 01                	test   $0x1,%al
  10da2a:	75 3c                	jne    10da68 <_ZN81_$LT$core..str..pattern..CharSearcher$u20$as$u20$core..str..pattern..Searcher$GT$10next_match17h225529ddd9fe94c6E+0x1a8>
  10da2c:	eb 1e                	jmp    10da4c <_ZN81_$LT$core..str..pattern..CharSearcher$u20$as$u20$core..str..pattern..Searcher$GT$10next_match17h225529ddd9fe94c6E+0x18c>
  10da2e:	48 8b 44 24 40       	mov    0x40(%rsp),%rax
  10da33:	48 8b 4c 24 38       	mov    0x38(%rsp),%rcx
  10da38:	48 8b 51 18          	mov    0x18(%rcx),%rdx
  10da3c:	48 89 51 10          	mov    %rdx,0x10(%rcx)
  10da40:	48 c7 00 00 00 00 00 	movq   $0x0,(%rax)
  10da47:	e9 fe 01 00 00       	jmpq   10dc4a <_ZN81_$LT$core..str..pattern..CharSearcher$u20$as$u20$core..str..pattern..Searcher$GT$10next_match17h225529ddd9fe94c6E+0x38a>
  10da4c:	48 8b 4c 24 38       	mov    0x38(%rsp),%rcx
  10da51:	48 8b 44 24 10       	mov    0x10(%rsp),%rax
  10da56:	48 03 41 10          	add    0x10(%rcx),%rax
  10da5a:	48 89 44 24 08       	mov    %rax,0x8(%rsp)
  10da5f:	0f 92 c0             	setb   %al
  10da62:	a8 01                	test   $0x1,%al
  10da64:	75 39                	jne    10da9f <_ZN81_$LT$core..str..pattern..CharSearcher$u20$as$u20$core..str..pattern..Searcher$GT$10next_match17h225529ddd9fe94c6E+0x1df>
  10da66:	eb 1a                	jmp    10da82 <_ZN81_$LT$core..str..pattern..CharSearcher$u20$as$u20$core..str..pattern..Searcher$GT$10next_match17h225529ddd9fe94c6E+0x1c2>
  10da68:	48 8d 3d 71 3b ff ff 	lea    -0xc48f(%rip),%rdi        # 1015e0 <str.0>
  10da6f:	48 8d 15 5a 49 00 00 	lea    0x495a(%rip),%rdx        # 1123d0 <_ZN4core3fmt2rt12USIZE_MARKER17h1b31419084dfd5e3E+0x9d8>
  10da76:	be 1c 00 00 00       	mov    $0x1c,%esi
  10da7b:	e8 b0 79 ff ff       	callq  105430 <_ZN4core9panicking5panic17h4e18ef80ec7677b0E>
  10da80:	0f 0b                	ud2    
  10da82:	48 8b 4c 24 38       	mov    0x38(%rsp),%rcx
  10da87:	48 8b 44 24 08       	mov    0x8(%rsp),%rax
  10da8c:	48 89 41 10          	mov    %rax,0x10(%rcx)
  10da90:	48 8b 41 10          	mov    0x10(%rcx),%rax
  10da94:	48 3b 41 20          	cmp    0x20(%rcx),%rax
  10da98:	73 1f                	jae    10dab9 <_ZN81_$LT$core..str..pattern..CharSearcher$u20$as$u20$core..str..pattern..Searcher$GT$10next_match17h225529ddd9fe94c6E+0x1f9>
  10da9a:	e9 3f fe ff ff       	jmpq   10d8de <_ZN81_$LT$core..str..pattern..CharSearcher$u20$as$u20$core..str..pattern..Searcher$GT$10next_match17h225529ddd9fe94c6E+0x1e>
  10da9f:	48 8d 3d 3a 3b ff ff 	lea    -0xc4c6(%rip),%rdi        # 1015e0 <str.0>
  10daa6:	48 8d 15 3b 49 00 00 	lea    0x493b(%rip),%rdx        # 1123e8 <_ZN4core3fmt2rt12USIZE_MARKER17h1b31419084dfd5e3E+0x9f0>
  10daad:	be 1c 00 00 00       	mov    $0x1c,%esi
  10dab2:	e8 79 79 ff ff       	callq  105430 <_ZN4core9panicking5panic17h4e18ef80ec7677b0E>
  10dab7:	0f 0b                	ud2    
  10dab9:	48 8b 4c 24 38       	mov    0x38(%rsp),%rcx
  10dabe:	48 8b 41 10          	mov    0x10(%rcx),%rax
  10dac2:	48 8b 49 20          	mov    0x20(%rcx),%rcx
  10dac6:	48 89 c2             	mov    %rax,%rdx
  10dac9:	48 29 ca             	sub    %rcx,%rdx
  10dacc:	48 89 14 24          	mov    %rdx,(%rsp)
  10dad0:	48 39 c8             	cmp    %rcx,%rax
  10dad3:	0f 92 c0             	setb   %al
  10dad6:	a8 01                	test   $0x1,%al
  10dad8:	0f 85 83 00 00 00    	jne    10db61 <_ZN81_$LT$core..str..pattern..CharSearcher$u20$as$u20$core..str..pattern..Searcher$GT$10next_match17h225529ddd9fe94c6E+0x2a1>
  10dade:	48 8b 0c 24          	mov    (%rsp),%rcx
  10dae2:	48 8b 44 24 38       	mov    0x38(%rsp),%rax
  10dae7:	48 89 8c 24 10 01 00 	mov    %rcx,0x110(%rsp)
  10daee:	00 
  10daef:	48 8b 38             	mov    (%rax),%rdi
  10daf2:	48 8b 70 08          	mov    0x8(%rax),%rsi
  10daf6:	48 89 bc 24 18 01 00 	mov    %rdi,0x118(%rsp)
  10dafd:	00 
  10dafe:	48 89 b4 24 20 01 00 	mov    %rsi,0x120(%rsp)
  10db05:	00 
  10db06:	48 8b 40 10          	mov    0x10(%rax),%rax
  10db0a:	48 89 8c 24 98 00 00 	mov    %rcx,0x98(%rsp)
  10db11:	00 
  10db12:	48 89 84 24 a0 00 00 	mov    %rax,0xa0(%rsp)
  10db19:	00 
  10db1a:	48 8b 94 24 98 00 00 	mov    0x98(%rsp),%rdx
  10db21:	00 
  10db22:	48 8b 8c 24 a0 00 00 	mov    0xa0(%rsp),%rcx
  10db29:	00 
  10db2a:	e8 a1 0c 00 00       	callq  10e7d0 <_ZN4core5slice29_$LT$impl$u20$$u5b$T$u5d$$GT$3get17h0256a46bc42be2ffE>
  10db2f:	48 89 94 24 90 00 00 	mov    %rdx,0x90(%rsp)
  10db36:	00 
  10db37:	48 89 84 24 88 00 00 	mov    %rax,0x88(%rsp)
  10db3e:	00 
  10db3f:	48 8b 94 24 88 00 00 	mov    0x88(%rsp),%rdx
  10db46:	00 
  10db47:	b8 01 00 00 00       	mov    $0x1,%eax
  10db4c:	31 c9                	xor    %ecx,%ecx
  10db4e:	48 83 fa 00          	cmp    $0x0,%rdx
  10db52:	48 0f 44 c1          	cmove  %rcx,%rax
  10db56:	48 83 f8 01          	cmp    $0x1,%rax
  10db5a:	74 1f                	je     10db7b <_ZN81_$LT$core..str..pattern..CharSearcher$u20$as$u20$core..str..pattern..Searcher$GT$10next_match17h225529ddd9fe94c6E+0x2bb>
  10db5c:	e9 7d fd ff ff       	jmpq   10d8de <_ZN81_$LT$core..str..pattern..CharSearcher$u20$as$u20$core..str..pattern..Searcher$GT$10next_match17h225529ddd9fe94c6E+0x1e>
  10db61:	48 8d 3d 18 3b ff ff 	lea    -0xc4e8(%rip),%rdi        # 101680 <str.1>
  10db68:	48 8d 15 91 48 00 00 	lea    0x4891(%rip),%rdx        # 112400 <_ZN4core3fmt2rt12USIZE_MARKER17h1b31419084dfd5e3E+0xa08>
  10db6f:	be 21 00 00 00       	mov    $0x21,%esi
  10db74:	e8 b7 78 ff ff       	callq  105430 <_ZN4core9panicking5panic17h4e18ef80ec7677b0E>
  10db79:	0f 0b                	ud2    
  10db7b:	48 8b 44 24 38       	mov    0x38(%rsp),%rax
  10db80:	48 8b 94 24 88 00 00 	mov    0x88(%rsp),%rdx
  10db87:	00 
  10db88:	48 8b 8c 24 90 00 00 	mov    0x90(%rsp),%rcx
  10db8f:	00 
  10db90:	48 89 94 24 a8 00 00 	mov    %rdx,0xa8(%rsp)
  10db97:	00 
  10db98:	48 89 8c 24 b0 00 00 	mov    %rcx,0xb0(%rsp)
  10db9f:	00 
  10dba0:	48 89 c7             	mov    %rax,%rdi
  10dba3:	48 83 c7 28          	add    $0x28,%rdi
  10dba7:	48 8b 40 20          	mov    0x20(%rax),%rax
  10dbab:	48 c7 84 24 c8 00 00 	movq   $0x0,0xc8(%rsp)
  10dbb2:	00 00 00 00 00 
  10dbb7:	48 89 84 24 d0 00 00 	mov    %rax,0xd0(%rsp)
  10dbbe:	00 
  10dbbf:	48 8b b4 24 c8 00 00 	mov    0xc8(%rsp),%rsi
  10dbc6:	00 
  10dbc7:	48 8b 94 24 d0 00 00 	mov    0xd0(%rsp),%rdx
  10dbce:	00 
  10dbcf:	48 8d 0d 42 48 00 00 	lea    0x4842(%rip),%rcx        # 112418 <_ZN4core3fmt2rt12USIZE_MARKER17h1b31419084dfd5e3E+0xa20>
  10dbd6:	e8 75 77 ff ff       	callq  105350 <_ZN4core5array85_$LT$impl$u20$core..ops..index..Index$LT$I$GT$$u20$for$u20$$u5b$T$u3b$$u20$N$u5d$$GT$5index17h6bb29940a57e1a65E>
  10dbdb:	48 89 84 24 b8 00 00 	mov    %rax,0xb8(%rsp)
  10dbe2:	00 
  10dbe3:	48 89 94 24 c0 00 00 	mov    %rdx,0xc0(%rsp)
  10dbea:	00 
  10dbeb:	48 8d bc 24 a8 00 00 	lea    0xa8(%rsp),%rdi
  10dbf2:	00 
  10dbf3:	48 8d b4 24 b8 00 00 	lea    0xb8(%rsp),%rsi
  10dbfa:	00 
  10dbfb:	e8 20 69 ff ff       	callq  104520 <_ZN4core3cmp5impls69_$LT$impl$u20$core..cmp..PartialEq$LT$$RF$B$GT$$u20$for$u20$$RF$A$GT$2eq17h14efcd62636148a5E>
  10dc00:	a8 01                	test   $0x1,%al
  10dc02:	75 05                	jne    10dc09 <_ZN81_$LT$core..str..pattern..CharSearcher$u20$as$u20$core..str..pattern..Searcher$GT$10next_match17h225529ddd9fe94c6E+0x349>
  10dc04:	e9 d5 fc ff ff       	jmpq   10d8de <_ZN81_$LT$core..str..pattern..CharSearcher$u20$as$u20$core..str..pattern..Searcher$GT$10next_match17h225529ddd9fe94c6E+0x1e>
  10dc09:	48 8b 44 24 40       	mov    0x40(%rsp),%rax
  10dc0e:	48 8b 14 24          	mov    (%rsp),%rdx
  10dc12:	48 8b 4c 24 38       	mov    0x38(%rsp),%rcx
  10dc17:	48 8b 49 10          	mov    0x10(%rcx),%rcx
  10dc1b:	48 89 94 24 d8 00 00 	mov    %rdx,0xd8(%rsp)
  10dc22:	00 
  10dc23:	48 89 8c 24 e0 00 00 	mov    %rcx,0xe0(%rsp)
  10dc2a:	00 
  10dc2b:	48 8b 94 24 d8 00 00 	mov    0xd8(%rsp),%rdx
  10dc32:	00 
  10dc33:	48 8b 8c 24 e0 00 00 	mov    0xe0(%rsp),%rcx
  10dc3a:	00 
  10dc3b:	48 89 50 08          	mov    %rdx,0x8(%rax)
  10dc3f:	48 89 48 10          	mov    %rcx,0x10(%rax)
  10dc43:	48 c7 00 01 00 00 00 	movq   $0x1,(%rax)
  10dc4a:	48 8b 44 24 48       	mov    0x48(%rsp),%rax
  10dc4f:	48 81 c4 38 01 00 00 	add    $0x138,%rsp
  10dc56:	c3                   	retq   
  10dc57:	cc                   	int3   
  10dc58:	cc                   	int3   
  10dc59:	cc                   	int3   
  10dc5a:	cc                   	int3   
  10dc5b:	cc                   	int3   
  10dc5c:	cc                   	int3   
  10dc5d:	cc                   	int3   
  10dc5e:	cc                   	int3   
  10dc5f:	cc                   	int3   

000000000010dc60 <_ZN52_$LT$char$u20$as$u20$core..str..pattern..Pattern$GT$13into_searcher17h4720a3c052e69d60E>:
  10dc60:	55                   	push   %rbp
  10dc61:	53                   	push   %rbx
  10dc62:	48 83 ec 58          	sub    $0x58,%rsp
  10dc66:	48 89 4c 24 08       	mov    %rcx,0x8(%rsp)
  10dc6b:	48 89 14 24          	mov    %rdx,(%rsp)
  10dc6f:	89 74 24 14          	mov    %esi,0x14(%rsp)
  10dc73:	48 89 f8             	mov    %rdi,%rax
  10dc76:	8b 7c 24 14          	mov    0x14(%rsp),%edi
  10dc7a:	48 89 44 24 20       	mov    %rax,0x20(%rsp)
  10dc7f:	48 89 44 24 28       	mov    %rax,0x28(%rsp)
  10dc84:	89 7c 24 3c          	mov    %edi,0x3c(%rsp)
  10dc88:	48 89 54 24 40       	mov    %rdx,0x40(%rsp)
  10dc8d:	48 89 4c 24 48       	mov    %rcx,0x48(%rsp)
  10dc92:	c7 44 24 34 00 00 00 	movl   $0x0,0x34(%rsp)
  10dc99:	00 
  10dc9a:	48 8d 74 24 34       	lea    0x34(%rsp),%rsi
  10dc9f:	ba 04 00 00 00       	mov    $0x4,%edx
  10dca4:	e8 47 d9 ff ff       	callq  10b5f0 <_ZN4core4char7methods22_$LT$impl$u20$char$GT$11encode_utf817h32ff831ead279733E>
  10dca9:	48 89 c7             	mov    %rax,%rdi
  10dcac:	48 89 d6             	mov    %rdx,%rsi
  10dcaf:	e8 8c 07 00 00       	callq  10e440 <_ZN4core3str21_$LT$impl$u20$str$GT$3len17h6145da0040cceaafE>
  10dcb4:	48 8b 3c 24          	mov    (%rsp),%rdi
  10dcb8:	48 8b 74 24 08       	mov    0x8(%rsp),%rsi
  10dcbd:	48 89 44 24 18       	mov    %rax,0x18(%rsp)
  10dcc2:	48 89 44 24 50       	mov    %rax,0x50(%rsp)
  10dcc7:	e8 74 07 00 00       	callq  10e440 <_ZN4core3str21_$LT$impl$u20$str$GT$3len17h6145da0040cceaafE>
  10dccc:	4c 8b 0c 24          	mov    (%rsp),%r9
  10dcd0:	4c 8b 44 24 08       	mov    0x8(%rsp),%r8
  10dcd5:	8b 74 24 14          	mov    0x14(%rsp),%esi
  10dcd9:	48 8b 4c 24 18       	mov    0x18(%rsp),%rcx
  10dcde:	48 8b 7c 24 20       	mov    0x20(%rsp),%rdi
  10dce3:	48 89 c2             	mov    %rax,%rdx
  10dce6:	48 8b 44 24 28       	mov    0x28(%rsp),%rax
  10dceb:	44 8a 54 24 34       	mov    0x34(%rsp),%r10b
  10dcf0:	44 8a 5c 24 35       	mov    0x35(%rsp),%r11b
  10dcf5:	8a 5c 24 36          	mov    0x36(%rsp),%bl
  10dcf9:	40 8a 6c 24 37       	mov    0x37(%rsp),%bpl
  10dcfe:	40 88 6c 24 3b       	mov    %bpl,0x3b(%rsp)
  10dd03:	88 5c 24 3a          	mov    %bl,0x3a(%rsp)
  10dd07:	44 88 5c 24 39       	mov    %r11b,0x39(%rsp)
  10dd0c:	44 88 54 24 38       	mov    %r10b,0x38(%rsp)
  10dd11:	4c 89 0f             	mov    %r9,(%rdi)
  10dd14:	4c 89 47 08          	mov    %r8,0x8(%rdi)
  10dd18:	48 c7 47 10 00 00 00 	movq   $0x0,0x10(%rdi)
  10dd1f:	00 
  10dd20:	48 89 57 18          	mov    %rdx,0x18(%rdi)
  10dd24:	89 77 2c             	mov    %esi,0x2c(%rdi)
  10dd27:	48 89 4f 20          	mov    %rcx,0x20(%rdi)
  10dd2b:	8a 4c 24 38          	mov    0x38(%rsp),%cl
  10dd2f:	8a 54 24 39          	mov    0x39(%rsp),%dl
  10dd33:	40 8a 74 24 3a       	mov    0x3a(%rsp),%sil
  10dd38:	44 8a 44 24 3b       	mov    0x3b(%rsp),%r8b
  10dd3d:	44 88 47 2b          	mov    %r8b,0x2b(%rdi)
  10dd41:	40 88 77 2a          	mov    %sil,0x2a(%rdi)
  10dd45:	88 57 29             	mov    %dl,0x29(%rdi)
  10dd48:	88 4f 28             	mov    %cl,0x28(%rdi)
  10dd4b:	48 83 c4 58          	add    $0x58,%rsp
  10dd4f:	5b                   	pop    %rbx
  10dd50:	5d                   	pop    %rbp
  10dd51:	c3                   	retq   
  10dd52:	cc                   	int3   
  10dd53:	cc                   	int3   
  10dd54:	cc                   	int3   
  10dd55:	cc                   	int3   
  10dd56:	cc                   	int3   
  10dd57:	cc                   	int3   
  10dd58:	cc                   	int3   
  10dd59:	cc                   	int3   
  10dd5a:	cc                   	int3   
  10dd5b:	cc                   	int3   
  10dd5c:	cc                   	int3   
  10dd5d:	cc                   	int3   
  10dd5e:	cc                   	int3   
  10dd5f:	cc                   	int3   

000000000010dd60 <_ZN52_$LT$char$u20$as$u20$core..str..pattern..Pattern$GT$12is_suffix_of17hfea9e972985df284E>:
  10dd60:	48 83 ec 38          	sub    $0x38,%rsp
  10dd64:	48 89 54 24 10       	mov    %rdx,0x10(%rsp)
  10dd69:	48 89 74 24 18       	mov    %rsi,0x18(%rsp)
  10dd6e:	89 7c 24 0c          	mov    %edi,0xc(%rsp)
  10dd72:	89 7c 24 24          	mov    %edi,0x24(%rsp)
  10dd76:	48 89 74 24 28       	mov    %rsi,0x28(%rsp)
  10dd7b:	48 89 54 24 30       	mov    %rdx,0x30(%rsp)
  10dd80:	48 8d 7c 24 20       	lea    0x20(%rsp),%rdi
  10dd85:	31 f6                	xor    %esi,%esi
  10dd87:	ba 04 00 00 00       	mov    $0x4,%edx
  10dd8c:	e8 0f 20 00 00       	callq  10fda0 <memset>
  10dd91:	8b 7c 24 0c          	mov    0xc(%rsp),%edi
  10dd95:	48 8d 74 24 20       	lea    0x20(%rsp),%rsi
  10dd9a:	ba 04 00 00 00       	mov    $0x4,%edx
  10dd9f:	e8 4c d8 ff ff       	callq  10b5f0 <_ZN4core4char7methods22_$LT$impl$u20$char$GT$11encode_utf817h32ff831ead279733E>
  10dda4:	48 8b 4c 24 10       	mov    0x10(%rsp),%rcx
  10dda9:	48 89 c7             	mov    %rax,%rdi
  10ddac:	48 89 d6             	mov    %rdx,%rsi
  10ddaf:	48 8b 54 24 18       	mov    0x18(%rsp),%rdx
  10ddb4:	e8 17 00 00 00       	callq  10ddd0 <_ZN55_$LT$$RF$str$u20$as$u20$core..str..pattern..Pattern$GT$12is_suffix_of17h5da357527c1ac4dcE>
  10ddb9:	24 01                	and    $0x1,%al
  10ddbb:	0f b6 c0             	movzbl %al,%eax
  10ddbe:	48 83 c4 38          	add    $0x38,%rsp
  10ddc2:	c3                   	retq   
  10ddc3:	cc                   	int3   
  10ddc4:	cc                   	int3   
  10ddc5:	cc                   	int3   
  10ddc6:	cc                   	int3   
  10ddc7:	cc                   	int3   
  10ddc8:	cc                   	int3   
  10ddc9:	cc                   	int3   
  10ddca:	cc                   	int3   
  10ddcb:	cc                   	int3   
  10ddcc:	cc                   	int3   
  10ddcd:	cc                   	int3   
  10ddce:	cc                   	int3   
  10ddcf:	cc                   	int3   

000000000010ddd0 <_ZN55_$LT$$RF$str$u20$as$u20$core..str..pattern..Pattern$GT$12is_suffix_of17h5da357527c1ac4dcE>:
  10ddd0:	48 83 ec 58          	sub    $0x58,%rsp
  10ddd4:	48 89 4c 24 08       	mov    %rcx,0x8(%rsp)
  10ddd9:	48 89 54 24 10       	mov    %rdx,0x10(%rsp)
  10ddde:	48 89 f1             	mov    %rsi,%rcx
  10dde1:	48 8b 74 24 08       	mov    0x8(%rsp),%rsi
  10dde6:	48 89 fa             	mov    %rdi,%rdx
  10dde9:	48 8b 7c 24 10       	mov    0x10(%rsp),%rdi
  10ddee:	48 89 54 24 18       	mov    %rdx,0x18(%rsp)
  10ddf3:	48 89 4c 24 20       	mov    %rcx,0x20(%rsp)
  10ddf8:	48 89 7c 24 28       	mov    %rdi,0x28(%rsp)
  10ddfd:	48 89 74 24 30       	mov    %rsi,0x30(%rsp)
  10de02:	48 89 7c 24 48       	mov    %rdi,0x48(%rsp)
  10de07:	48 89 74 24 50       	mov    %rsi,0x50(%rsp)
  10de0c:	48 89 54 24 38       	mov    %rdx,0x38(%rsp)
  10de11:	48 89 4c 24 40       	mov    %rcx,0x40(%rsp)
  10de16:	e8 15 12 00 00       	callq  10f030 <_ZN4core5slice29_$LT$impl$u20$$u5b$T$u5d$$GT$9ends_with17h9d01a19f5e8ea48dE>
  10de1b:	24 01                	and    $0x1,%al
  10de1d:	0f b6 c0             	movzbl %al,%eax
  10de20:	48 83 c4 58          	add    $0x58,%rsp
  10de24:	c3                   	retq   
  10de25:	cc                   	int3   
  10de26:	cc                   	int3   
  10de27:	cc                   	int3   
  10de28:	cc                   	int3   
  10de29:	cc                   	int3   
  10de2a:	cc                   	int3   
  10de2b:	cc                   	int3   
  10de2c:	cc                   	int3   
  10de2d:	cc                   	int3   
  10de2e:	cc                   	int3   
  10de2f:	cc                   	int3   

000000000010de30 <_ZN4core3ptr20slice_from_raw_parts17h35ce652a9161e2eaE>:
  10de30:	48 83 ec 18          	sub    $0x18,%rsp
  10de34:	48 89 3c 24          	mov    %rdi,(%rsp)
  10de38:	48 89 74 24 08       	mov    %rsi,0x8(%rsp)
  10de3d:	48 89 7c 24 10       	mov    %rdi,0x10(%rsp)
  10de42:	e8 29 87 ff ff       	callq  106570 <_ZN4core3ptr8metadata14from_raw_parts17hb63dd1a6d03f4092E>
  10de47:	48 83 c4 18          	add    $0x18,%rsp
  10de4b:	c3                   	retq   
  10de4c:	cc                   	int3   
  10de4d:	cc                   	int3   
  10de4e:	cc                   	int3   
  10de4f:	cc                   	int3   

000000000010de50 <_ZN4core3ptr20slice_from_raw_parts17hbd64ee62e243d2a3E>:
  10de50:	48 83 ec 18          	sub    $0x18,%rsp
  10de54:	48 89 3c 24          	mov    %rdi,(%rsp)
  10de58:	48 89 74 24 08       	mov    %rsi,0x8(%rsp)
  10de5d:	48 89 7c 24 10       	mov    %rdi,0x10(%rsp)
  10de62:	e8 89 86 ff ff       	callq  1064f0 <_ZN4core3ptr8metadata14from_raw_parts17h5c9ddfdf42e7d687E>
  10de67:	48 83 c4 18          	add    $0x18,%rsp
  10de6b:	c3                   	retq   
  10de6c:	cc                   	int3   
  10de6d:	cc                   	int3   
  10de6e:	cc                   	int3   
  10de6f:	cc                   	int3   

000000000010de70 <_ZN4core3ptr20slice_from_raw_parts17hbd94b18a72283d0bE>:
  10de70:	48 83 ec 18          	sub    $0x18,%rsp
  10de74:	48 89 3c 24          	mov    %rdi,(%rsp)
  10de78:	48 89 74 24 08       	mov    %rsi,0x8(%rsp)
  10de7d:	48 89 7c 24 10       	mov    %rdi,0x10(%rsp)
  10de82:	e8 29 87 ff ff       	callq  1065b0 <_ZN4core3ptr8metadata14from_raw_parts17hfe2b2bf1d71d5fc9E>
  10de87:	48 83 c4 18          	add    $0x18,%rsp
  10de8b:	c3                   	retq   
  10de8c:	cc                   	int3   
  10de8d:	cc                   	int3   
  10de8e:	cc                   	int3   
  10de8f:	cc                   	int3   

000000000010de90 <_ZN4core3ptr20slice_from_raw_parts17hd1a391f166f8679bE>:
  10de90:	48 83 ec 18          	sub    $0x18,%rsp
  10de94:	48 89 3c 24          	mov    %rdi,(%rsp)
  10de98:	48 89 74 24 08       	mov    %rsi,0x8(%rsp)
  10de9d:	48 89 7c 24 10       	mov    %rdi,0x10(%rsp)
  10dea2:	e8 89 86 ff ff       	callq  106530 <_ZN4core3ptr8metadata14from_raw_parts17h7c52cc57a94623c9E>
  10dea7:	48 83 c4 18          	add    $0x18,%rsp
  10deab:	c3                   	retq   
  10deac:	cc                   	int3   
  10dead:	cc                   	int3   
  10deae:	cc                   	int3   
  10deaf:	cc                   	int3   

000000000010deb0 <_ZN4core3ptr24slice_from_raw_parts_mut17hbfec43066f00032aE>:
  10deb0:	48 83 ec 18          	sub    $0x18,%rsp
  10deb4:	48 89 3c 24          	mov    %rdi,(%rsp)
  10deb8:	48 89 74 24 08       	mov    %rsi,0x8(%rsp)
  10debd:	48 89 7c 24 10       	mov    %rdi,0x10(%rsp)
  10dec2:	e8 29 87 ff ff       	callq  1065f0 <_ZN4core3ptr8metadata18from_raw_parts_mut17h0044879c97605b61E>
  10dec7:	48 83 c4 18          	add    $0x18,%rsp
  10decb:	c3                   	retq   
  10decc:	cc                   	int3   
  10decd:	cc                   	int3   
  10dece:	cc                   	int3   
  10decf:	cc                   	int3   

000000000010ded0 <_ZN4core3ptr4read17h4cc3dedf7e0ab85bE>:
  10ded0:	48 83 ec 28          	sub    $0x28,%rsp
  10ded4:	48 89 7c 24 08       	mov    %rdi,0x8(%rsp)
  10ded9:	48 89 7c 24 18       	mov    %rdi,0x18(%rsp)
  10dede:	b0 01                	mov    $0x1,%al
  10dee0:	a8 01                	test   $0x1,%al
  10dee2:	75 0c                	jne    10def0 <_ZN4core3ptr4read17h4cc3dedf7e0ab85bE+0x20>
  10dee4:	48 8b 44 24 08       	mov    0x8(%rsp),%rax
  10dee9:	8a 00                	mov    (%rax),%al
  10deeb:	48 83 c4 28          	add    $0x28,%rsp
  10deef:	c3                   	retq   
  10def0:	48 8b 44 24 08       	mov    0x8(%rsp),%rax
  10def5:	48 89 44 24 10       	mov    %rax,0x10(%rsp)
  10defa:	48 8b 7c 24 10       	mov    0x10(%rsp),%rdi
  10deff:	48 89 7c 24 20       	mov    %rdi,0x20(%rsp)
  10df04:	e8 87 60 ff ff       	callq  103f90 <_ZN4core10intrinsics23is_aligned_and_not_null17h3a28c5c5e3d8cd03E>
  10df09:	34 ff                	xor    $0xff,%al
  10df0b:	a8 01                	test   $0x1,%al
  10df0d:	75 02                	jne    10df11 <_ZN4core3ptr4read17h4cc3dedf7e0ab85bE+0x41>
  10df0f:	eb 13                	jmp    10df24 <_ZN4core3ptr4read17h4cc3dedf7e0ab85bE+0x54>
  10df11:	48 8d 3d 13 3a ff ff 	lea    -0xc5ed(%rip),%rdi        # 10192b <str.1+0x2ab>
  10df18:	be 65 00 00 00       	mov    $0x65,%esi
  10df1d:	e8 5e 75 ff ff       	callq  105480 <_ZN4core9panicking14panic_nounwind17hbf97f84b8fd59176E>
  10df22:	0f 0b                	ud2    
  10df24:	eb be                	jmp    10dee4 <_ZN4core3ptr4read17h4cc3dedf7e0ab85bE+0x14>
  10df26:	cc                   	int3   
  10df27:	cc                   	int3   
  10df28:	cc                   	int3   
  10df29:	cc                   	int3   
  10df2a:	cc                   	int3   
  10df2b:	cc                   	int3   
  10df2c:	cc                   	int3   
  10df2d:	cc                   	int3   
  10df2e:	cc                   	int3   
  10df2f:	cc                   	int3   

000000000010df30 <_ZN4core3ptr4read17h4eb60ace77802388E>:
  10df30:	48 83 ec 28          	sub    $0x28,%rsp
  10df34:	48 89 7c 24 08       	mov    %rdi,0x8(%rsp)
  10df39:	48 89 7c 24 18       	mov    %rdi,0x18(%rsp)
  10df3e:	b0 01                	mov    $0x1,%al
  10df40:	a8 01                	test   $0x1,%al
  10df42:	75 0c                	jne    10df50 <_ZN4core3ptr4read17h4eb60ace77802388E+0x20>
  10df44:	48 8b 44 24 08       	mov    0x8(%rsp),%rax
  10df49:	8b 00                	mov    (%rax),%eax
  10df4b:	48 83 c4 28          	add    $0x28,%rsp
  10df4f:	c3                   	retq   
  10df50:	48 8b 44 24 08       	mov    0x8(%rsp),%rax
  10df55:	48 89 44 24 10       	mov    %rax,0x10(%rsp)
  10df5a:	48 8b 7c 24 10       	mov    0x10(%rsp),%rdi
  10df5f:	48 89 7c 24 20       	mov    %rdi,0x20(%rsp)
  10df64:	e8 a7 60 ff ff       	callq  104010 <_ZN4core10intrinsics23is_aligned_and_not_null17h7cdedc7f2f5723f0E>
  10df69:	34 ff                	xor    $0xff,%al
  10df6b:	a8 01                	test   $0x1,%al
  10df6d:	75 02                	jne    10df71 <_ZN4core3ptr4read17h4eb60ace77802388E+0x41>
  10df6f:	eb 13                	jmp    10df84 <_ZN4core3ptr4read17h4eb60ace77802388E+0x54>
  10df71:	48 8d 3d b3 39 ff ff 	lea    -0xc64d(%rip),%rdi        # 10192b <str.1+0x2ab>
  10df78:	be 65 00 00 00       	mov    $0x65,%esi
  10df7d:	e8 fe 74 ff ff       	callq  105480 <_ZN4core9panicking14panic_nounwind17hbf97f84b8fd59176E>
  10df82:	0f 0b                	ud2    
  10df84:	eb be                	jmp    10df44 <_ZN4core3ptr4read17h4eb60ace77802388E+0x14>
  10df86:	cc                   	int3   
  10df87:	cc                   	int3   
  10df88:	cc                   	int3   
  10df89:	cc                   	int3   
  10df8a:	cc                   	int3   
  10df8b:	cc                   	int3   
  10df8c:	cc                   	int3   
  10df8d:	cc                   	int3   
  10df8e:	cc                   	int3   
  10df8f:	cc                   	int3   

000000000010df90 <_ZN4core3ptr5write17h0c91e808b1f35b6fE>:
  10df90:	48 83 ec 38          	sub    $0x38,%rsp
  10df94:	48 89 7c 24 08       	mov    %rdi,0x8(%rsp)
  10df99:	40 88 f0             	mov    %sil,%al
  10df9c:	88 44 24 17          	mov    %al,0x17(%rsp)
  10dfa0:	48 89 7c 24 20       	mov    %rdi,0x20(%rsp)
  10dfa5:	88 44 24 2f          	mov    %al,0x2f(%rsp)
  10dfa9:	b0 01                	mov    $0x1,%al
  10dfab:	a8 01                	test   $0x1,%al
  10dfad:	75 10                	jne    10dfbf <_ZN4core3ptr5write17h0c91e808b1f35b6fE+0x2f>
  10dfaf:	48 8b 44 24 08       	mov    0x8(%rsp),%rax
  10dfb4:	8a 4c 24 17          	mov    0x17(%rsp),%cl
  10dfb8:	88 08                	mov    %cl,(%rax)
  10dfba:	48 83 c4 38          	add    $0x38,%rsp
  10dfbe:	c3                   	retq   
  10dfbf:	48 8b 44 24 08       	mov    0x8(%rsp),%rax
  10dfc4:	48 89 44 24 18       	mov    %rax,0x18(%rsp)
  10dfc9:	48 8b 7c 24 18       	mov    0x18(%rsp),%rdi
  10dfce:	48 89 7c 24 30       	mov    %rdi,0x30(%rsp)
  10dfd3:	e8 b8 5f ff ff       	callq  103f90 <_ZN4core10intrinsics23is_aligned_and_not_null17h3a28c5c5e3d8cd03E>
  10dfd8:	34 ff                	xor    $0xff,%al
  10dfda:	a8 01                	test   $0x1,%al
  10dfdc:	75 02                	jne    10dfe0 <_ZN4core3ptr5write17h0c91e808b1f35b6fE+0x50>
  10dfde:	eb 13                	jmp    10dff3 <_ZN4core3ptr5write17h0c91e808b1f35b6fE+0x63>
  10dfe0:	48 8d 3d a9 39 ff ff 	lea    -0xc657(%rip),%rdi        # 101990 <str.1+0x310>
  10dfe7:	be 66 00 00 00       	mov    $0x66,%esi
  10dfec:	e8 8f 74 ff ff       	callq  105480 <_ZN4core9panicking14panic_nounwind17hbf97f84b8fd59176E>
  10dff1:	0f 0b                	ud2    
  10dff3:	eb ba                	jmp    10dfaf <_ZN4core3ptr5write17h0c91e808b1f35b6fE+0x1f>
  10dff5:	cc                   	int3   
  10dff6:	cc                   	int3   
  10dff7:	cc                   	int3   
  10dff8:	cc                   	int3   
  10dff9:	cc                   	int3   
  10dffa:	cc                   	int3   
  10dffb:	cc                   	int3   
  10dffc:	cc                   	int3   
  10dffd:	cc                   	int3   
  10dffe:	cc                   	int3   
  10dfff:	cc                   	int3   

000000000010e000 <_ZN4core3ptr5write17h1d58b5a2bff5ba4eE>:
  10e000:	48 83 ec 38          	sub    $0x38,%rsp
  10e004:	89 74 24 0c          	mov    %esi,0xc(%rsp)
  10e008:	48 89 7c 24 10       	mov    %rdi,0x10(%rsp)
  10e00d:	48 89 7c 24 20       	mov    %rdi,0x20(%rsp)
  10e012:	89 74 24 2c          	mov    %esi,0x2c(%rsp)
  10e016:	b0 01                	mov    $0x1,%al
  10e018:	a8 01                	test   $0x1,%al
  10e01a:	75 10                	jne    10e02c <_ZN4core3ptr5write17h1d58b5a2bff5ba4eE+0x2c>
  10e01c:	48 8b 44 24 10       	mov    0x10(%rsp),%rax
  10e021:	8b 4c 24 0c          	mov    0xc(%rsp),%ecx
  10e025:	89 08                	mov    %ecx,(%rax)
  10e027:	48 83 c4 38          	add    $0x38,%rsp
  10e02b:	c3                   	retq   
  10e02c:	48 8b 44 24 10       	mov    0x10(%rsp),%rax
  10e031:	48 89 44 24 18       	mov    %rax,0x18(%rsp)
  10e036:	48 8b 7c 24 18       	mov    0x18(%rsp),%rdi
  10e03b:	48 89 7c 24 30       	mov    %rdi,0x30(%rsp)
  10e040:	e8 cb 5f ff ff       	callq  104010 <_ZN4core10intrinsics23is_aligned_and_not_null17h7cdedc7f2f5723f0E>
  10e045:	34 ff                	xor    $0xff,%al
  10e047:	a8 01                	test   $0x1,%al
  10e049:	75 02                	jne    10e04d <_ZN4core3ptr5write17h1d58b5a2bff5ba4eE+0x4d>
  10e04b:	eb 13                	jmp    10e060 <_ZN4core3ptr5write17h1d58b5a2bff5ba4eE+0x60>
  10e04d:	48 8d 3d 3c 39 ff ff 	lea    -0xc6c4(%rip),%rdi        # 101990 <str.1+0x310>
  10e054:	be 66 00 00 00       	mov    $0x66,%esi
  10e059:	e8 22 74 ff ff       	callq  105480 <_ZN4core9panicking14panic_nounwind17hbf97f84b8fd59176E>
  10e05e:	0f 0b                	ud2    
  10e060:	eb ba                	jmp    10e01c <_ZN4core3ptr5write17h1d58b5a2bff5ba4eE+0x1c>
  10e062:	cc                   	int3   
  10e063:	cc                   	int3   
  10e064:	cc                   	int3   
  10e065:	cc                   	int3   
  10e066:	cc                   	int3   
  10e067:	cc                   	int3   
  10e068:	cc                   	int3   
  10e069:	cc                   	int3   
  10e06a:	cc                   	int3   
  10e06b:	cc                   	int3   
  10e06c:	cc                   	int3   
  10e06d:	cc                   	int3   
  10e06e:	cc                   	int3   
  10e06f:	cc                   	int3   

000000000010e070 <_ZN4core3ptr13read_volatile17hc73e74980a061f8bE>:
  10e070:	48 83 ec 28          	sub    $0x28,%rsp
  10e074:	48 89 3c 24          	mov    %rdi,(%rsp)
  10e078:	48 89 7c 24 10       	mov    %rdi,0x10(%rsp)
  10e07d:	b0 01                	mov    $0x1,%al
  10e07f:	a8 01                	test   $0x1,%al
  10e081:	75 16                	jne    10e099 <_ZN4core3ptr13read_volatile17hc73e74980a061f8bE+0x29>
  10e083:	48 8b 04 24          	mov    (%rsp),%rax
  10e087:	48 8b 00             	mov    (%rax),%rax
  10e08a:	48 89 44 24 18       	mov    %rax,0x18(%rsp)
  10e08f:	48 8b 44 24 18       	mov    0x18(%rsp),%rax
  10e094:	48 83 c4 28          	add    $0x28,%rsp
  10e098:	c3                   	retq   
  10e099:	48 8b 04 24          	mov    (%rsp),%rax
  10e09d:	48 89 44 24 08       	mov    %rax,0x8(%rsp)
  10e0a2:	48 8b 7c 24 08       	mov    0x8(%rsp),%rdi
  10e0a7:	48 89 7c 24 20       	mov    %rdi,0x20(%rsp)
  10e0ac:	e8 1f 5f ff ff       	callq  103fd0 <_ZN4core10intrinsics23is_aligned_and_not_null17h422372c65f5e568fE>
  10e0b1:	34 ff                	xor    $0xff,%al
  10e0b3:	a8 01                	test   $0x1,%al
  10e0b5:	75 02                	jne    10e0b9 <_ZN4core3ptr13read_volatile17hc73e74980a061f8bE+0x49>
  10e0b7:	eb 13                	jmp    10e0cc <_ZN4core3ptr13read_volatile17hc73e74980a061f8bE+0x5c>
  10e0b9:	48 8d 3d 36 39 ff ff 	lea    -0xc6ca(%rip),%rdi        # 1019f6 <str.1+0x376>
  10e0c0:	be 6e 00 00 00       	mov    $0x6e,%esi
  10e0c5:	e8 b6 73 ff ff       	callq  105480 <_ZN4core9panicking14panic_nounwind17hbf97f84b8fd59176E>
  10e0ca:	0f 0b                	ud2    
  10e0cc:	eb b5                	jmp    10e083 <_ZN4core3ptr13read_volatile17hc73e74980a061f8bE+0x13>
  10e0ce:	cc                   	int3   
  10e0cf:	cc                   	int3   

000000000010e0d0 <_ZN4core3ptr12align_offset17h9945c110ff519511E>:
  10e0d0:	48 81 ec e8 00 00 00 	sub    $0xe8,%rsp
  10e0d7:	48 89 74 24 28       	mov    %rsi,0x28(%rsp)
  10e0dc:	48 89 7c 24 30       	mov    %rdi,0x30(%rsp)
  10e0e1:	48 89 7c 24 50       	mov    %rdi,0x50(%rsp)
  10e0e6:	48 89 74 24 58       	mov    %rsi,0x58(%rsp)
  10e0eb:	48 c7 44 24 60 01 00 	movq   $0x1,0x60(%rsp)
  10e0f2:	00 00 
  10e0f4:	48 89 7c 24 68       	mov    %rdi,0x68(%rsp)
  10e0f9:	48 83 ee 01          	sub    $0x1,%rsi
  10e0fd:	48 89 74 24 38       	mov    %rsi,0x38(%rsp)
  10e102:	48 89 74 24 70       	mov    %rsi,0x70(%rsp)
  10e107:	b8 01 00 00 00       	mov    $0x1,%eax
  10e10c:	48 83 f8 00          	cmp    $0x0,%rax
  10e110:	75 1a                	jne    10e12c <_ZN4core3ptr12align_offset17h9945c110ff519511E+0x5c>
  10e112:	48 8b 4c 24 38       	mov    0x38(%rsp),%rcx
  10e117:	48 8b 44 24 30       	mov    0x30(%rsp),%rax
  10e11c:	48 21 c8             	and    %rcx,%rax
  10e11f:	48 89 44 24 78       	mov    %rax,0x78(%rsp)
  10e124:	48 83 f8 00          	cmp    $0x0,%rax
  10e128:	74 1b                	je     10e145 <_ZN4core3ptr12align_offset17h9945c110ff519511E+0x75>
  10e12a:	eb 24                	jmp    10e150 <_ZN4core3ptr12align_offset17h9945c110ff519511E+0x80>
  10e12c:	48 8b 44 24 28       	mov    0x28(%rsp),%rax
  10e131:	48 83 e0 00          	and    $0x0,%rax
  10e135:	48 89 84 24 80 00 00 	mov    %rax,0x80(%rsp)
  10e13c:	00 
  10e13d:	48 83 f8 00          	cmp    $0x0,%rax
  10e141:	74 23                	je     10e166 <_ZN4core3ptr12align_offset17h9945c110ff519511E+0x96>
  10e143:	eb 6a                	jmp    10e1af <_ZN4core3ptr12align_offset17h9945c110ff519511E+0xdf>
  10e145:	48 c7 44 24 40 00 00 	movq   $0x0,0x40(%rsp)
  10e14c:	00 00 
  10e14e:	eb 09                	jmp    10e159 <_ZN4core3ptr12align_offset17h9945c110ff519511E+0x89>
  10e150:	48 c7 44 24 40 ff ff 	movq   $0xffffffffffffffff,0x40(%rsp)
  10e157:	ff ff 
  10e159:	48 8b 44 24 40       	mov    0x40(%rsp),%rax
  10e15e:	48 81 c4 e8 00 00 00 	add    $0xe8,%rsp
  10e165:	c3                   	retq   
  10e166:	48 8b 44 24 30       	mov    0x30(%rsp),%rax
  10e16b:	48 8b 74 24 28       	mov    0x28(%rsp),%rsi
  10e170:	48 8b 54 24 38       	mov    0x38(%rsp),%rdx
  10e175:	48 89 c1             	mov    %rax,%rcx
  10e178:	48 01 d1             	add    %rdx,%rcx
  10e17b:	31 d2                	xor    %edx,%edx
  10e17d:	48 29 f2             	sub    %rsi,%rdx
  10e180:	48 21 d1             	and    %rdx,%rcx
  10e183:	48 89 8c 24 88 00 00 	mov    %rcx,0x88(%rsp)
  10e18a:	00 
  10e18b:	48 29 c1             	sub    %rax,%rcx
  10e18e:	48 89 4c 24 20       	mov    %rcx,0x20(%rsp)
  10e193:	48 89 8c 24 90 00 00 	mov    %rcx,0x90(%rsp)
  10e19a:	00 
  10e19b:	48 83 e0 00          	and    $0x0,%rax
  10e19f:	48 89 84 24 98 00 00 	mov    %rax,0x98(%rsp)
  10e1a6:	00 
  10e1a7:	48 83 f8 00          	cmp    $0x0,%rax
  10e1ab:	74 4f                	je     10e1fc <_ZN4core3ptr12align_offset17h9945c110ff519511E+0x12c>
  10e1ad:	eb 60                	jmp    10e20f <_ZN4core3ptr12align_offset17h9945c110ff519511E+0x13f>
  10e1af:	48 8b 4c 24 28       	mov    0x28(%rsp),%rcx
  10e1b4:	31 c0                	xor    %eax,%eax
  10e1b6:	48 89 84 24 a0 00 00 	mov    %rax,0xa0(%rsp)
  10e1bd:	00 
  10e1be:	48 8b 84 24 a0 00 00 	mov    0xa0(%rsp),%rax
  10e1c5:	00 
  10e1c6:	48 89 44 24 10       	mov    %rax,0x10(%rsp)
  10e1cb:	48 89 84 24 a8 00 00 	mov    %rax,0xa8(%rsp)
  10e1d2:	00 
  10e1d3:	f3 48 0f bc c9       	tzcnt  %rcx,%rcx
  10e1d8:	48 89 8c 24 b0 00 00 	mov    %rcx,0xb0(%rsp)
  10e1df:	00 
  10e1e0:	48 8b 8c 24 b0 00 00 	mov    0xb0(%rsp),%rcx
  10e1e7:	00 
  10e1e8:	48 89 4c 24 18       	mov    %rcx,0x18(%rsp)
  10e1ed:	48 89 8c 24 b8 00 00 	mov    %rcx,0xb8(%rsp)
  10e1f4:	00 
  10e1f5:	48 39 c8             	cmp    %rcx,%rax
  10e1f8:	72 2f                	jb     10e229 <_ZN4core3ptr12align_offset17h9945c110ff519511E+0x159>
  10e1fa:	eb 21                	jmp    10e21d <_ZN4core3ptr12align_offset17h9945c110ff519511E+0x14d>
  10e1fc:	48 8b 44 24 20       	mov    0x20(%rsp),%rax
  10e201:	48 c1 e8 00          	shr    $0x0,%rax
  10e205:	48 89 44 24 40       	mov    %rax,0x40(%rsp)
  10e20a:	e9 4a ff ff ff       	jmpq   10e159 <_ZN4core3ptr12align_offset17h9945c110ff519511E+0x89>
  10e20f:	48 c7 44 24 40 ff ff 	movq   $0xffffffffffffffff,0x40(%rsp)
  10e216:	ff ff 
  10e218:	e9 3c ff ff ff       	jmpq   10e159 <_ZN4core3ptr12align_offset17h9945c110ff519511E+0x89>
  10e21d:	48 8b 44 24 18       	mov    0x18(%rsp),%rax
  10e222:	48 89 44 24 48       	mov    %rax,0x48(%rsp)
  10e227:	eb 0a                	jmp    10e233 <_ZN4core3ptr12align_offset17h9945c110ff519511E+0x163>
  10e229:	48 8b 44 24 10       	mov    0x10(%rsp),%rax
  10e22e:	48 89 44 24 48       	mov    %rax,0x48(%rsp)
  10e233:	48 8b 44 24 30       	mov    0x30(%rsp),%rax
  10e238:	48 8b 4c 24 48       	mov    0x48(%rsp),%rcx
  10e23d:	ba 01 00 00 00       	mov    $0x1,%edx
  10e242:	48 d3 e2             	shl    %cl,%rdx
  10e245:	48 89 d1             	mov    %rdx,%rcx
  10e248:	48 89 8c 24 c0 00 00 	mov    %rcx,0xc0(%rsp)
  10e24f:	00 
  10e250:	48 83 e9 01          	sub    $0x1,%rcx
  10e254:	48 21 c8             	and    %rcx,%rax
  10e257:	48 83 f8 00          	cmp    $0x0,%rax
  10e25b:	0f 85 8e 00 00 00    	jne    10e2ef <_ZN4core3ptr12align_offset17h9945c110ff519511E+0x21f>
  10e261:	48 8b 7c 24 38       	mov    0x38(%rsp),%rdi
  10e266:	48 8b 44 24 30       	mov    0x30(%rsp),%rax
  10e26b:	48 8b 74 24 28       	mov    0x28(%rsp),%rsi
  10e270:	48 8b 4c 24 48       	mov    0x48(%rsp),%rcx
  10e275:	48 d3 ee             	shr    %cl,%rsi
  10e278:	48 89 b4 24 c8 00 00 	mov    %rsi,0xc8(%rsp)
  10e27f:	00 
  10e280:	48 89 f1             	mov    %rsi,%rcx
  10e283:	48 83 e9 01          	sub    $0x1,%rcx
  10e287:	48 89 0c 24          	mov    %rcx,(%rsp)
  10e28b:	48 89 8c 24 d0 00 00 	mov    %rcx,0xd0(%rsp)
  10e292:	00 
  10e293:	48 83 e7 01          	and    $0x1,%rdi
  10e297:	48 8b 4c 24 48       	mov    0x48(%rsp),%rcx
  10e29c:	48 d3 ef             	shr    %cl,%rdi
  10e29f:	48 8b 4c 24 38       	mov    0x38(%rsp),%rcx
  10e2a4:	48 89 bc 24 d8 00 00 	mov    %rdi,0xd8(%rsp)
  10e2ab:	00 
  10e2ac:	48 21 c8             	and    %rcx,%rax
  10e2af:	48 8b 4c 24 48       	mov    0x48(%rsp),%rcx
  10e2b4:	48 d3 e8             	shr    %cl,%rax
  10e2b7:	48 89 c1             	mov    %rax,%rcx
  10e2ba:	48 89 f0             	mov    %rsi,%rax
  10e2bd:	48 29 c8             	sub    %rcx,%rax
  10e2c0:	48 89 44 24 08       	mov    %rax,0x8(%rsp)
  10e2c5:	48 89 84 24 e0 00 00 	mov    %rax,0xe0(%rsp)
  10e2cc:	00 
  10e2cd:	e8 2e 00 00 00       	callq  10e300 <_ZN4core3ptr12align_offset7mod_inv17h8d24fef0e1675a8cE>
  10e2d2:	48 8b 0c 24          	mov    (%rsp),%rcx
  10e2d6:	48 89 c2             	mov    %rax,%rdx
  10e2d9:	48 8b 44 24 08       	mov    0x8(%rsp),%rax
  10e2de:	48 0f af c2          	imul   %rdx,%rax
  10e2e2:	48 21 c8             	and    %rcx,%rax
  10e2e5:	48 89 44 24 40       	mov    %rax,0x40(%rsp)
  10e2ea:	e9 6a fe ff ff       	jmpq   10e159 <_ZN4core3ptr12align_offset17h9945c110ff519511E+0x89>
  10e2ef:	48 c7 44 24 40 ff ff 	movq   $0xffffffffffffffff,0x40(%rsp)
  10e2f6:	ff ff 
  10e2f8:	e9 5c fe ff ff       	jmpq   10e159 <_ZN4core3ptr12align_offset17h9945c110ff519511E+0x89>
  10e2fd:	cc                   	int3   
  10e2fe:	cc                   	int3   
  10e2ff:	cc                   	int3   

000000000010e300 <_ZN4core3ptr12align_offset7mod_inv17h8d24fef0e1675a8cE>:
  10e300:	48 83 ec 68          	sub    $0x68,%rsp
  10e304:	48 89 74 24 08       	mov    %rsi,0x8(%rsp)
  10e309:	48 89 f8             	mov    %rdi,%rax
  10e30c:	48 89 44 24 10       	mov    %rax,0x10(%rsp)
  10e311:	48 89 44 24 40       	mov    %rax,0x40(%rsp)
  10e316:	48 89 74 24 48       	mov    %rsi,0x48(%rsp)
  10e31b:	48 ff ce             	dec    %rsi
  10e31e:	48 89 74 24 18       	mov    %rsi,0x18(%rsp)
  10e323:	48 89 74 24 50       	mov    %rsi,0x50(%rsp)
  10e328:	8a 0d 73 35 ff ff    	mov    -0xca8d(%rip),%cl        # 1018a1 <str.1+0x221>
  10e32e:	8a 15 6e 35 ff ff    	mov    -0xca92(%rip),%dl        # 1018a2 <str.1+0x222>
  10e334:	40 8a 35 68 35 ff ff 	mov    -0xca98(%rip),%sil        # 1018a3 <str.1+0x223>
  10e33b:	40 8a 3d 62 35 ff ff 	mov    -0xca9e(%rip),%dil        # 1018a4 <str.1+0x224>
  10e342:	44 8a 05 5c 35 ff ff 	mov    -0xcaa4(%rip),%r8b        # 1018a5 <str.1+0x225>
  10e349:	44 8a 0d 56 35 ff ff 	mov    -0xcaaa(%rip),%r9b        # 1018a6 <str.1+0x226>
  10e350:	44 8a 15 50 35 ff ff 	mov    -0xcab0(%rip),%r10b        # 1018a7 <str.1+0x227>
  10e357:	44 8a 1d 4a 35 ff ff 	mov    -0xcab6(%rip),%r11b        # 1018a8 <str.1+0x228>
  10e35e:	44 88 5c 24 37       	mov    %r11b,0x37(%rsp)
  10e363:	44 88 54 24 36       	mov    %r10b,0x36(%rsp)
  10e368:	44 88 4c 24 35       	mov    %r9b,0x35(%rsp)
  10e36d:	44 88 44 24 34       	mov    %r8b,0x34(%rsp)
  10e372:	40 88 7c 24 33       	mov    %dil,0x33(%rsp)
  10e377:	40 88 74 24 32       	mov    %sil,0x32(%rsp)
  10e37c:	88 54 24 31          	mov    %dl,0x31(%rsp)
  10e380:	88 4c 24 30          	mov    %cl,0x30(%rsp)
  10e384:	48 83 e0 0f          	and    $0xf,%rax
  10e388:	48 c1 e8 01          	shr    $0x1,%rax
  10e38c:	48 89 44 24 20       	mov    %rax,0x20(%rsp)
  10e391:	48 83 f8 08          	cmp    $0x8,%rax
  10e395:	0f 92 c0             	setb   %al
  10e398:	a8 01                	test   $0x1,%al
  10e39a:	75 02                	jne    10e39e <_ZN4core3ptr12align_offset7mod_inv17h8d24fef0e1675a8cE+0x9e>
  10e39c:	eb 1a                	jmp    10e3b8 <_ZN4core3ptr12align_offset7mod_inv17h8d24fef0e1675a8cE+0xb8>
  10e39e:	48 8b 44 24 20       	mov    0x20(%rsp),%rax
  10e3a3:	0f b6 44 04 30       	movzbl 0x30(%rsp,%rax,1),%eax
  10e3a8:	48 89 44 24 28       	mov    %rax,0x28(%rsp)
  10e3ad:	48 c7 44 24 38 10 00 	movq   $0x10,0x38(%rsp)
  10e3b4:	00 00 
  10e3b6:	eb 18                	jmp    10e3d0 <_ZN4core3ptr12align_offset7mod_inv17h8d24fef0e1675a8cE+0xd0>
  10e3b8:	48 8b 7c 24 20       	mov    0x20(%rsp),%rdi
  10e3bd:	48 8d 15 6c 40 00 00 	lea    0x406c(%rip),%rdx        # 112430 <_ZN4core3fmt2rt12USIZE_MARKER17h1b31419084dfd5e3E+0xa38>
  10e3c4:	be 08 00 00 00       	mov    $0x8,%esi
  10e3c9:	e8 b2 71 ff ff       	callq  105580 <_ZN4core9panicking18panic_bounds_check17h9c2d2bb408d89b4aE>
  10e3ce:	0f 0b                	ud2    
  10e3d0:	48 8b 44 24 08       	mov    0x8(%rsp),%rax
  10e3d5:	48 39 44 24 38       	cmp    %rax,0x38(%rsp)
  10e3da:	73 49                	jae    10e425 <_ZN4core3ptr12align_offset7mod_inv17h8d24fef0e1675a8cE+0x125>
  10e3dc:	48 8b 54 24 10       	mov    0x10(%rsp),%rdx
  10e3e1:	48 8b 44 24 28       	mov    0x28(%rsp),%rax
  10e3e6:	48 0f af 54 24 28    	imul   0x28(%rsp),%rdx
  10e3ec:	b9 02 00 00 00       	mov    $0x2,%ecx
  10e3f1:	48 29 d1             	sub    %rdx,%rcx
  10e3f4:	48 0f af c1          	imul   %rcx,%rax
  10e3f8:	48 89 44 24 28       	mov    %rax,0x28(%rsp)
  10e3fd:	48 8b 44 24 38       	mov    0x38(%rsp),%rax
  10e402:	48 f7 64 24 38       	mulq   0x38(%rsp)
  10e407:	48 89 c1             	mov    %rax,%rcx
  10e40a:	48 89 0c 24          	mov    %rcx,(%rsp)
  10e40e:	0f 90 c0             	seto   %al
  10e411:	48 89 4c 24 58       	mov    %rcx,0x58(%rsp)
  10e416:	88 c1                	mov    %al,%cl
  10e418:	80 e1 01             	and    $0x1,%cl
  10e41b:	88 4c 24 67          	mov    %cl,0x67(%rsp)
  10e41f:	a8 01                	test   $0x1,%al
  10e421:	75 02                	jne    10e425 <_ZN4core3ptr12align_offset7mod_inv17h8d24fef0e1675a8cE+0x125>
  10e423:	eb 0f                	jmp    10e434 <_ZN4core3ptr12align_offset7mod_inv17h8d24fef0e1675a8cE+0x134>
  10e425:	48 8b 44 24 18       	mov    0x18(%rsp),%rax
  10e42a:	48 23 44 24 28       	and    0x28(%rsp),%rax
  10e42f:	48 83 c4 68          	add    $0x68,%rsp
  10e433:	c3                   	retq   
  10e434:	48 8b 04 24          	mov    (%rsp),%rax
  10e438:	48 89 44 24 38       	mov    %rax,0x38(%rsp)
  10e43d:	eb 91                	jmp    10e3d0 <_ZN4core3ptr12align_offset7mod_inv17h8d24fef0e1675a8cE+0xd0>
  10e43f:	cc                   	int3   

000000000010e440 <_ZN4core3str21_$LT$impl$u20$str$GT$3len17h6145da0040cceaafE>:
  10e440:	48 83 ec 20          	sub    $0x20,%rsp
  10e444:	48 89 f0             	mov    %rsi,%rax
  10e447:	48 89 3c 24          	mov    %rdi,(%rsp)
  10e44b:	48 89 44 24 08       	mov    %rax,0x8(%rsp)
  10e450:	48 89 7c 24 10       	mov    %rdi,0x10(%rsp)
  10e455:	48 89 44 24 18       	mov    %rax,0x18(%rsp)
  10e45a:	48 83 c4 20          	add    $0x20,%rsp
  10e45e:	c3                   	retq   
  10e45f:	cc                   	int3   

000000000010e460 <_ZN4core3str21_$LT$impl$u20$str$GT$8is_empty17ha1e4ec5f24d7978aE>:
  10e460:	48 83 ec 18          	sub    $0x18,%rsp
  10e464:	48 89 7c 24 08       	mov    %rdi,0x8(%rsp)
  10e469:	48 89 74 24 10       	mov    %rsi,0x10(%rsp)
  10e46e:	e8 cd ff ff ff       	callq  10e440 <_ZN4core3str21_$LT$impl$u20$str$GT$3len17h6145da0040cceaafE>
  10e473:	48 83 f8 00          	cmp    $0x0,%rax
  10e477:	0f 94 c0             	sete   %al
  10e47a:	24 01                	and    $0x1,%al
  10e47c:	0f b6 c0             	movzbl %al,%eax
  10e47f:	48 83 c4 18          	add    $0x18,%rsp
  10e483:	c3                   	retq   
  10e484:	cc                   	int3   
  10e485:	cc                   	int3   
  10e486:	cc                   	int3   
  10e487:	cc                   	int3   
  10e488:	cc                   	int3   
  10e489:	cc                   	int3   
  10e48a:	cc                   	int3   
  10e48b:	cc                   	int3   
  10e48c:	cc                   	int3   
  10e48d:	cc                   	int3   
  10e48e:	cc                   	int3   
  10e48f:	cc                   	int3   

000000000010e490 <_ZN4core3str21_$LT$impl$u20$str$GT$16is_char_boundary17h9f8002c85933d8d6E>:
  10e490:	48 83 ec 58          	sub    $0x58,%rsp
  10e494:	48 89 14 24          	mov    %rdx,(%rsp)
  10e498:	48 89 74 24 08       	mov    %rsi,0x8(%rsp)
  10e49d:	48 89 7c 24 10       	mov    %rdi,0x10(%rsp)
  10e4a2:	48 89 7c 24 28       	mov    %rdi,0x28(%rsp)
  10e4a7:	48 89 74 24 30       	mov    %rsi,0x30(%rsp)
  10e4ac:	48 89 54 24 38       	mov    %rdx,0x38(%rsp)
  10e4b1:	48 83 fa 00          	cmp    $0x0,%rdx
  10e4b5:	75 07                	jne    10e4be <_ZN4core3str21_$LT$impl$u20$str$GT$16is_char_boundary17h9f8002c85933d8d6E+0x2e>
  10e4b7:	c6 44 24 1f 01       	movb   $0x1,0x1f(%rsp)
  10e4bc:	eb 3e                	jmp    10e4fc <_ZN4core3str21_$LT$impl$u20$str$GT$16is_char_boundary17h9f8002c85933d8d6E+0x6c>
  10e4be:	48 8b 14 24          	mov    (%rsp),%rdx
  10e4c2:	48 8b 7c 24 10       	mov    0x10(%rsp),%rdi
  10e4c7:	48 8b 74 24 08       	mov    0x8(%rsp),%rsi
  10e4cc:	48 89 7c 24 48       	mov    %rdi,0x48(%rsp)
  10e4d1:	48 89 74 24 50       	mov    %rsi,0x50(%rsp)
  10e4d6:	e8 35 03 00 00       	callq  10e810 <_ZN4core5slice29_$LT$impl$u20$$u5b$T$u5d$$GT$3get17h253a4b4af26113f6E>
  10e4db:	48 89 44 24 20       	mov    %rax,0x20(%rsp)
  10e4e0:	48 8b 54 24 20       	mov    0x20(%rsp),%rdx
  10e4e5:	b8 01 00 00 00       	mov    $0x1,%eax
  10e4ea:	31 c9                	xor    %ecx,%ecx
  10e4ec:	48 83 fa 00          	cmp    $0x0,%rdx
  10e4f0:	48 0f 44 c1          	cmove  %rcx,%rax
  10e4f4:	48 83 f8 00          	cmp    $0x0,%rax
  10e4f8:	74 10                	je     10e50a <_ZN4core3str21_$LT$impl$u20$str$GT$16is_char_boundary17h9f8002c85933d8d6E+0x7a>
  10e4fa:	eb 32                	jmp    10e52e <_ZN4core3str21_$LT$impl$u20$str$GT$16is_char_boundary17h9f8002c85933d8d6E+0x9e>
  10e4fc:	8a 44 24 1f          	mov    0x1f(%rsp),%al
  10e500:	24 01                	and    $0x1,%al
  10e502:	0f b6 c0             	movzbl %al,%eax
  10e505:	48 83 c4 58          	add    $0x58,%rsp
  10e509:	c3                   	retq   
  10e50a:	48 8b 74 24 08       	mov    0x8(%rsp),%rsi
  10e50f:	48 8b 7c 24 10       	mov    0x10(%rsp),%rdi
  10e514:	e8 27 ff ff ff       	callq  10e440 <_ZN4core3str21_$LT$impl$u20$str$GT$3len17h6145da0040cceaafE>
  10e519:	48 89 c1             	mov    %rax,%rcx
  10e51c:	48 8b 04 24          	mov    (%rsp),%rax
  10e520:	48 39 c8             	cmp    %rcx,%rax
  10e523:	0f 94 c0             	sete   %al
  10e526:	24 01                	and    $0x1,%al
  10e528:	88 44 24 1f          	mov    %al,0x1f(%rsp)
  10e52c:	eb ce                	jmp    10e4fc <_ZN4core3str21_$LT$impl$u20$str$GT$16is_char_boundary17h9f8002c85933d8d6E+0x6c>
  10e52e:	48 8b 44 24 20       	mov    0x20(%rsp),%rax
  10e533:	8a 00                	mov    (%rax),%al
  10e535:	88 44 24 47          	mov    %al,0x47(%rsp)
  10e539:	0f b6 f8             	movzbl %al,%edi
  10e53c:	e8 df 52 ff ff       	callq  103820 <_ZN4core3num20_$LT$impl$u20$u8$GT$21is_utf8_char_boundary17h47183227e4a38da0E>
  10e541:	24 01                	and    $0x1,%al
  10e543:	88 44 24 1f          	mov    %al,0x1f(%rsp)
  10e547:	eb b3                	jmp    10e4fc <_ZN4core3str21_$LT$impl$u20$str$GT$16is_char_boundary17h9f8002c85933d8d6E+0x6c>
  10e549:	cc                   	int3   
  10e54a:	cc                   	int3   
  10e54b:	cc                   	int3   
  10e54c:	cc                   	int3   
  10e54d:	cc                   	int3   
  10e54e:	cc                   	int3   
  10e54f:	cc                   	int3   

000000000010e550 <_ZN4core3str21_$LT$impl$u20$str$GT$3get17h899ba4b88fb3315aE>:
  10e550:	48 83 ec 28          	sub    $0x28,%rsp
  10e554:	48 89 54 24 08       	mov    %rdx,0x8(%rsp)
  10e559:	48 89 f2             	mov    %rsi,%rdx
  10e55c:	48 89 fe             	mov    %rdi,%rsi
  10e55f:	48 8b 7c 24 08       	mov    0x8(%rsp),%rdi
  10e564:	48 89 74 24 10       	mov    %rsi,0x10(%rsp)
  10e569:	48 89 54 24 18       	mov    %rdx,0x18(%rsp)
  10e56e:	48 89 7c 24 20       	mov    %rdi,0x20(%rsp)
  10e573:	e8 78 f2 ff ff       	callq  10d7f0 <_ZN4core3str6traits110_$LT$impl$u20$core..slice..index..SliceIndex$LT$str$GT$$u20$for$u20$core..ops..range..RangeTo$LT$usize$GT$$GT$3get17h8e0882a3bf1b047fE>
  10e578:	48 83 c4 28          	add    $0x28,%rsp
  10e57c:	c3                   	retq   
  10e57d:	cc                   	int3   
  10e57e:	cc                   	int3   
  10e57f:	cc                   	int3   

000000000010e580 <_ZN4core3str21_$LT$impl$u20$str$GT$13get_unchecked17hd9258b331b6bb031E>:
  10e580:	48 83 ec 38          	sub    $0x38,%rsp
  10e584:	48 89 4c 24 08       	mov    %rcx,0x8(%rsp)
  10e589:	48 89 54 24 10       	mov    %rdx,0x10(%rsp)
  10e58e:	48 89 f1             	mov    %rsi,%rcx
  10e591:	48 8b 74 24 08       	mov    0x8(%rsp),%rsi
  10e596:	48 89 fa             	mov    %rdi,%rdx
  10e599:	48 8b 7c 24 10       	mov    0x10(%rsp),%rdi
  10e59e:	48 89 54 24 18       	mov    %rdx,0x18(%rsp)
  10e5a3:	48 89 4c 24 20       	mov    %rcx,0x20(%rsp)
  10e5a8:	48 89 7c 24 28       	mov    %rdi,0x28(%rsp)
  10e5ad:	48 89 74 24 30       	mov    %rsi,0x30(%rsp)
  10e5b2:	e8 79 f0 ff ff       	callq  10d630 <_ZN4core3str6traits108_$LT$impl$u20$core..slice..index..SliceIndex$LT$str$GT$$u20$for$u20$core..ops..range..Range$LT$usize$GT$$GT$13get_unchecked17h5fbe8bd7b4be1a05E>
  10e5b7:	48 83 c4 38          	add    $0x38,%rsp
  10e5bb:	c3                   	retq   
  10e5bc:	cc                   	int3   
  10e5bd:	cc                   	int3   
  10e5be:	cc                   	int3   
  10e5bf:	cc                   	int3   

000000000010e5c0 <_ZN4core3str21_$LT$impl$u20$str$GT$5chars17h53006093ff9692abE>:
  10e5c0:	48 83 ec 38          	sub    $0x38,%rsp
  10e5c4:	48 89 7c 24 18       	mov    %rdi,0x18(%rsp)
  10e5c9:	48 89 74 24 20       	mov    %rsi,0x20(%rsp)
  10e5ce:	48 89 7c 24 28       	mov    %rdi,0x28(%rsp)
  10e5d3:	48 89 74 24 30       	mov    %rsi,0x30(%rsp)
  10e5d8:	e8 33 03 00 00       	callq  10e910 <_ZN4core5slice29_$LT$impl$u20$$u5b$T$u5d$$GT$4iter17h91c6f813157a1ddaE>
  10e5dd:	48 89 44 24 08       	mov    %rax,0x8(%rsp)
  10e5e2:	48 89 54 24 10       	mov    %rdx,0x10(%rsp)
  10e5e7:	48 8b 44 24 08       	mov    0x8(%rsp),%rax
  10e5ec:	48 8b 54 24 10       	mov    0x10(%rsp),%rdx
  10e5f1:	48 83 c4 38          	add    $0x38,%rsp
  10e5f5:	c3                   	retq   
  10e5f6:	cc                   	int3   
  10e5f7:	cc                   	int3   
  10e5f8:	cc                   	int3   
  10e5f9:	cc                   	int3   
  10e5fa:	cc                   	int3   
  10e5fb:	cc                   	int3   
  10e5fc:	cc                   	int3   
  10e5fd:	cc                   	int3   
  10e5fe:	cc                   	int3   
  10e5ff:	cc                   	int3   

000000000010e600 <_ZN4core3str21_$LT$impl$u20$str$GT$12char_indices17ha8f11a18cd63348aE>:
  10e600:	48 83 ec 38          	sub    $0x38,%rsp
  10e604:	48 89 54 24 08       	mov    %rdx,0x8(%rsp)
  10e609:	48 89 f0             	mov    %rsi,%rax
  10e60c:	48 8b 74 24 08       	mov    0x8(%rsp),%rsi
  10e611:	48 89 44 24 10       	mov    %rax,0x10(%rsp)
  10e616:	48 89 f8             	mov    %rdi,%rax
  10e619:	48 8b 7c 24 10       	mov    0x10(%rsp),%rdi
  10e61e:	48 89 44 24 18       	mov    %rax,0x18(%rsp)
  10e623:	48 89 44 24 20       	mov    %rax,0x20(%rsp)
  10e628:	48 89 7c 24 28       	mov    %rdi,0x28(%rsp)
  10e62d:	48 89 74 24 30       	mov    %rsi,0x30(%rsp)
  10e632:	e8 89 ff ff ff       	callq  10e5c0 <_ZN4core3str21_$LT$impl$u20$str$GT$5chars17h53006093ff9692abE>
  10e637:	48 8b 7c 24 18       	mov    0x18(%rsp),%rdi
  10e63c:	48 89 c1             	mov    %rax,%rcx
  10e63f:	48 8b 44 24 20       	mov    0x20(%rsp),%rax
  10e644:	48 c7 47 10 00 00 00 	movq   $0x0,0x10(%rdi)
  10e64b:	00 
  10e64c:	48 89 0f             	mov    %rcx,(%rdi)
  10e64f:	48 89 57 08          	mov    %rdx,0x8(%rdi)
  10e653:	48 83 c4 38          	add    $0x38,%rsp
  10e657:	c3                   	retq   
  10e658:	cc                   	int3   
  10e659:	cc                   	int3   
  10e65a:	cc                   	int3   
  10e65b:	cc                   	int3   
  10e65c:	cc                   	int3   
  10e65d:	cc                   	int3   
  10e65e:	cc                   	int3   
  10e65f:	cc                   	int3   

000000000010e660 <_ZN4core3str21_$LT$impl$u20$str$GT$9ends_with17hf45aa0a8012ac9d0E>:
  10e660:	48 83 ec 28          	sub    $0x28,%rsp
  10e664:	89 54 24 0c          	mov    %edx,0xc(%rsp)
  10e668:	48 89 f2             	mov    %rsi,%rdx
  10e66b:	48 89 fe             	mov    %rdi,%rsi
  10e66e:	8b 7c 24 0c          	mov    0xc(%rsp),%edi
  10e672:	48 89 74 24 10       	mov    %rsi,0x10(%rsp)
  10e677:	48 89 54 24 18       	mov    %rdx,0x18(%rsp)
  10e67c:	89 7c 24 24          	mov    %edi,0x24(%rsp)
  10e680:	e8 db f6 ff ff       	callq  10dd60 <_ZN52_$LT$char$u20$as$u20$core..str..pattern..Pattern$GT$12is_suffix_of17hfea9e972985df284E>
  10e685:	24 01                	and    $0x1,%al
  10e687:	0f b6 c0             	movzbl %al,%eax
  10e68a:	48 83 c4 28          	add    $0x28,%rsp
  10e68e:	c3                   	retq   
  10e68f:	cc                   	int3   

000000000010e690 <_ZN4core3str21_$LT$impl$u20$str$GT$15split_inclusive17h20d014c6e83f56eaE>:
  10e690:	48 81 ec c8 00 00 00 	sub    $0xc8,%rsp
  10e697:	89 4c 24 0c          	mov    %ecx,0xc(%rsp)
  10e69b:	48 89 54 24 18       	mov    %rdx,0x18(%rsp)
  10e6a0:	48 89 f0             	mov    %rsi,%rax
  10e6a3:	48 8b 74 24 18       	mov    0x18(%rsp),%rsi
  10e6a8:	48 89 44 24 10       	mov    %rax,0x10(%rsp)
  10e6ad:	48 89 f8             	mov    %rdi,%rax
  10e6b0:	48 8b 7c 24 10       	mov    0x10(%rsp),%rdi
  10e6b5:	48 89 44 24 28       	mov    %rax,0x28(%rsp)
  10e6ba:	48 89 44 24 30       	mov    %rax,0x30(%rsp)
  10e6bf:	48 89 bc 24 b0 00 00 	mov    %rdi,0xb0(%rsp)
  10e6c6:	00 
  10e6c7:	48 89 b4 24 b8 00 00 	mov    %rsi,0xb8(%rsp)
  10e6ce:	00 
  10e6cf:	89 8c 24 c4 00 00 00 	mov    %ecx,0xc4(%rsp)
  10e6d6:	e8 65 fd ff ff       	callq  10e440 <_ZN4core3str21_$LT$impl$u20$str$GT$3len17h6145da0040cceaafE>
  10e6db:	8b 74 24 0c          	mov    0xc(%rsp),%esi
  10e6df:	48 8b 54 24 10       	mov    0x10(%rsp),%rdx
  10e6e4:	48 8b 4c 24 18       	mov    0x18(%rsp),%rcx
  10e6e9:	48 89 44 24 20       	mov    %rax,0x20(%rsp)
  10e6ee:	48 8d bc 24 80 00 00 	lea    0x80(%rsp),%rdi
  10e6f5:	00 
  10e6f6:	e8 65 f5 ff ff       	callq  10dc60 <_ZN52_$LT$char$u20$as$u20$core..str..pattern..Pattern$GT$13into_searcher17h4720a3c052e69d60E>
  10e6fb:	48 8b 44 24 20       	mov    0x20(%rsp),%rax
  10e700:	48 c7 44 24 38 00 00 	movq   $0x0,0x38(%rsp)
  10e707:	00 00 
  10e709:	48 89 44 24 40       	mov    %rax,0x40(%rsp)
  10e70e:	48 8d 7c 24 38       	lea    0x38(%rsp),%rdi
  10e713:	48 83 c7 10          	add    $0x10,%rdi
  10e717:	48 8d b4 24 80 00 00 	lea    0x80(%rsp),%rsi
  10e71e:	00 
  10e71f:	ba 30 00 00 00       	mov    $0x30,%edx
  10e724:	e8 47 15 00 00       	callq  10fc70 <memcpy>
  10e729:	48 8b 7c 24 28       	mov    0x28(%rsp),%rdi
  10e72e:	c6 44 24 78 00       	movb   $0x0,0x78(%rsp)
  10e733:	c6 44 24 79 00       	movb   $0x0,0x79(%rsp)
  10e738:	48 8d 74 24 38       	lea    0x38(%rsp),%rsi
  10e73d:	ba 48 00 00 00       	mov    $0x48,%edx
  10e742:	e8 29 15 00 00       	callq  10fc70 <memcpy>
  10e747:	48 8b 44 24 30       	mov    0x30(%rsp),%rax
  10e74c:	48 81 c4 c8 00 00 00 	add    $0xc8,%rsp
  10e753:	c3                   	retq   
  10e754:	cc                   	int3   
  10e755:	cc                   	int3   
  10e756:	cc                   	int3   
  10e757:	cc                   	int3   
  10e758:	cc                   	int3   
  10e759:	cc                   	int3   
  10e75a:	cc                   	int3   
  10e75b:	cc                   	int3   
  10e75c:	cc                   	int3   
  10e75d:	cc                   	int3   
  10e75e:	cc                   	int3   
  10e75f:	cc                   	int3   

000000000010e760 <_ZN70_$LT$core..num..error..TryFromIntError$u20$as$u20$core..fmt..Debug$GT$3fmt17h1fa9fa147bbfd889E>:
  10e760:	48 83 ec 28          	sub    $0x28,%rsp
  10e764:	48 89 74 24 08       	mov    %rsi,0x8(%rsp)
  10e769:	48 89 f8             	mov    %rdi,%rax
  10e76c:	48 8b 7c 24 08       	mov    0x8(%rsp),%rdi
  10e771:	48 89 44 24 18       	mov    %rax,0x18(%rsp)
  10e776:	48 89 7c 24 20       	mov    %rdi,0x20(%rsp)
  10e77b:	48 89 44 24 10       	mov    %rax,0x10(%rsp)
  10e780:	48 8d 35 95 31 ff ff 	lea    -0xce6b(%rip),%rsi        # 10191c <str.1+0x29c>
  10e787:	ba 0f 00 00 00       	mov    $0xf,%edx
  10e78c:	48 8d 4c 24 10       	lea    0x10(%rsp),%rcx
  10e791:	4c 8d 05 b0 3c 00 00 	lea    0x3cb0(%rip),%r8        # 112448 <_ZN4core3fmt2rt12USIZE_MARKER17h1b31419084dfd5e3E+0xa50>
  10e798:	e8 a3 a6 ff ff       	callq  108e40 <_ZN4core3fmt9Formatter25debug_tuple_field1_finish17h7cfe2f213a700728E>
  10e79d:	24 01                	and    $0x1,%al
  10e79f:	0f b6 c0             	movzbl %al,%eax
  10e7a2:	48 83 c4 28          	add    $0x28,%rsp
  10e7a6:	c3                   	retq   
  10e7a7:	cc                   	int3   
  10e7a8:	cc                   	int3   
  10e7a9:	cc                   	int3   
  10e7aa:	cc                   	int3   
  10e7ab:	cc                   	int3   
  10e7ac:	cc                   	int3   
  10e7ad:	cc                   	int3   
  10e7ae:	cc                   	int3   
  10e7af:	cc                   	int3   

000000000010e7b0 <_ZN4core5slice29_$LT$impl$u20$$u5b$T$u5d$$GT$8is_empty17h8d9abccf13d8d832E>:
  10e7b0:	48 83 ec 10          	sub    $0x10,%rsp
  10e7b4:	48 89 3c 24          	mov    %rdi,(%rsp)
  10e7b8:	48 89 74 24 08       	mov    %rsi,0x8(%rsp)
  10e7bd:	48 83 fe 00          	cmp    $0x0,%rsi
  10e7c1:	0f 94 c0             	sete   %al
  10e7c4:	24 01                	and    $0x1,%al
  10e7c6:	0f b6 c0             	movzbl %al,%eax
  10e7c9:	48 83 c4 10          	add    $0x10,%rsp
  10e7cd:	c3                   	retq   
  10e7ce:	cc                   	int3   
  10e7cf:	cc                   	int3   

000000000010e7d0 <_ZN4core5slice29_$LT$impl$u20$$u5b$T$u5d$$GT$3get17h0256a46bc42be2ffE>:
  10e7d0:	48 83 ec 38          	sub    $0x38,%rsp
  10e7d4:	48 89 4c 24 08       	mov    %rcx,0x8(%rsp)
  10e7d9:	48 89 54 24 10       	mov    %rdx,0x10(%rsp)
  10e7de:	48 89 f1             	mov    %rsi,%rcx
  10e7e1:	48 8b 74 24 08       	mov    0x8(%rsp),%rsi
  10e7e6:	48 89 fa             	mov    %rdi,%rdx
  10e7e9:	48 8b 7c 24 10       	mov    0x10(%rsp),%rdi
  10e7ee:	48 89 54 24 18       	mov    %rdx,0x18(%rsp)
  10e7f3:	48 89 4c 24 20       	mov    %rcx,0x20(%rsp)
  10e7f8:	48 89 7c 24 28       	mov    %rdi,0x28(%rsp)
  10e7fd:	48 89 74 24 30       	mov    %rsi,0x30(%rsp)
  10e802:	e8 29 e6 ff ff       	callq  10ce30 <_ZN106_$LT$core..ops..range..Range$LT$usize$GT$$u20$as$u20$core..slice..index..SliceIndex$LT$$u5b$T$u5d$$GT$$GT$3get17h7ac1e30b282c87a1E>
  10e807:	48 83 c4 38          	add    $0x38,%rsp
  10e80b:	c3                   	retq   
  10e80c:	cc                   	int3   
  10e80d:	cc                   	int3   
  10e80e:	cc                   	int3   
  10e80f:	cc                   	int3   

000000000010e810 <_ZN4core5slice29_$LT$impl$u20$$u5b$T$u5d$$GT$3get17h253a4b4af26113f6E>:
  10e810:	48 83 ec 28          	sub    $0x28,%rsp
  10e814:	48 89 54 24 08       	mov    %rdx,0x8(%rsp)
  10e819:	48 89 f2             	mov    %rsi,%rdx
  10e81c:	48 89 fe             	mov    %rdi,%rsi
  10e81f:	48 8b 7c 24 08       	mov    0x8(%rsp),%rdi
  10e824:	48 89 74 24 10       	mov    %rsi,0x10(%rsp)
  10e829:	48 89 54 24 18       	mov    %rdx,0x18(%rsp)
  10e82e:	48 89 7c 24 20       	mov    %rdi,0x20(%rsp)
  10e833:	e8 48 ab ff ff       	callq  109380 <_ZN75_$LT$usize$u20$as$u20$core..slice..index..SliceIndex$LT$$u5b$T$u5d$$GT$$GT$3get17ha8a51191502e36b4E>
  10e838:	48 83 c4 28          	add    $0x28,%rsp
  10e83c:	c3                   	retq   
  10e83d:	cc                   	int3   
  10e83e:	cc                   	int3   
  10e83f:	cc                   	int3   

000000000010e840 <_ZN4core5slice29_$LT$impl$u20$$u5b$T$u5d$$GT$3get17h3bdb5ec72e6c792aE>:
  10e840:	48 83 ec 28          	sub    $0x28,%rsp
  10e844:	48 89 54 24 08       	mov    %rdx,0x8(%rsp)
  10e849:	48 89 f2             	mov    %rsi,%rdx
  10e84c:	48 89 fe             	mov    %rdi,%rsi
  10e84f:	48 8b 7c 24 08       	mov    0x8(%rsp),%rdi
  10e854:	48 89 74 24 10       	mov    %rsi,0x10(%rsp)
  10e859:	48 89 54 24 18       	mov    %rdx,0x18(%rsp)
  10e85e:	48 89 7c 24 20       	mov    %rdi,0x20(%rsp)
  10e863:	e8 b8 aa ff ff       	callq  109320 <_ZN75_$LT$usize$u20$as$u20$core..slice..index..SliceIndex$LT$$u5b$T$u5d$$GT$$GT$3get17h703bdff533589bd8E>
  10e868:	48 83 c4 28          	add    $0x28,%rsp
  10e86c:	c3                   	retq   
  10e86d:	cc                   	int3   
  10e86e:	cc                   	int3   
  10e86f:	cc                   	int3   

000000000010e870 <_ZN4core5slice29_$LT$impl$u20$$u5b$T$u5d$$GT$13get_unchecked17h1f95ad7ac16543d5E>:
  10e870:	48 83 ec 28          	sub    $0x28,%rsp
  10e874:	48 89 54 24 08       	mov    %rdx,0x8(%rsp)
  10e879:	48 89 f2             	mov    %rsi,%rdx
  10e87c:	48 89 fe             	mov    %rdi,%rsi
  10e87f:	48 8b 7c 24 08       	mov    0x8(%rsp),%rdi
  10e884:	48 89 74 24 10       	mov    %rsi,0x10(%rsp)
  10e889:	48 89 54 24 18       	mov    %rdx,0x18(%rsp)
  10e88e:	48 89 7c 24 20       	mov    %rdi,0x20(%rsp)
  10e893:	e8 48 ab ff ff       	callq  1093e0 <_ZN75_$LT$usize$u20$as$u20$core..slice..index..SliceIndex$LT$$u5b$T$u5d$$GT$$GT$13get_unchecked17h92b206c5dfd3eab3E>
  10e898:	48 83 c4 28          	add    $0x28,%rsp
  10e89c:	c3                   	retq   
  10e89d:	cc                   	int3   
  10e89e:	cc                   	int3   
  10e89f:	cc                   	int3   

000000000010e8a0 <_ZN4core5slice29_$LT$impl$u20$$u5b$T$u5d$$GT$13get_unchecked17h72b7b2957b709cd4E>:
  10e8a0:	48 83 ec 28          	sub    $0x28,%rsp
  10e8a4:	48 89 54 24 08       	mov    %rdx,0x8(%rsp)
  10e8a9:	48 89 f2             	mov    %rsi,%rdx
  10e8ac:	48 89 fe             	mov    %rdi,%rsi
  10e8af:	48 8b 7c 24 08       	mov    0x8(%rsp),%rdi
  10e8b4:	48 89 74 24 10       	mov    %rsi,0x10(%rsp)
  10e8b9:	48 89 54 24 18       	mov    %rdx,0x18(%rsp)
  10e8be:	48 89 7c 24 20       	mov    %rdi,0x20(%rsp)
  10e8c3:	e8 e8 ab ff ff       	callq  1094b0 <_ZN75_$LT$usize$u20$as$u20$core..slice..index..SliceIndex$LT$$u5b$T$u5d$$GT$$GT$13get_unchecked17haf88ff837e4db5d0E>
  10e8c8:	48 83 c4 28          	add    $0x28,%rsp
  10e8cc:	c3                   	retq   
  10e8cd:	cc                   	int3   
  10e8ce:	cc                   	int3   
  10e8cf:	cc                   	int3   

000000000010e8d0 <_ZN4core5slice29_$LT$impl$u20$$u5b$T$u5d$$GT$4iter17h4b92e5232e1ff441E>:
  10e8d0:	48 83 ec 18          	sub    $0x18,%rsp
  10e8d4:	48 89 7c 24 08       	mov    %rdi,0x8(%rsp)
  10e8d9:	48 89 74 24 10       	mov    %rsi,0x10(%rsp)
  10e8de:	e8 ed d6 ff ff       	callq  10bfd0 <_ZN4core5slice4iter13Iter$LT$T$GT$3new17h574c7a9464a55651E>
  10e8e3:	48 83 c4 18          	add    $0x18,%rsp
  10e8e7:	c3                   	retq   
  10e8e8:	cc                   	int3   
  10e8e9:	cc                   	int3   
  10e8ea:	cc                   	int3   
  10e8eb:	cc                   	int3   
  10e8ec:	cc                   	int3   
  10e8ed:	cc                   	int3   
  10e8ee:	cc                   	int3   
  10e8ef:	cc                   	int3   

000000000010e8f0 <_ZN4core5slice29_$LT$impl$u20$$u5b$T$u5d$$GT$4iter17h56799e9d3f578d01E>:
  10e8f0:	48 83 ec 18          	sub    $0x18,%rsp
  10e8f4:	48 89 7c 24 08       	mov    %rdi,0x8(%rsp)
  10e8f9:	48 89 74 24 10       	mov    %rsi,0x10(%rsp)
  10e8fe:	e8 7d d8 ff ff       	callq  10c180 <_ZN4core5slice4iter13Iter$LT$T$GT$3new17hfcd1344e6e18beadE>
  10e903:	48 83 c4 18          	add    $0x18,%rsp
  10e907:	c3                   	retq   
  10e908:	cc                   	int3   
  10e909:	cc                   	int3   
  10e90a:	cc                   	int3   
  10e90b:	cc                   	int3   
  10e90c:	cc                   	int3   
  10e90d:	cc                   	int3   
  10e90e:	cc                   	int3   
  10e90f:	cc                   	int3   

000000000010e910 <_ZN4core5slice29_$LT$impl$u20$$u5b$T$u5d$$GT$4iter17h91c6f813157a1ddaE>:
  10e910:	48 83 ec 18          	sub    $0x18,%rsp
  10e914:	48 89 7c 24 08       	mov    %rdi,0x8(%rsp)
  10e919:	48 89 74 24 10       	mov    %rsi,0x10(%rsp)
  10e91e:	e8 3d d7 ff ff       	callq  10c060 <_ZN4core5slice4iter13Iter$LT$T$GT$3new17h89a57654022084cdE>
  10e923:	48 83 c4 18          	add    $0x18,%rsp
  10e927:	c3                   	retq   
  10e928:	cc                   	int3   
  10e929:	cc                   	int3   
  10e92a:	cc                   	int3   
  10e92b:	cc                   	int3   
  10e92c:	cc                   	int3   
  10e92d:	cc                   	int3   
  10e92e:	cc                   	int3   
  10e92f:	cc                   	int3   

000000000010e930 <_ZN4core5slice29_$LT$impl$u20$$u5b$T$u5d$$GT$6chunks17he0181871f52356f0E>:
  10e930:	48 81 ec 88 00 00 00 	sub    $0x88,%rsp
  10e937:	4c 89 44 24 10       	mov    %r8,0x10(%rsp)
  10e93c:	48 89 4c 24 18       	mov    %rcx,0x18(%rsp)
  10e941:	48 89 54 24 20       	mov    %rdx,0x20(%rsp)
  10e946:	48 89 74 24 28       	mov    %rsi,0x28(%rsp)
  10e94b:	48 89 7c 24 30       	mov    %rdi,0x30(%rsp)
  10e950:	48 89 7c 24 38       	mov    %rdi,0x38(%rsp)
  10e955:	48 89 74 24 70       	mov    %rsi,0x70(%rsp)
  10e95a:	48 89 54 24 78       	mov    %rdx,0x78(%rsp)
  10e95f:	48 89 8c 24 80 00 00 	mov    %rcx,0x80(%rsp)
  10e966:	00 
  10e967:	48 83 f9 00          	cmp    $0x0,%rcx
  10e96b:	0f 95 c0             	setne  %al
  10e96e:	34 ff                	xor    $0xff,%al
  10e970:	a8 01                	test   $0x1,%al
  10e972:	75 26                	jne    10e99a <_ZN4core5slice29_$LT$impl$u20$$u5b$T$u5d$$GT$6chunks17he0181871f52356f0E+0x6a>
  10e974:	48 8b 4c 24 18       	mov    0x18(%rsp),%rcx
  10e979:	48 8b 54 24 20       	mov    0x20(%rsp),%rdx
  10e97e:	48 8b 74 24 28       	mov    0x28(%rsp),%rsi
  10e983:	48 8b 7c 24 30       	mov    0x30(%rsp),%rdi
  10e988:	e8 63 d9 ff ff       	callq  10c2f0 <_ZN4core5slice4iter15Chunks$LT$T$GT$3new17h5aeda86fec62804bE>
  10e98d:	48 8b 44 24 38       	mov    0x38(%rsp),%rax
  10e992:	48 81 c4 88 00 00 00 	add    $0x88,%rsp
  10e999:	c3                   	retq   
  10e99a:	48 8d 35 c7 3a 00 00 	lea    0x3ac7(%rip),%rsi        # 112468 <_ZN4core3fmt2rt12USIZE_MARKER17h1b31419084dfd5e3E+0xa70>
  10e9a1:	48 8d 7c 24 40       	lea    0x40(%rsp),%rdi
  10e9a6:	48 89 7c 24 08       	mov    %rdi,0x8(%rsp)
  10e9ab:	ba 01 00 00 00       	mov    $0x1,%edx
  10e9b0:	e8 bb 8a ff ff       	callq  107470 <_ZN4core3fmt9Arguments9new_const17hd728abf84ff8d077E>
  10e9b5:	48 8b 7c 24 08       	mov    0x8(%rsp),%rdi
  10e9ba:	48 8b 74 24 10       	mov    0x10(%rsp),%rsi
  10e9bf:	e8 bc 69 ff ff       	callq  105380 <_ZN4core9panicking9panic_fmt17hec0a0bac075b5c3fE>
  10e9c4:	0f 0b                	ud2    
  10e9c6:	cc                   	int3   
  10e9c7:	cc                   	int3   
  10e9c8:	cc                   	int3   
  10e9c9:	cc                   	int3   
  10e9ca:	cc                   	int3   
  10e9cb:	cc                   	int3   
  10e9cc:	cc                   	int3   
  10e9cd:	cc                   	int3   
  10e9ce:	cc                   	int3   
  10e9cf:	cc                   	int3   

000000000010e9d0 <_ZN4core5slice29_$LT$impl$u20$$u5b$T$u5d$$GT$19as_chunks_unchecked17hf1c434f143f09e5bE>:
  10e9d0:	48 81 ec 98 00 00 00 	sub    $0x98,%rsp
  10e9d7:	48 89 74 24 18       	mov    %rsi,0x18(%rsp)
  10e9dc:	48 89 7c 24 20       	mov    %rdi,0x20(%rsp)
  10e9e1:	48 89 7c 24 40       	mov    %rdi,0x40(%rsp)
  10e9e6:	48 89 74 24 48       	mov    %rsi,0x48(%rsp)
  10e9eb:	b0 01                	mov    $0x1,%al
  10e9ed:	a8 01                	test   $0x1,%al
  10e9ef:	75 3c                	jne    10ea2d <_ZN4core5slice29_$LT$impl$u20$$u5b$T$u5d$$GT$19as_chunks_unchecked17hf1c434f143f09e5bE+0x5d>
  10e9f1:	48 8b 7c 24 20       	mov    0x20(%rsp),%rdi
  10e9f6:	48 8b 44 24 18       	mov    0x18(%rsp),%rax
  10e9fb:	48 89 c1             	mov    %rax,%rcx
  10e9fe:	48 c1 e9 02          	shr    $0x2,%rcx
  10ea02:	48 89 4c 24 50       	mov    %rcx,0x50(%rsp)
  10ea07:	48 8b 74 24 50       	mov    0x50(%rsp),%rsi
  10ea0c:	48 89 74 24 58       	mov    %rsi,0x58(%rsp)
  10ea11:	48 89 7c 24 68       	mov    %rdi,0x68(%rsp)
  10ea16:	48 89 44 24 70       	mov    %rax,0x70(%rsp)
  10ea1b:	48 89 7c 24 60       	mov    %rdi,0x60(%rsp)
  10ea20:	e8 1b b9 ff ff       	callq  10a340 <_ZN4core5slice3raw14from_raw_parts17h1bfb58200c0829d0E>
  10ea25:	48 81 c4 98 00 00 00 	add    $0x98,%rsp
  10ea2c:	c3                   	retq   
  10ea2d:	48 8b 44 24 18       	mov    0x18(%rsp),%rax
  10ea32:	48 8b 4c 24 20       	mov    0x20(%rsp),%rcx
  10ea37:	48 89 4c 24 28       	mov    %rcx,0x28(%rsp)
  10ea3c:	48 89 44 24 30       	mov    %rax,0x30(%rsp)
  10ea41:	48 c7 44 24 38 04 00 	movq   $0x4,0x38(%rsp)
  10ea48:	00 00 
  10ea4a:	48 8b 54 24 28       	mov    0x28(%rsp),%rdx
  10ea4f:	48 8b 4c 24 30       	mov    0x30(%rsp),%rcx
  10ea54:	48 89 4c 24 08       	mov    %rcx,0x8(%rsp)
  10ea59:	48 8b 44 24 38       	mov    0x38(%rsp),%rax
  10ea5e:	48 89 44 24 10       	mov    %rax,0x10(%rsp)
  10ea63:	48 89 94 24 80 00 00 	mov    %rdx,0x80(%rsp)
  10ea6a:	00 
  10ea6b:	48 89 8c 24 88 00 00 	mov    %rcx,0x88(%rsp)
  10ea72:	00 
  10ea73:	48 89 84 24 90 00 00 	mov    %rax,0x90(%rsp)
  10ea7a:	00 
  10ea7b:	48 83 f8 00          	cmp    $0x0,%rax
  10ea7f:	75 07                	jne    10ea88 <_ZN4core5slice29_$LT$impl$u20$$u5b$T$u5d$$GT$19as_chunks_unchecked17hf1c434f143f09e5bE+0xb8>
  10ea81:	c6 44 24 7f 00       	movb   $0x0,0x7f(%rsp)
  10ea86:	eb 12                	jmp    10ea9a <_ZN4core5slice29_$LT$impl$u20$$u5b$T$u5d$$GT$19as_chunks_unchecked17hf1c434f143f09e5bE+0xca>
  10ea88:	48 8b 44 24 10       	mov    0x10(%rsp),%rax
  10ea8d:	48 83 f8 00          	cmp    $0x0,%rax
  10ea91:	0f 94 c0             	sete   %al
  10ea94:	a8 01                	test   $0x1,%al
  10ea96:	75 2c                	jne    10eac4 <_ZN4core5slice29_$LT$impl$u20$$u5b$T$u5d$$GT$19as_chunks_unchecked17hf1c434f143f09e5bE+0xf4>
  10ea98:	eb 0c                	jmp    10eaa6 <_ZN4core5slice29_$LT$impl$u20$$u5b$T$u5d$$GT$19as_chunks_unchecked17hf1c434f143f09e5bE+0xd6>
  10ea9a:	8a 44 24 7f          	mov    0x7f(%rsp),%al
  10ea9e:	34 ff                	xor    $0xff,%al
  10eaa0:	a8 01                	test   $0x1,%al
  10eaa2:	75 3a                	jne    10eade <_ZN4core5slice29_$LT$impl$u20$$u5b$T$u5d$$GT$19as_chunks_unchecked17hf1c434f143f09e5bE+0x10e>
  10eaa4:	eb 4b                	jmp    10eaf1 <_ZN4core5slice29_$LT$impl$u20$$u5b$T$u5d$$GT$19as_chunks_unchecked17hf1c434f143f09e5bE+0x121>
  10eaa6:	48 8b 4c 24 10       	mov    0x10(%rsp),%rcx
  10eaab:	48 8b 44 24 08       	mov    0x8(%rsp),%rax
  10eab0:	31 d2                	xor    %edx,%edx
  10eab2:	48 f7 f1             	div    %rcx
  10eab5:	48 83 fa 00          	cmp    $0x0,%rdx
  10eab9:	0f 94 c0             	sete   %al
  10eabc:	24 01                	and    $0x1,%al
  10eabe:	88 44 24 7f          	mov    %al,0x7f(%rsp)
  10eac2:	eb d6                	jmp    10ea9a <_ZN4core5slice29_$LT$impl$u20$$u5b$T$u5d$$GT$19as_chunks_unchecked17hf1c434f143f09e5bE+0xca>
  10eac4:	48 8d 3d c5 30 ff ff 	lea    -0xcf3b(%rip),%rdi        # 101b90 <str.4>
  10eacb:	48 8d 15 4e 3a 00 00 	lea    0x3a4e(%rip),%rdx        # 112520 <_ZN4core3fmt2rt12USIZE_MARKER17h1b31419084dfd5e3E+0xb28>
  10ead2:	be 39 00 00 00       	mov    $0x39,%esi
  10ead7:	e8 54 69 ff ff       	callq  105430 <_ZN4core9panicking5panic17h4e18ef80ec7677b0E>
  10eadc:	0f 0b                	ud2    
  10eade:	48 8d 3d eb 30 ff ff 	lea    -0xcf15(%rip),%rdi        # 101bd0 <str.4+0x40>
  10eae5:	be 84 00 00 00       	mov    $0x84,%esi
  10eaea:	e8 91 69 ff ff       	callq  105480 <_ZN4core9panicking14panic_nounwind17hbf97f84b8fd59176E>
  10eaef:	0f 0b                	ud2    
  10eaf1:	e9 fb fe ff ff       	jmpq   10e9f1 <_ZN4core5slice29_$LT$impl$u20$$u5b$T$u5d$$GT$19as_chunks_unchecked17hf1c434f143f09e5bE+0x21>
  10eaf6:	cc                   	int3   
  10eaf7:	cc                   	int3   
  10eaf8:	cc                   	int3   
  10eaf9:	cc                   	int3   
  10eafa:	cc                   	int3   
  10eafb:	cc                   	int3   
  10eafc:	cc                   	int3   
  10eafd:	cc                   	int3   
  10eafe:	cc                   	int3   
  10eaff:	cc                   	int3   

000000000010eb00 <_ZN4core5slice29_$LT$impl$u20$$u5b$T$u5d$$GT$9as_chunks17h5ddf834b555ef6aeE>:
  10eb00:	48 81 ec e8 00 00 00 	sub    $0xe8,%rsp
  10eb07:	48 89 4c 24 28       	mov    %rcx,0x28(%rsp)
  10eb0c:	48 89 54 24 30       	mov    %rdx,0x30(%rsp)
  10eb11:	48 89 74 24 38       	mov    %rsi,0x38(%rsp)
  10eb16:	48 89 7c 24 40       	mov    %rdi,0x40(%rsp)
  10eb1b:	48 89 7c 24 48       	mov    %rdi,0x48(%rsp)
  10eb20:	48 89 b4 24 a0 00 00 	mov    %rsi,0xa0(%rsp)
  10eb27:	00 
  10eb28:	48 89 94 24 a8 00 00 	mov    %rdx,0xa8(%rsp)
  10eb2f:	00 
  10eb30:	31 c0                	xor    %eax,%eax
  10eb32:	a8 01                	test   $0x1,%al
  10eb34:	75 2b                	jne    10eb61 <_ZN4core5slice29_$LT$impl$u20$$u5b$T$u5d$$GT$9as_chunks17h5ddf834b555ef6aeE+0x61>
  10eb36:	48 8b 44 24 30       	mov    0x30(%rsp),%rax
  10eb3b:	48 c1 e8 02          	shr    $0x2,%rax
  10eb3f:	48 89 84 24 b0 00 00 	mov    %rax,0xb0(%rsp)
  10eb46:	00 
  10eb47:	b9 04 00 00 00       	mov    $0x4,%ecx
  10eb4c:	48 f7 e1             	mul    %rcx
  10eb4f:	48 89 44 24 20       	mov    %rax,0x20(%rsp)
  10eb54:	0f 90 c0             	seto   %al
  10eb57:	a8 01                	test   $0x1,%al
  10eb59:	0f 85 df 00 00 00    	jne    10ec3e <_ZN4core5slice29_$LT$impl$u20$$u5b$T$u5d$$GT$9as_chunks17h5ddf834b555ef6aeE+0x13e>
  10eb5f:	eb 2c                	jmp    10eb8d <_ZN4core5slice29_$LT$impl$u20$$u5b$T$u5d$$GT$9as_chunks17h5ddf834b555ef6aeE+0x8d>
  10eb61:	48 8d 35 00 39 00 00 	lea    0x3900(%rip),%rsi        # 112468 <_ZN4core3fmt2rt12USIZE_MARKER17h1b31419084dfd5e3E+0xa70>
  10eb68:	48 8d 7c 24 50       	lea    0x50(%rsp),%rdi
  10eb6d:	48 89 7c 24 18       	mov    %rdi,0x18(%rsp)
  10eb72:	ba 01 00 00 00       	mov    $0x1,%edx
  10eb77:	e8 f4 88 ff ff       	callq  107470 <_ZN4core3fmt9Arguments9new_const17hd728abf84ff8d077E>
  10eb7c:	48 8b 7c 24 18       	mov    0x18(%rsp),%rdi
  10eb81:	48 8b 74 24 28       	mov    0x28(%rsp),%rsi
  10eb86:	e8 f5 67 ff ff       	callq  105380 <_ZN4core9panicking9panic_fmt17hec0a0bac075b5c3fE>
  10eb8b:	0f 0b                	ud2    
  10eb8d:	4c 8b 44 24 28       	mov    0x28(%rsp),%r8
  10eb92:	48 8b 4c 24 20       	mov    0x20(%rsp),%rcx
  10eb97:	48 8b 54 24 30       	mov    0x30(%rsp),%rdx
  10eb9c:	48 8b 74 24 38       	mov    0x38(%rsp),%rsi
  10eba1:	48 8d bc 24 80 00 00 	lea    0x80(%rsp),%rdi
  10eba8:	00 
  10eba9:	e8 32 01 00 00       	callq  10ece0 <_ZN4core5slice29_$LT$impl$u20$$u5b$T$u5d$$GT$8split_at17hd4724185ff0a4592E>
  10ebae:	48 8b bc 24 80 00 00 	mov    0x80(%rsp),%rdi
  10ebb5:	00 
  10ebb6:	48 8b b4 24 88 00 00 	mov    0x88(%rsp),%rsi
  10ebbd:	00 
  10ebbe:	48 89 bc 24 b8 00 00 	mov    %rdi,0xb8(%rsp)
  10ebc5:	00 
  10ebc6:	48 89 b4 24 c0 00 00 	mov    %rsi,0xc0(%rsp)
  10ebcd:	00 
  10ebce:	48 8b 8c 24 90 00 00 	mov    0x90(%rsp),%rcx
  10ebd5:	00 
  10ebd6:	48 89 4c 24 08       	mov    %rcx,0x8(%rsp)
  10ebdb:	48 8b 84 24 98 00 00 	mov    0x98(%rsp),%rax
  10ebe2:	00 
  10ebe3:	48 89 44 24 10       	mov    %rax,0x10(%rsp)
  10ebe8:	48 89 8c 24 c8 00 00 	mov    %rcx,0xc8(%rsp)
  10ebef:	00 
  10ebf0:	48 89 84 24 d0 00 00 	mov    %rax,0xd0(%rsp)
  10ebf7:	00 
  10ebf8:	e8 d3 fd ff ff       	callq  10e9d0 <_ZN4core5slice29_$LT$impl$u20$$u5b$T$u5d$$GT$19as_chunks_unchecked17hf1c434f143f09e5bE>
  10ebfd:	48 8b 74 24 08       	mov    0x8(%rsp),%rsi
  10ec02:	48 8b 4c 24 40       	mov    0x40(%rsp),%rcx
  10ec07:	49 89 c0             	mov    %rax,%r8
  10ec0a:	48 8b 44 24 48       	mov    0x48(%rsp),%rax
  10ec0f:	48 89 d7             	mov    %rdx,%rdi
  10ec12:	48 8b 54 24 10       	mov    0x10(%rsp),%rdx
  10ec17:	4c 89 84 24 d8 00 00 	mov    %r8,0xd8(%rsp)
  10ec1e:	00 
  10ec1f:	48 89 bc 24 e0 00 00 	mov    %rdi,0xe0(%rsp)
  10ec26:	00 
  10ec27:	4c 89 01             	mov    %r8,(%rcx)
  10ec2a:	48 89 79 08          	mov    %rdi,0x8(%rcx)
  10ec2e:	48 89 71 10          	mov    %rsi,0x10(%rcx)
  10ec32:	48 89 51 18          	mov    %rdx,0x18(%rcx)
  10ec36:	48 81 c4 e8 00 00 00 	add    $0xe8,%rsp
  10ec3d:	c3                   	retq   
  10ec3e:	48 8b 54 24 28       	mov    0x28(%rsp),%rdx
  10ec43:	48 8d 3d 36 2e ff ff 	lea    -0xd1ca(%rip),%rdi        # 101a80 <str.0>
  10ec4a:	be 21 00 00 00       	mov    $0x21,%esi
  10ec4f:	e8 dc 67 ff ff       	callq  105430 <_ZN4core9panicking5panic17h4e18ef80ec7677b0E>
  10ec54:	0f 0b                	ud2    
  10ec56:	cc                   	int3   
  10ec57:	cc                   	int3   
  10ec58:	cc                   	int3   
  10ec59:	cc                   	int3   
  10ec5a:	cc                   	int3   
  10ec5b:	cc                   	int3   
  10ec5c:	cc                   	int3   
  10ec5d:	cc                   	int3   
  10ec5e:	cc                   	int3   
  10ec5f:	cc                   	int3   

000000000010ec60 <_ZN4core5slice29_$LT$impl$u20$$u5b$T$u5d$$GT$8split_at17h5a47bcf178710765E>:
  10ec60:	48 83 ec 48          	sub    $0x48,%rsp
  10ec64:	4c 89 04 24          	mov    %r8,(%rsp)
  10ec68:	48 89 4c 24 08       	mov    %rcx,0x8(%rsp)
  10ec6d:	48 89 54 24 10       	mov    %rdx,0x10(%rsp)
  10ec72:	48 89 74 24 18       	mov    %rsi,0x18(%rsp)
  10ec77:	48 89 7c 24 20       	mov    %rdi,0x20(%rsp)
  10ec7c:	48 89 7c 24 28       	mov    %rdi,0x28(%rsp)
  10ec81:	48 89 74 24 30       	mov    %rsi,0x30(%rsp)
  10ec86:	48 89 54 24 38       	mov    %rdx,0x38(%rsp)
  10ec8b:	48 89 4c 24 40       	mov    %rcx,0x40(%rsp)
  10ec90:	48 39 d1             	cmp    %rdx,%rcx
  10ec93:	0f 96 c0             	setbe  %al
  10ec96:	34 ff                	xor    $0xff,%al
  10ec98:	a8 01                	test   $0x1,%al
  10ec9a:	75 23                	jne    10ecbf <_ZN4core5slice29_$LT$impl$u20$$u5b$T$u5d$$GT$8split_at17h5a47bcf178710765E+0x5f>
  10ec9c:	48 8b 4c 24 08       	mov    0x8(%rsp),%rcx
  10eca1:	48 8b 54 24 10       	mov    0x10(%rsp),%rdx
  10eca6:	48 8b 74 24 18       	mov    0x18(%rsp),%rsi
  10ecab:	48 8b 7c 24 20       	mov    0x20(%rsp),%rdi
  10ecb0:	e8 1b 02 00 00       	callq  10eed0 <_ZN4core5slice29_$LT$impl$u20$$u5b$T$u5d$$GT$18split_at_unchecked17h40272831935dfd48E>
  10ecb5:	48 8b 44 24 28       	mov    0x28(%rsp),%rax
  10ecba:	48 83 c4 48          	add    $0x48,%rsp
  10ecbe:	c3                   	retq   
  10ecbf:	48 8b 14 24          	mov    (%rsp),%rdx
  10ecc3:	48 8d 3d d7 2d ff ff 	lea    -0xd229(%rip),%rdi        # 101aa1 <str.0+0x21>
  10ecca:	be 23 00 00 00       	mov    $0x23,%esi
  10eccf:	e8 5c 67 ff ff       	callq  105430 <_ZN4core9panicking5panic17h4e18ef80ec7677b0E>
  10ecd4:	0f 0b                	ud2    
  10ecd6:	cc                   	int3   
  10ecd7:	cc                   	int3   
  10ecd8:	cc                   	int3   
  10ecd9:	cc                   	int3   
  10ecda:	cc                   	int3   
  10ecdb:	cc                   	int3   
  10ecdc:	cc                   	int3   
  10ecdd:	cc                   	int3   
  10ecde:	cc                   	int3   
  10ecdf:	cc                   	int3   

000000000010ece0 <_ZN4core5slice29_$LT$impl$u20$$u5b$T$u5d$$GT$8split_at17hd4724185ff0a4592E>:
  10ece0:	48 83 ec 48          	sub    $0x48,%rsp
  10ece4:	4c 89 04 24          	mov    %r8,(%rsp)
  10ece8:	48 89 4c 24 08       	mov    %rcx,0x8(%rsp)
  10eced:	48 89 54 24 10       	mov    %rdx,0x10(%rsp)
  10ecf2:	48 89 74 24 18       	mov    %rsi,0x18(%rsp)
  10ecf7:	48 89 7c 24 20       	mov    %rdi,0x20(%rsp)
  10ecfc:	48 89 7c 24 28       	mov    %rdi,0x28(%rsp)
  10ed01:	48 89 74 24 30       	mov    %rsi,0x30(%rsp)
  10ed06:	48 89 54 24 38       	mov    %rdx,0x38(%rsp)
  10ed0b:	48 89 4c 24 40       	mov    %rcx,0x40(%rsp)
  10ed10:	48 39 d1             	cmp    %rdx,%rcx
  10ed13:	0f 96 c0             	setbe  %al
  10ed16:	34 ff                	xor    $0xff,%al
  10ed18:	a8 01                	test   $0x1,%al
  10ed1a:	75 23                	jne    10ed3f <_ZN4core5slice29_$LT$impl$u20$$u5b$T$u5d$$GT$8split_at17hd4724185ff0a4592E+0x5f>
  10ed1c:	48 8b 4c 24 08       	mov    0x8(%rsp),%rcx
  10ed21:	48 8b 54 24 10       	mov    0x10(%rsp),%rdx
  10ed26:	48 8b 74 24 18       	mov    0x18(%rsp),%rsi
  10ed2b:	48 8b 7c 24 20       	mov    0x20(%rsp),%rdi
  10ed30:	e8 2b 00 00 00       	callq  10ed60 <_ZN4core5slice29_$LT$impl$u20$$u5b$T$u5d$$GT$18split_at_unchecked17h274b001577639e07E>
  10ed35:	48 8b 44 24 28       	mov    0x28(%rsp),%rax
  10ed3a:	48 83 c4 48          	add    $0x48,%rsp
  10ed3e:	c3                   	retq   
  10ed3f:	48 8b 14 24          	mov    (%rsp),%rdx
  10ed43:	48 8d 3d 57 2d ff ff 	lea    -0xd2a9(%rip),%rdi        # 101aa1 <str.0+0x21>
  10ed4a:	be 23 00 00 00       	mov    $0x23,%esi
  10ed4f:	e8 dc 66 ff ff       	callq  105430 <_ZN4core9panicking5panic17h4e18ef80ec7677b0E>
  10ed54:	0f 0b                	ud2    
  10ed56:	cc                   	int3   
  10ed57:	cc                   	int3   
  10ed58:	cc                   	int3   
  10ed59:	cc                   	int3   
  10ed5a:	cc                   	int3   
  10ed5b:	cc                   	int3   
  10ed5c:	cc                   	int3   
  10ed5d:	cc                   	int3   
  10ed5e:	cc                   	int3   
  10ed5f:	cc                   	int3   

000000000010ed60 <_ZN4core5slice29_$LT$impl$u20$$u5b$T$u5d$$GT$18split_at_unchecked17h274b001577639e07E>:
  10ed60:	48 81 ec b8 00 00 00 	sub    $0xb8,%rsp
  10ed67:	48 89 4c 24 28       	mov    %rcx,0x28(%rsp)
  10ed6c:	48 89 54 24 30       	mov    %rdx,0x30(%rsp)
  10ed71:	48 89 74 24 38       	mov    %rsi,0x38(%rsp)
  10ed76:	48 89 7c 24 40       	mov    %rdi,0x40(%rsp)
  10ed7b:	48 89 7c 24 48       	mov    %rdi,0x48(%rsp)
  10ed80:	48 89 74 24 60       	mov    %rsi,0x60(%rsp)
  10ed85:	48 89 54 24 68       	mov    %rdx,0x68(%rsp)
  10ed8a:	48 89 4c 24 70       	mov    %rcx,0x70(%rsp)
  10ed8f:	48 89 54 24 78       	mov    %rdx,0x78(%rsp)
  10ed94:	48 89 b4 24 98 00 00 	mov    %rsi,0x98(%rsp)
  10ed9b:	00 
  10ed9c:	48 89 94 24 a0 00 00 	mov    %rdx,0xa0(%rsp)
  10eda3:	00 
  10eda4:	48 89 b4 24 80 00 00 	mov    %rsi,0x80(%rsp)
  10edab:	00 
  10edac:	b0 01                	mov    $0x1,%al
  10edae:	a8 01                	test   $0x1,%al
  10edb0:	75 68                	jne    10ee1a <_ZN4core5slice29_$LT$impl$u20$$u5b$T$u5d$$GT$18split_at_unchecked17h274b001577639e07E+0xba>
  10edb2:	48 8b 74 24 28       	mov    0x28(%rsp),%rsi
  10edb7:	48 8b 7c 24 38       	mov    0x38(%rsp),%rdi
  10edbc:	e8 2f b6 ff ff       	callq  10a3f0 <_ZN4core5slice3raw14from_raw_parts17h4a8f6bebb707ad49E>
  10edc1:	48 8b 4c 24 28       	mov    0x28(%rsp),%rcx
  10edc6:	48 89 c6             	mov    %rax,%rsi
  10edc9:	48 8b 44 24 30       	mov    0x30(%rsp),%rax
  10edce:	48 89 74 24 08       	mov    %rsi,0x8(%rsp)
  10edd3:	48 89 d6             	mov    %rdx,%rsi
  10edd6:	48 8b 54 24 38       	mov    0x38(%rsp),%rdx
  10eddb:	48 89 74 24 10       	mov    %rsi,0x10(%rsp)
  10ede0:	48 89 94 24 88 00 00 	mov    %rdx,0x88(%rsp)
  10ede7:	00 
  10ede8:	48 89 8c 24 90 00 00 	mov    %rcx,0x90(%rsp)
  10edef:	00 
  10edf0:	48 89 ce             	mov    %rcx,%rsi
  10edf3:	48 c1 e6 03          	shl    $0x3,%rsi
  10edf7:	48 01 f2             	add    %rsi,%rdx
  10edfa:	48 89 54 24 18       	mov    %rdx,0x18(%rsp)
  10edff:	48 89 c2             	mov    %rax,%rdx
  10ee02:	48 29 ca             	sub    %rcx,%rdx
  10ee05:	48 89 54 24 20       	mov    %rdx,0x20(%rsp)
  10ee0a:	48 39 c8             	cmp    %rcx,%rax
  10ee0d:	0f 92 c0             	setb   %al
  10ee10:	a8 01                	test   $0x1,%al
  10ee12:	0f 85 93 00 00 00    	jne    10eeab <_ZN4core5slice29_$LT$impl$u20$$u5b$T$u5d$$GT$18split_at_unchecked17h274b001577639e07E+0x14b>
  10ee18:	eb 54                	jmp    10ee6e <_ZN4core5slice29_$LT$impl$u20$$u5b$T$u5d$$GT$18split_at_unchecked17h274b001577639e07E+0x10e>
  10ee1a:	48 8b 44 24 30       	mov    0x30(%rsp),%rax
  10ee1f:	48 8b 4c 24 28       	mov    0x28(%rsp),%rcx
  10ee24:	48 89 4c 24 50       	mov    %rcx,0x50(%rsp)
  10ee29:	48 89 44 24 58       	mov    %rax,0x58(%rsp)
  10ee2e:	48 8b 44 24 50       	mov    0x50(%rsp),%rax
  10ee33:	48 8b 4c 24 58       	mov    0x58(%rsp),%rcx
  10ee38:	48 89 84 24 a8 00 00 	mov    %rax,0xa8(%rsp)
  10ee3f:	00 
  10ee40:	48 89 8c 24 b0 00 00 	mov    %rcx,0xb0(%rsp)
  10ee47:	00 
  10ee48:	48 39 c8             	cmp    %rcx,%rax
  10ee4b:	0f 96 c0             	setbe  %al
  10ee4e:	34 ff                	xor    $0xff,%al
  10ee50:	a8 01                	test   $0x1,%al
  10ee52:	75 02                	jne    10ee56 <_ZN4core5slice29_$LT$impl$u20$$u5b$T$u5d$$GT$18split_at_unchecked17h274b001577639e07E+0xf6>
  10ee54:	eb 13                	jmp    10ee69 <_ZN4core5slice29_$LT$impl$u20$$u5b$T$u5d$$GT$18split_at_unchecked17h274b001577639e07E+0x109>
  10ee56:	48 8d 3d f7 2d ff ff 	lea    -0xd209(%rip),%rdi        # 101c54 <str.4+0xc4>
  10ee5d:	be 64 00 00 00       	mov    $0x64,%esi
  10ee62:	e8 19 66 ff ff       	callq  105480 <_ZN4core9panicking14panic_nounwind17hbf97f84b8fd59176E>
  10ee67:	0f 0b                	ud2    
  10ee69:	e9 44 ff ff ff       	jmpq   10edb2 <_ZN4core5slice29_$LT$impl$u20$$u5b$T$u5d$$GT$18split_at_unchecked17h274b001577639e07E+0x52>
  10ee6e:	48 8b 74 24 20       	mov    0x20(%rsp),%rsi
  10ee73:	48 8b 7c 24 18       	mov    0x18(%rsp),%rdi
  10ee78:	e8 73 b5 ff ff       	callq  10a3f0 <_ZN4core5slice3raw14from_raw_parts17h4a8f6bebb707ad49E>
  10ee7d:	4c 8b 44 24 08       	mov    0x8(%rsp),%r8
  10ee82:	48 8b 7c 24 10       	mov    0x10(%rsp),%rdi
  10ee87:	48 8b 4c 24 40       	mov    0x40(%rsp),%rcx
  10ee8c:	48 89 c6             	mov    %rax,%rsi
  10ee8f:	48 8b 44 24 48       	mov    0x48(%rsp),%rax
  10ee94:	4c 89 01             	mov    %r8,(%rcx)
  10ee97:	48 89 79 08          	mov    %rdi,0x8(%rcx)
  10ee9b:	48 89 71 10          	mov    %rsi,0x10(%rcx)
  10ee9f:	48 89 51 18          	mov    %rdx,0x18(%rcx)
  10eea3:	48 81 c4 b8 00 00 00 	add    $0xb8,%rsp
  10eeaa:	c3                   	retq   
  10eeab:	48 8d 3d 8e 2c ff ff 	lea    -0xd372(%rip),%rdi        # 101b40 <str.1>
  10eeb2:	48 8d 15 bf 35 00 00 	lea    0x35bf(%rip),%rdx        # 112478 <_ZN4core3fmt2rt12USIZE_MARKER17h1b31419084dfd5e3E+0xa80>
  10eeb9:	be 21 00 00 00       	mov    $0x21,%esi
  10eebe:	e8 6d 65 ff ff       	callq  105430 <_ZN4core9panicking5panic17h4e18ef80ec7677b0E>
  10eec3:	0f 0b                	ud2    
  10eec5:	cc                   	int3   
  10eec6:	cc                   	int3   
  10eec7:	cc                   	int3   
  10eec8:	cc                   	int3   
  10eec9:	cc                   	int3   
  10eeca:	cc                   	int3   
  10eecb:	cc                   	int3   
  10eecc:	cc                   	int3   
  10eecd:	cc                   	int3   
  10eece:	cc                   	int3   
  10eecf:	cc                   	int3   

000000000010eed0 <_ZN4core5slice29_$LT$impl$u20$$u5b$T$u5d$$GT$18split_at_unchecked17h40272831935dfd48E>:
  10eed0:	48 81 ec b8 00 00 00 	sub    $0xb8,%rsp
  10eed7:	48 89 4c 24 28       	mov    %rcx,0x28(%rsp)
  10eedc:	48 89 54 24 30       	mov    %rdx,0x30(%rsp)
  10eee1:	48 89 74 24 38       	mov    %rsi,0x38(%rsp)
  10eee6:	48 89 7c 24 40       	mov    %rdi,0x40(%rsp)
  10eeeb:	48 89 7c 24 48       	mov    %rdi,0x48(%rsp)
  10eef0:	48 89 74 24 60       	mov    %rsi,0x60(%rsp)
  10eef5:	48 89 54 24 68       	mov    %rdx,0x68(%rsp)
  10eefa:	48 89 4c 24 70       	mov    %rcx,0x70(%rsp)
  10eeff:	48 89 54 24 78       	mov    %rdx,0x78(%rsp)
  10ef04:	48 89 b4 24 98 00 00 	mov    %rsi,0x98(%rsp)
  10ef0b:	00 
  10ef0c:	48 89 94 24 a0 00 00 	mov    %rdx,0xa0(%rsp)
  10ef13:	00 
  10ef14:	48 89 b4 24 80 00 00 	mov    %rsi,0x80(%rsp)
  10ef1b:	00 
  10ef1c:	b0 01                	mov    $0x1,%al
  10ef1e:	a8 01                	test   $0x1,%al
  10ef20:	75 61                	jne    10ef83 <_ZN4core5slice29_$LT$impl$u20$$u5b$T$u5d$$GT$18split_at_unchecked17h40272831935dfd48E+0xb3>
  10ef22:	48 8b 74 24 28       	mov    0x28(%rsp),%rsi
  10ef27:	48 8b 7c 24 38       	mov    0x38(%rsp),%rdi
  10ef2c:	e8 6f b5 ff ff       	callq  10a4a0 <_ZN4core5slice3raw14from_raw_parts17h5a4c48e0db5e3da5E>
  10ef31:	48 8b 4c 24 28       	mov    0x28(%rsp),%rcx
  10ef36:	48 89 c6             	mov    %rax,%rsi
  10ef39:	48 8b 44 24 30       	mov    0x30(%rsp),%rax
  10ef3e:	48 89 74 24 08       	mov    %rsi,0x8(%rsp)
  10ef43:	48 89 d6             	mov    %rdx,%rsi
  10ef46:	48 8b 54 24 38       	mov    0x38(%rsp),%rdx
  10ef4b:	48 89 74 24 10       	mov    %rsi,0x10(%rsp)
  10ef50:	48 89 94 24 88 00 00 	mov    %rdx,0x88(%rsp)
  10ef57:	00 
  10ef58:	48 89 8c 24 90 00 00 	mov    %rcx,0x90(%rsp)
  10ef5f:	00 
  10ef60:	48 01 ca             	add    %rcx,%rdx
  10ef63:	48 89 54 24 18       	mov    %rdx,0x18(%rsp)
  10ef68:	48 89 c2             	mov    %rax,%rdx
  10ef6b:	48 29 ca             	sub    %rcx,%rdx
  10ef6e:	48 89 54 24 20       	mov    %rdx,0x20(%rsp)
  10ef73:	48 39 c8             	cmp    %rcx,%rax
  10ef76:	0f 92 c0             	setb   %al
  10ef79:	a8 01                	test   $0x1,%al
  10ef7b:	0f 85 93 00 00 00    	jne    10f014 <_ZN4core5slice29_$LT$impl$u20$$u5b$T$u5d$$GT$18split_at_unchecked17h40272831935dfd48E+0x144>
  10ef81:	eb 54                	jmp    10efd7 <_ZN4core5slice29_$LT$impl$u20$$u5b$T$u5d$$GT$18split_at_unchecked17h40272831935dfd48E+0x107>
  10ef83:	48 8b 44 24 30       	mov    0x30(%rsp),%rax
  10ef88:	48 8b 4c 24 28       	mov    0x28(%rsp),%rcx
  10ef8d:	48 89 4c 24 50       	mov    %rcx,0x50(%rsp)
  10ef92:	48 89 44 24 58       	mov    %rax,0x58(%rsp)
  10ef97:	48 8b 44 24 50       	mov    0x50(%rsp),%rax
  10ef9c:	48 8b 4c 24 58       	mov    0x58(%rsp),%rcx
  10efa1:	48 89 84 24 a8 00 00 	mov    %rax,0xa8(%rsp)
  10efa8:	00 
  10efa9:	48 89 8c 24 b0 00 00 	mov    %rcx,0xb0(%rsp)
  10efb0:	00 
  10efb1:	48 39 c8             	cmp    %rcx,%rax
  10efb4:	0f 96 c0             	setbe  %al
  10efb7:	34 ff                	xor    $0xff,%al
  10efb9:	a8 01                	test   $0x1,%al
  10efbb:	75 02                	jne    10efbf <_ZN4core5slice29_$LT$impl$u20$$u5b$T$u5d$$GT$18split_at_unchecked17h40272831935dfd48E+0xef>
  10efbd:	eb 13                	jmp    10efd2 <_ZN4core5slice29_$LT$impl$u20$$u5b$T$u5d$$GT$18split_at_unchecked17h40272831935dfd48E+0x102>
  10efbf:	48 8d 3d 8e 2c ff ff 	lea    -0xd372(%rip),%rdi        # 101c54 <str.4+0xc4>
  10efc6:	be 64 00 00 00       	mov    $0x64,%esi
  10efcb:	e8 b0 64 ff ff       	callq  105480 <_ZN4core9panicking14panic_nounwind17hbf97f84b8fd59176E>
  10efd0:	0f 0b                	ud2    
  10efd2:	e9 4b ff ff ff       	jmpq   10ef22 <_ZN4core5slice29_$LT$impl$u20$$u5b$T$u5d$$GT$18split_at_unchecked17h40272831935dfd48E+0x52>
  10efd7:	48 8b 74 24 20       	mov    0x20(%rsp),%rsi
  10efdc:	48 8b 7c 24 18       	mov    0x18(%rsp),%rdi
  10efe1:	e8 ba b4 ff ff       	callq  10a4a0 <_ZN4core5slice3raw14from_raw_parts17h5a4c48e0db5e3da5E>
  10efe6:	4c 8b 44 24 08       	mov    0x8(%rsp),%r8
  10efeb:	48 8b 7c 24 10       	mov    0x10(%rsp),%rdi
  10eff0:	48 8b 4c 24 40       	mov    0x40(%rsp),%rcx
  10eff5:	48 89 c6             	mov    %rax,%rsi
  10eff8:	48 8b 44 24 48       	mov    0x48(%rsp),%rax
  10effd:	4c 89 01             	mov    %r8,(%rcx)
  10f000:	48 89 79 08          	mov    %rdi,0x8(%rcx)
  10f004:	48 89 71 10          	mov    %rsi,0x10(%rcx)
  10f008:	48 89 51 18          	mov    %rdx,0x18(%rcx)
  10f00c:	48 81 c4 b8 00 00 00 	add    $0xb8,%rsp
  10f013:	c3                   	retq   
  10f014:	48 8d 3d 25 2b ff ff 	lea    -0xd4db(%rip),%rdi        # 101b40 <str.1>
  10f01b:	48 8d 15 56 34 00 00 	lea    0x3456(%rip),%rdx        # 112478 <_ZN4core3fmt2rt12USIZE_MARKER17h1b31419084dfd5e3E+0xa80>
  10f022:	be 21 00 00 00       	mov    $0x21,%esi
  10f027:	e8 04 64 ff ff       	callq  105430 <_ZN4core9panicking5panic17h4e18ef80ec7677b0E>
  10f02c:	0f 0b                	ud2    
  10f02e:	cc                   	int3   
  10f02f:	cc                   	int3   

000000000010f030 <_ZN4core5slice29_$LT$impl$u20$$u5b$T$u5d$$GT$9ends_with17h9d01a19f5e8ea48dE>:
  10f030:	48 81 ec 88 00 00 00 	sub    $0x88,%rsp
  10f037:	48 89 74 24 08       	mov    %rsi,0x8(%rsp)
  10f03c:	48 89 7c 24 10       	mov    %rdi,0x10(%rsp)
  10f041:	48 89 54 24 28       	mov    %rdx,0x28(%rsp)
  10f046:	48 89 4c 24 30       	mov    %rcx,0x30(%rsp)
  10f04b:	48 89 7c 24 68       	mov    %rdi,0x68(%rsp)
  10f050:	48 89 74 24 70       	mov    %rsi,0x70(%rsp)
  10f055:	48 8b 44 24 30       	mov    0x30(%rsp),%rax
  10f05a:	48 89 74 24 40       	mov    %rsi,0x40(%rsp)
  10f05f:	48 89 44 24 48       	mov    %rax,0x48(%rsp)
  10f064:	48 8b 44 24 40       	mov    0x40(%rsp),%rax
  10f069:	48 89 44 24 18       	mov    %rax,0x18(%rsp)
  10f06e:	48 89 44 24 78       	mov    %rax,0x78(%rsp)
  10f073:	48 8b 4c 24 48       	mov    0x48(%rsp),%rcx
  10f078:	48 89 4c 24 20       	mov    %rcx,0x20(%rsp)
  10f07d:	48 89 8c 24 80 00 00 	mov    %rcx,0x80(%rsp)
  10f084:	00 
  10f085:	48 39 c8             	cmp    %rcx,%rax
  10f088:	73 07                	jae    10f091 <_ZN4core5slice29_$LT$impl$u20$$u5b$T$u5d$$GT$9ends_with17h9d01a19f5e8ea48dE+0x61>
  10f08a:	c6 44 24 3f 00       	movb   $0x0,0x3f(%rsp)
  10f08f:	eb 20                	jmp    10f0b1 <_ZN4core5slice29_$LT$impl$u20$$u5b$T$u5d$$GT$9ends_with17h9d01a19f5e8ea48dE+0x81>
  10f091:	48 8b 44 24 18       	mov    0x18(%rsp),%rax
  10f096:	48 8b 4c 24 20       	mov    0x20(%rsp),%rcx
  10f09b:	48 89 c2             	mov    %rax,%rdx
  10f09e:	48 29 ca             	sub    %rcx,%rdx
  10f0a1:	48 89 14 24          	mov    %rdx,(%rsp)
  10f0a5:	48 39 c8             	cmp    %rcx,%rax
  10f0a8:	0f 92 c0             	setb   %al
  10f0ab:	a8 01                	test   $0x1,%al
  10f0ad:	75 58                	jne    10f107 <_ZN4core5slice29_$LT$impl$u20$$u5b$T$u5d$$GT$9ends_with17h9d01a19f5e8ea48dE+0xd7>
  10f0af:	eb 11                	jmp    10f0c2 <_ZN4core5slice29_$LT$impl$u20$$u5b$T$u5d$$GT$9ends_with17h9d01a19f5e8ea48dE+0x92>
  10f0b1:	8a 44 24 3f          	mov    0x3f(%rsp),%al
  10f0b5:	24 01                	and    $0x1,%al
  10f0b7:	0f b6 c0             	movzbl %al,%eax
  10f0ba:	48 81 c4 88 00 00 00 	add    $0x88,%rsp
  10f0c1:	c3                   	retq   
  10f0c2:	48 8b 74 24 08       	mov    0x8(%rsp),%rsi
  10f0c7:	48 8b 7c 24 10       	mov    0x10(%rsp),%rdi
  10f0cc:	48 8b 04 24          	mov    (%rsp),%rax
  10f0d0:	48 89 44 24 60       	mov    %rax,0x60(%rsp)
  10f0d5:	48 8b 54 24 60       	mov    0x60(%rsp),%rdx
  10f0da:	48 8d 0d c7 33 00 00 	lea    0x33c7(%rip),%rcx        # 1124a8 <_ZN4core3fmt2rt12USIZE_MARKER17h1b31419084dfd5e3E+0xab0>
  10f0e1:	e8 4a 9e ff ff       	callq  108f30 <_ZN4core5slice5index74_$LT$impl$u20$core..ops..index..Index$LT$I$GT$$u20$for$u20$$u5b$T$u5d$$GT$5index17h48d845ed7b7a358fE>
  10f0e6:	48 89 44 24 50       	mov    %rax,0x50(%rsp)
  10f0eb:	48 89 54 24 58       	mov    %rdx,0x58(%rsp)
  10f0f0:	48 8d 7c 24 28       	lea    0x28(%rsp),%rdi
  10f0f5:	48 8d 74 24 50       	lea    0x50(%rsp),%rsi
  10f0fa:	e8 21 54 ff ff       	callq  104520 <_ZN4core3cmp5impls69_$LT$impl$u20$core..cmp..PartialEq$LT$$RF$B$GT$$u20$for$u20$$RF$A$GT$2eq17h14efcd62636148a5E>
  10f0ff:	24 01                	and    $0x1,%al
  10f101:	88 44 24 3f          	mov    %al,0x3f(%rsp)
  10f105:	eb aa                	jmp    10f0b1 <_ZN4core5slice29_$LT$impl$u20$$u5b$T$u5d$$GT$9ends_with17h9d01a19f5e8ea48dE+0x81>
  10f107:	48 8d 3d 32 2a ff ff 	lea    -0xd5ce(%rip),%rdi        # 101b40 <str.1>
  10f10e:	48 8d 15 7b 33 00 00 	lea    0x337b(%rip),%rdx        # 112490 <_ZN4core3fmt2rt12USIZE_MARKER17h1b31419084dfd5e3E+0xa98>
  10f115:	be 21 00 00 00       	mov    $0x21,%esi
  10f11a:	e8 11 63 ff ff       	callq  105430 <_ZN4core9panicking5panic17h4e18ef80ec7677b0E>
  10f11f:	0f 0b                	ud2    
  10f121:	cc                   	int3   
  10f122:	cc                   	int3   
  10f123:	cc                   	int3   
  10f124:	cc                   	int3   
  10f125:	cc                   	int3   
  10f126:	cc                   	int3   
  10f127:	cc                   	int3   
  10f128:	cc                   	int3   
  10f129:	cc                   	int3   
  10f12a:	cc                   	int3   
  10f12b:	cc                   	int3   
  10f12c:	cc                   	int3   
  10f12d:	cc                   	int3   
  10f12e:	cc                   	int3   
  10f12f:	cc                   	int3   

000000000010f130 <_ZN4core5slice29_$LT$impl$u20$$u5b$T$u5d$$GT$16align_to_offsets17h02976dadbea035e7E>:
  10f130:	48 83 ec 68          	sub    $0x68,%rsp
  10f134:	48 89 74 24 08       	mov    %rsi,0x8(%rsp)
  10f139:	48 c7 44 24 20 01 00 	movq   $0x1,0x20(%rsp)
  10f140:	00 00 
  10f142:	48 89 7c 24 38       	mov    %rdi,0x38(%rsp)
  10f147:	48 89 74 24 40       	mov    %rsi,0x40(%rsp)
  10f14c:	b8 08 00 00 00       	mov    $0x8,%eax
  10f151:	48 c1 e8 00          	shr    $0x0,%rax
  10f155:	48 89 44 24 10       	mov    %rax,0x10(%rsp)
  10f15a:	48 89 44 24 48       	mov    %rax,0x48(%rsp)
  10f15f:	b9 01 00 00 00       	mov    $0x1,%ecx
  10f164:	48 c1 e9 00          	shr    $0x0,%rcx
  10f168:	48 89 4c 24 18       	mov    %rcx,0x18(%rsp)
  10f16d:	48 89 4c 24 50       	mov    %rcx,0x50(%rsp)
  10f172:	48 83 f8 00          	cmp    $0x0,%rax
  10f176:	0f 94 c0             	sete   %al
  10f179:	a8 01                	test   $0x1,%al
  10f17b:	75 24                	jne    10f1a1 <_ZN4core5slice29_$LT$impl$u20$$u5b$T$u5d$$GT$16align_to_offsets17h02976dadbea035e7E+0x71>
  10f17d:	48 8b 4c 24 18       	mov    0x18(%rsp),%rcx
  10f182:	48 8b 74 24 10       	mov    0x10(%rsp),%rsi
  10f187:	48 8b 44 24 08       	mov    0x8(%rsp),%rax
  10f18c:	31 d2                	xor    %edx,%edx
  10f18e:	48 f7 f6             	div    %rsi
  10f191:	48 f7 e1             	mul    %rcx
  10f194:	48 89 04 24          	mov    %rax,(%rsp)
  10f198:	0f 90 c0             	seto   %al
  10f19b:	a8 01                	test   $0x1,%al
  10f19d:	75 37                	jne    10f1d6 <_ZN4core5slice29_$LT$impl$u20$$u5b$T$u5d$$GT$16align_to_offsets17h02976dadbea035e7E+0xa6>
  10f19f:	eb 1a                	jmp    10f1bb <_ZN4core5slice29_$LT$impl$u20$$u5b$T$u5d$$GT$16align_to_offsets17h02976dadbea035e7E+0x8b>
  10f1a1:	48 8d 3d c8 29 ff ff 	lea    -0xd638(%rip),%rdi        # 101b70 <str.3>
  10f1a8:	48 8d 15 11 33 00 00 	lea    0x3311(%rip),%rdx        # 1124c0 <_ZN4core3fmt2rt12USIZE_MARKER17h1b31419084dfd5e3E+0xac8>
  10f1af:	be 19 00 00 00       	mov    $0x19,%esi
  10f1b4:	e8 77 62 ff ff       	callq  105430 <_ZN4core9panicking5panic17h4e18ef80ec7677b0E>
  10f1b9:	0f 0b                	ud2    
  10f1bb:	48 8b 44 24 10       	mov    0x10(%rsp),%rax
  10f1c0:	48 8b 0c 24          	mov    (%rsp),%rcx
  10f1c4:	48 89 4c 24 58       	mov    %rcx,0x58(%rsp)
  10f1c9:	48 83 f8 00          	cmp    $0x0,%rax
  10f1cd:	0f 94 c0             	sete   %al
  10f1d0:	a8 01                	test   $0x1,%al
  10f1d2:	75 4d                	jne    10f221 <_ZN4core5slice29_$LT$impl$u20$$u5b$T$u5d$$GT$16align_to_offsets17h02976dadbea035e7E+0xf1>
  10f1d4:	eb 1a                	jmp    10f1f0 <_ZN4core5slice29_$LT$impl$u20$$u5b$T$u5d$$GT$16align_to_offsets17h02976dadbea035e7E+0xc0>
  10f1d6:	48 8d 3d a3 28 ff ff 	lea    -0xd75d(%rip),%rdi        # 101a80 <str.0>
  10f1dd:	48 8d 15 dc 32 00 00 	lea    0x32dc(%rip),%rdx        # 1124c0 <_ZN4core3fmt2rt12USIZE_MARKER17h1b31419084dfd5e3E+0xac8>
  10f1e4:	be 21 00 00 00       	mov    $0x21,%esi
  10f1e9:	e8 42 62 ff ff       	callq  105430 <_ZN4core9panicking5panic17h4e18ef80ec7677b0E>
  10f1ee:	0f 0b                	ud2    
  10f1f0:	48 8b 4c 24 10       	mov    0x10(%rsp),%rcx
  10f1f5:	48 8b 44 24 08       	mov    0x8(%rsp),%rax
  10f1fa:	31 d2                	xor    %edx,%edx
  10f1fc:	48 f7 f1             	div    %rcx
  10f1ff:	48 8b 04 24          	mov    (%rsp),%rax
  10f203:	48 89 54 24 60       	mov    %rdx,0x60(%rsp)
  10f208:	48 89 44 24 28       	mov    %rax,0x28(%rsp)
  10f20d:	48 89 54 24 30       	mov    %rdx,0x30(%rsp)
  10f212:	48 8b 44 24 28       	mov    0x28(%rsp),%rax
  10f217:	48 8b 54 24 30       	mov    0x30(%rsp),%rdx
  10f21c:	48 83 c4 68          	add    $0x68,%rsp
  10f220:	c3                   	retq   
  10f221:	48 8d 3d 68 29 ff ff 	lea    -0xd698(%rip),%rdi        # 101b90 <str.4>
  10f228:	48 8d 15 a9 32 00 00 	lea    0x32a9(%rip),%rdx        # 1124d8 <_ZN4core3fmt2rt12USIZE_MARKER17h1b31419084dfd5e3E+0xae0>
  10f22f:	be 39 00 00 00       	mov    $0x39,%esi
  10f234:	e8 f7 61 ff ff       	callq  105430 <_ZN4core9panicking5panic17h4e18ef80ec7677b0E>
  10f239:	0f 0b                	ud2    
  10f23b:	cc                   	int3   
  10f23c:	cc                   	int3   
  10f23d:	cc                   	int3   
  10f23e:	cc                   	int3   
  10f23f:	cc                   	int3   

000000000010f240 <_ZN4core5slice29_$LT$impl$u20$$u5b$T$u5d$$GT$8align_to17h355a844c47b86429E>:
  10f240:	48 81 ec 28 01 00 00 	sub    $0x128,%rsp
  10f247:	48 89 54 24 50       	mov    %rdx,0x50(%rsp)
  10f24c:	48 89 74 24 58       	mov    %rsi,0x58(%rsp)
  10f251:	48 89 7c 24 60       	mov    %rdi,0x60(%rsp)
  10f256:	48 89 7c 24 68       	mov    %rdi,0x68(%rsp)
  10f25b:	48 89 b4 24 98 00 00 	mov    %rsi,0x98(%rsp)
  10f262:	00 
  10f263:	48 89 94 24 a0 00 00 	mov    %rdx,0xa0(%rsp)
  10f26a:	00 
  10f26b:	31 c0                	xor    %eax,%eax
  10f26d:	a8 01                	test   $0x1,%al
  10f26f:	75 07                	jne    10f278 <_ZN4core5slice29_$LT$impl$u20$$u5b$T$u5d$$GT$8align_to17h355a844c47b86429E+0x38>
  10f271:	c6 44 24 77 00       	movb   $0x0,0x77(%rsp)
  10f276:	eb 05                	jmp    10f27d <_ZN4core5slice29_$LT$impl$u20$$u5b$T$u5d$$GT$8align_to17h355a844c47b86429E+0x3d>
  10f278:	c6 44 24 77 01       	movb   $0x1,0x77(%rsp)
  10f27d:	f6 44 24 77 01       	testb  $0x1,0x77(%rsp)
  10f282:	75 49                	jne    10f2cd <_ZN4core5slice29_$LT$impl$u20$$u5b$T$u5d$$GT$8align_to17h355a844c47b86429E+0x8d>
  10f284:	48 8b 44 24 50       	mov    0x50(%rsp),%rax
  10f289:	48 8b 7c 24 58       	mov    0x58(%rsp),%rdi
  10f28e:	48 89 bc 24 18 01 00 	mov    %rdi,0x118(%rsp)
  10f295:	00 
  10f296:	48 89 84 24 20 01 00 	mov    %rax,0x120(%rsp)
  10f29d:	00 
  10f29e:	48 89 bc 24 a8 00 00 	mov    %rdi,0xa8(%rsp)
  10f2a5:	00 
  10f2a6:	be 08 00 00 00       	mov    $0x8,%esi
  10f2ab:	e8 20 ee ff ff       	callq  10e0d0 <_ZN4core3ptr12align_offset17h9945c110ff519511E>
  10f2b0:	48 8b 4c 24 50       	mov    0x50(%rsp),%rcx
  10f2b5:	48 89 44 24 48       	mov    %rax,0x48(%rsp)
  10f2ba:	48 89 84 24 b0 00 00 	mov    %rax,0xb0(%rsp)
  10f2c1:	00 
  10f2c2:	48 39 c8             	cmp    %rcx,%rax
  10f2c5:	0f 87 3a 01 00 00    	ja     10f405 <_ZN4core5slice29_$LT$impl$u20$$u5b$T$u5d$$GT$8align_to17h355a844c47b86429E+0x1c5>
  10f2cb:	eb 41                	jmp    10f30e <_ZN4core5slice29_$LT$impl$u20$$u5b$T$u5d$$GT$8align_to17h355a844c47b86429E+0xce>
  10f2cd:	48 8b 44 24 60       	mov    0x60(%rsp),%rax
  10f2d2:	48 8b 4c 24 50       	mov    0x50(%rsp),%rcx
  10f2d7:	48 8b 54 24 58       	mov    0x58(%rsp),%rdx
  10f2dc:	48 89 10             	mov    %rdx,(%rax)
  10f2df:	48 89 48 08          	mov    %rcx,0x8(%rax)
  10f2e3:	48 8d 0d e6 28 ff ff 	lea    -0xd71a(%rip),%rcx        # 101bd0 <str.4+0x40>
  10f2ea:	48 89 48 10          	mov    %rcx,0x10(%rax)
  10f2ee:	48 c7 40 18 00 00 00 	movq   $0x0,0x18(%rax)
  10f2f5:	00 
  10f2f6:	48 8d 0d d3 28 ff ff 	lea    -0xd72d(%rip),%rcx        # 101bd0 <str.4+0x40>
  10f2fd:	48 89 48 20          	mov    %rcx,0x20(%rax)
  10f301:	48 c7 40 28 00 00 00 	movq   $0x0,0x28(%rax)
  10f308:	00 
  10f309:	e9 ab 01 00 00       	jmpq   10f4b9 <_ZN4core5slice29_$LT$impl$u20$$u5b$T$u5d$$GT$8align_to17h355a844c47b86429E+0x279>
  10f30e:	48 8b 4c 24 48       	mov    0x48(%rsp),%rcx
  10f313:	48 8b 54 24 50       	mov    0x50(%rsp),%rdx
  10f318:	48 8b 74 24 58       	mov    0x58(%rsp),%rsi
  10f31d:	48 8d 7c 24 78       	lea    0x78(%rsp),%rdi
  10f322:	4c 8d 05 c7 31 00 00 	lea    0x31c7(%rip),%r8        # 1124f0 <_ZN4core3fmt2rt12USIZE_MARKER17h1b31419084dfd5e3E+0xaf8>
  10f329:	e8 32 f9 ff ff       	callq  10ec60 <_ZN4core5slice29_$LT$impl$u20$$u5b$T$u5d$$GT$8split_at17h5a47bcf178710765E>
  10f32e:	48 8b 4c 24 78       	mov    0x78(%rsp),%rcx
  10f333:	48 89 4c 24 08       	mov    %rcx,0x8(%rsp)
  10f338:	48 8b 84 24 80 00 00 	mov    0x80(%rsp),%rax
  10f33f:	00 
  10f340:	48 89 44 24 10       	mov    %rax,0x10(%rsp)
  10f345:	48 89 8c 24 b8 00 00 	mov    %rcx,0xb8(%rsp)
  10f34c:	00 
  10f34d:	48 89 84 24 c0 00 00 	mov    %rax,0xc0(%rsp)
  10f354:	00 
  10f355:	48 8b bc 24 88 00 00 	mov    0x88(%rsp),%rdi
  10f35c:	00 
  10f35d:	48 89 7c 24 18       	mov    %rdi,0x18(%rsp)
  10f362:	48 8b b4 24 90 00 00 	mov    0x90(%rsp),%rsi
  10f369:	00 
  10f36a:	48 89 74 24 20       	mov    %rsi,0x20(%rsp)
  10f36f:	48 89 bc 24 c8 00 00 	mov    %rdi,0xc8(%rsp)
  10f376:	00 
  10f377:	48 89 b4 24 d0 00 00 	mov    %rsi,0xd0(%rsp)
  10f37e:	00 
  10f37f:	e8 ac fd ff ff       	callq  10f130 <_ZN4core5slice29_$LT$impl$u20$$u5b$T$u5d$$GT$16align_to_offsets17h02976dadbea035e7E>
  10f384:	48 8b 7c 24 18       	mov    0x18(%rsp),%rdi
  10f389:	48 89 c6             	mov    %rax,%rsi
  10f38c:	48 8b 44 24 20       	mov    0x20(%rsp),%rax
  10f391:	48 89 54 24 30       	mov    %rdx,0x30(%rsp)
  10f396:	48 89 b4 24 d8 00 00 	mov    %rsi,0xd8(%rsp)
  10f39d:	00 
  10f39e:	48 89 94 24 e0 00 00 	mov    %rdx,0xe0(%rsp)
  10f3a5:	00 
  10f3a6:	48 89 bc 24 08 01 00 	mov    %rdi,0x108(%rsp)
  10f3ad:	00 
  10f3ae:	48 89 84 24 10 01 00 	mov    %rax,0x110(%rsp)
  10f3b5:	00 
  10f3b6:	e8 35 b0 ff ff       	callq  10a3f0 <_ZN4core5slice3raw14from_raw_parts17h4a8f6bebb707ad49E>
  10f3bb:	48 8b 4c 24 18       	mov    0x18(%rsp),%rcx
  10f3c0:	48 89 c6             	mov    %rax,%rsi
  10f3c3:	48 8b 44 24 20       	mov    0x20(%rsp),%rax
  10f3c8:	48 89 74 24 28       	mov    %rsi,0x28(%rsp)
  10f3cd:	48 89 d6             	mov    %rdx,%rsi
  10f3d0:	48 8b 54 24 30       	mov    0x30(%rsp),%rdx
  10f3d5:	48 89 74 24 38       	mov    %rsi,0x38(%rsp)
  10f3da:	48 89 8c 24 f8 00 00 	mov    %rcx,0xf8(%rsp)
  10f3e1:	00 
  10f3e2:	48 89 84 24 00 01 00 	mov    %rax,0x100(%rsp)
  10f3e9:	00 
  10f3ea:	48 89 c1             	mov    %rax,%rcx
  10f3ed:	48 29 d1             	sub    %rdx,%rcx
  10f3f0:	48 89 4c 24 40       	mov    %rcx,0x40(%rsp)
  10f3f5:	48 39 d0             	cmp    %rdx,%rax
  10f3f8:	0f 92 c0             	setb   %al
  10f3fb:	a8 01                	test   $0x1,%al
  10f3fd:	0f 85 9c 00 00 00    	jne    10f49f <_ZN4core5slice29_$LT$impl$u20$$u5b$T$u5d$$GT$8align_to17h355a844c47b86429E+0x25f>
  10f403:	eb 3e                	jmp    10f443 <_ZN4core5slice29_$LT$impl$u20$$u5b$T$u5d$$GT$8align_to17h355a844c47b86429E+0x203>
  10f405:	48 8b 44 24 60       	mov    0x60(%rsp),%rax
  10f40a:	48 8b 4c 24 50       	mov    0x50(%rsp),%rcx
  10f40f:	48 8b 54 24 58       	mov    0x58(%rsp),%rdx
  10f414:	48 89 10             	mov    %rdx,(%rax)
  10f417:	48 89 48 08          	mov    %rcx,0x8(%rax)
  10f41b:	48 8d 0d ae 27 ff ff 	lea    -0xd852(%rip),%rcx        # 101bd0 <str.4+0x40>
  10f422:	48 89 48 10          	mov    %rcx,0x10(%rax)
  10f426:	48 c7 40 18 00 00 00 	movq   $0x0,0x18(%rax)
  10f42d:	00 
  10f42e:	48 8d 0d 9b 27 ff ff 	lea    -0xd865(%rip),%rcx        # 101bd0 <str.4+0x40>
  10f435:	48 89 48 20          	mov    %rcx,0x20(%rax)
  10f439:	48 c7 40 28 00 00 00 	movq   $0x0,0x28(%rax)
  10f440:	00 
  10f441:	eb 76                	jmp    10f4b9 <_ZN4core5slice29_$LT$impl$u20$$u5b$T$u5d$$GT$8align_to17h355a844c47b86429E+0x279>
  10f443:	48 8b 74 24 30       	mov    0x30(%rsp),%rsi
  10f448:	48 8b 44 24 40       	mov    0x40(%rsp),%rax
  10f44d:	48 8b 7c 24 18       	mov    0x18(%rsp),%rdi
  10f452:	48 89 bc 24 e8 00 00 	mov    %rdi,0xe8(%rsp)
  10f459:	00 
  10f45a:	48 89 84 24 f0 00 00 	mov    %rax,0xf0(%rsp)
  10f461:	00 
  10f462:	48 01 c7             	add    %rax,%rdi
  10f465:	e8 36 b0 ff ff       	callq  10a4a0 <_ZN4core5slice3raw14from_raw_parts17h5a4c48e0db5e3da5E>
  10f46a:	4c 8b 4c 24 08       	mov    0x8(%rsp),%r9
  10f46f:	4c 8b 44 24 10       	mov    0x10(%rsp),%r8
  10f474:	48 8b 7c 24 28       	mov    0x28(%rsp),%rdi
  10f479:	48 8b 74 24 38       	mov    0x38(%rsp),%rsi
  10f47e:	48 89 c1             	mov    %rax,%rcx
  10f481:	48 8b 44 24 60       	mov    0x60(%rsp),%rax
  10f486:	4c 89 08             	mov    %r9,(%rax)
  10f489:	4c 89 40 08          	mov    %r8,0x8(%rax)
  10f48d:	48 89 78 10          	mov    %rdi,0x10(%rax)
  10f491:	48 89 70 18          	mov    %rsi,0x18(%rax)
  10f495:	48 89 48 20          	mov    %rcx,0x20(%rax)
  10f499:	48 89 50 28          	mov    %rdx,0x28(%rax)
  10f49d:	eb 1a                	jmp    10f4b9 <_ZN4core5slice29_$LT$impl$u20$$u5b$T$u5d$$GT$8align_to17h355a844c47b86429E+0x279>
  10f49f:	48 8d 3d 9a 26 ff ff 	lea    -0xd966(%rip),%rdi        # 101b40 <str.1>
  10f4a6:	48 8d 15 5b 30 00 00 	lea    0x305b(%rip),%rdx        # 112508 <_ZN4core3fmt2rt12USIZE_MARKER17h1b31419084dfd5e3E+0xb10>
  10f4ad:	be 21 00 00 00       	mov    $0x21,%esi
  10f4b2:	e8 79 5f ff ff       	callq  105430 <_ZN4core9panicking5panic17h4e18ef80ec7677b0E>
  10f4b7:	0f 0b                	ud2    
  10f4b9:	48 8b 44 24 68       	mov    0x68(%rsp),%rax
  10f4be:	48 81 c4 28 01 00 00 	add    $0x128,%rsp
  10f4c5:	c3                   	retq   
  10f4c6:	cc                   	int3   
  10f4c7:	cc                   	int3   
  10f4c8:	cc                   	int3   
  10f4c9:	cc                   	int3   
  10f4ca:	cc                   	int3   
  10f4cb:	cc                   	int3   
  10f4cc:	cc                   	int3   
  10f4cd:	cc                   	int3   
  10f4ce:	cc                   	int3   
  10f4cf:	cc                   	int3   

000000000010f4d0 <_ZN4core3ptr9const_ptr33_$LT$impl$u20$$BP$const$u20$T$GT$14read_unaligned17h0c62c5ae179b6d1bE>:
  10f4d0:	50                   	push   %rax
  10f4d1:	48 89 3c 24          	mov    %rdi,(%rsp)
  10f4d5:	e8 e6 01 00 00       	callq  10f6c0 <_ZN4core3ptr14read_unaligned17h205a069ca8b8073cE>
  10f4da:	59                   	pop    %rcx
  10f4db:	c3                   	retq   
  10f4dc:	cc                   	int3   
  10f4dd:	cc                   	int3   
  10f4de:	cc                   	int3   
  10f4df:	cc                   	int3   

000000000010f4e0 <_ZN4core3ptr9const_ptr33_$LT$impl$u20$$BP$const$u20$T$GT$14read_unaligned17h1d532f80611f18a7E>:
  10f4e0:	50                   	push   %rax
  10f4e1:	48 89 3c 24          	mov    %rdi,(%rsp)
  10f4e5:	e8 56 05 00 00       	callq  10fa40 <_ZN4core3ptr14read_unaligned17h4917b5537658b65cE>
  10f4ea:	59                   	pop    %rcx
  10f4eb:	c3                   	retq   
  10f4ec:	cc                   	int3   
  10f4ed:	cc                   	int3   
  10f4ee:	cc                   	int3   
  10f4ef:	cc                   	int3   

000000000010f4f0 <_ZN4core3ptr9const_ptr33_$LT$impl$u20$$BP$const$u20$T$GT$14read_unaligned17h3c0def5d63ef8187E>:
  10f4f0:	50                   	push   %rax
  10f4f1:	48 89 3c 24          	mov    %rdi,(%rsp)
  10f4f5:	e8 d6 02 00 00       	callq  10f7d0 <_ZN4core3ptr14read_unaligned17h26f3130ce2c2fc90E>
  10f4fa:	59                   	pop    %rcx
  10f4fb:	c3                   	retq   
  10f4fc:	cc                   	int3   
  10f4fd:	cc                   	int3   
  10f4fe:	cc                   	int3   
  10f4ff:	cc                   	int3   

000000000010f500 <_ZN4core3ptr9const_ptr33_$LT$impl$u20$$BP$const$u20$T$GT$14read_unaligned17hc2aa437faee55521E>:
  10f500:	50                   	push   %rax
  10f501:	48 89 3c 24          	mov    %rdi,(%rsp)
  10f505:	e8 e6 03 00 00       	callq  10f8f0 <_ZN4core3ptr14read_unaligned17h2bb03c3577b2f164E>
  10f50a:	59                   	pop    %rcx
  10f50b:	c3                   	retq   
  10f50c:	cc                   	int3   
  10f50d:	cc                   	int3   
  10f50e:	cc                   	int3   
  10f50f:	cc                   	int3   

000000000010f510 <_ZN4core3ptr9const_ptr33_$LT$impl$u20$$BP$const$u20$T$GT$4read17h7974361b1eeccb5eE>:
  10f510:	50                   	push   %rax
  10f511:	48 89 3c 24          	mov    %rdi,(%rsp)
  10f515:	e8 46 06 00 00       	callq  10fb60 <_ZN4core3ptr4read17h3eca6537c24110e7E>
  10f51a:	59                   	pop    %rcx
  10f51b:	c3                   	retq   
  10f51c:	cc                   	int3   
  10f51d:	cc                   	int3   
  10f51e:	cc                   	int3   
  10f51f:	cc                   	int3   

000000000010f520 <_ZN4core3ops8function6FnOnce9call_once17h3493d5f247011bf2E>:
  10f520:	48 83 ec 28          	sub    $0x28,%rsp
  10f524:	48 89 7c 24 08       	mov    %rdi,0x8(%rsp)
  10f529:	48 89 74 24 10       	mov    %rsi,0x10(%rsp)
  10f52e:	48 89 54 24 18       	mov    %rdx,0x18(%rsp)
  10f533:	48 89 4c 24 20       	mov    %rcx,0x20(%rsp)
  10f538:	48 8b 74 24 10       	mov    0x10(%rsp),%rsi
  10f53d:	48 8b 54 24 18       	mov    0x18(%rsp),%rdx
  10f542:	48 8b 4c 24 20       	mov    0x20(%rsp),%rcx
  10f547:	48 8d 7c 24 08       	lea    0x8(%rsp),%rdi
  10f54c:	e8 df 0b 00 00       	callq  110130 <_ZN17compiler_builtins3mem5impls13compare_bytes28_$u7b$$u7b$closure$u7d$$u7d$17hff30f79813d4ddd3E>
  10f551:	48 83 c4 28          	add    $0x28,%rsp
  10f555:	c3                   	retq   
  10f556:	cc                   	int3   
  10f557:	cc                   	int3   
  10f558:	cc                   	int3   
  10f559:	cc                   	int3   
  10f55a:	cc                   	int3   
  10f55b:	cc                   	int3   
  10f55c:	cc                   	int3   
  10f55d:	cc                   	int3   
  10f55e:	cc                   	int3   
  10f55f:	cc                   	int3   

000000000010f560 <_ZN4core3ops8function6FnOnce9call_once17hd1a9f61902321898E>:
  10f560:	48 83 ec 28          	sub    $0x28,%rsp
  10f564:	48 89 7c 24 08       	mov    %rdi,0x8(%rsp)
  10f569:	48 89 74 24 10       	mov    %rsi,0x10(%rsp)
  10f56e:	48 89 54 24 18       	mov    %rdx,0x18(%rsp)
  10f573:	48 89 4c 24 20       	mov    %rcx,0x20(%rsp)
  10f578:	48 8b 74 24 10       	mov    0x10(%rsp),%rsi
  10f57d:	48 8b 54 24 18       	mov    0x18(%rsp),%rdx
  10f582:	48 8b 4c 24 20       	mov    0x20(%rsp),%rcx
  10f587:	48 8d 7c 24 08       	lea    0x8(%rsp),%rdi
  10f58c:	e8 4f 0d 00 00       	callq  1102e0 <_ZN17compiler_builtins3mem5impls13compare_bytes28_$u7b$$u7b$closure$u7d$$u7d$17h37d3e999feef8174E>
  10f591:	48 83 c4 28          	add    $0x28,%rsp
  10f595:	c3                   	retq   
  10f596:	cc                   	int3   
  10f597:	cc                   	int3   
  10f598:	cc                   	int3   
  10f599:	cc                   	int3   
  10f59a:	cc                   	int3   
  10f59b:	cc                   	int3   
  10f59c:	cc                   	int3   
  10f59d:	cc                   	int3   
  10f59e:	cc                   	int3   
  10f59f:	cc                   	int3   

000000000010f5a0 <_ZN4core3ops8function6FnOnce9call_once17hea419e5c6413f39eE>:
  10f5a0:	48 83 ec 28          	sub    $0x28,%rsp
  10f5a4:	48 89 7c 24 10       	mov    %rdi,0x10(%rsp)
  10f5a9:	48 89 74 24 18       	mov    %rsi,0x18(%rsp)
  10f5ae:	48 89 54 24 20       	mov    %rdx,0x20(%rsp)
  10f5b3:	48 8b 74 24 10       	mov    0x10(%rsp),%rsi
  10f5b8:	48 8b 54 24 18       	mov    0x18(%rsp),%rdx
  10f5bd:	48 8b 4c 24 20       	mov    0x20(%rsp),%rcx
  10f5c2:	48 8d 7c 24 08       	lea    0x8(%rsp),%rdi
  10f5c7:	e8 84 08 00 00       	callq  10fe50 <_ZN17compiler_builtins3mem5impls13compare_bytes28_$u7b$$u7b$closure$u7d$$u7d$17he99e7e55ac5720fcE>
  10f5cc:	48 83 c4 28          	add    $0x28,%rsp
  10f5d0:	c3                   	retq   
  10f5d1:	cc                   	int3   
  10f5d2:	cc                   	int3   
  10f5d3:	cc                   	int3   
  10f5d4:	cc                   	int3   
  10f5d5:	cc                   	int3   
  10f5d6:	cc                   	int3   
  10f5d7:	cc                   	int3   
  10f5d8:	cc                   	int3   
  10f5d9:	cc                   	int3   
  10f5da:	cc                   	int3   
  10f5db:	cc                   	int3   
  10f5dc:	cc                   	int3   
  10f5dd:	cc                   	int3   
  10f5de:	cc                   	int3   
  10f5df:	cc                   	int3   

000000000010f5e0 <_ZN4core3ops8function6FnOnce9call_once17hf7131ef1f5991c09E>:
  10f5e0:	48 83 ec 28          	sub    $0x28,%rsp
  10f5e4:	48 89 7c 24 08       	mov    %rdi,0x8(%rsp)
  10f5e9:	48 89 74 24 10       	mov    %rsi,0x10(%rsp)
  10f5ee:	48 89 54 24 18       	mov    %rdx,0x18(%rsp)
  10f5f3:	48 89 4c 24 20       	mov    %rcx,0x20(%rsp)
  10f5f8:	48 8b 74 24 10       	mov    0x10(%rsp),%rsi
  10f5fd:	48 8b 54 24 18       	mov    0x18(%rsp),%rdx
  10f602:	48 8b 4c 24 20       	mov    0x20(%rsp),%rcx
  10f607:	48 8d 7c 24 08       	lea    0x8(%rsp),%rdi
  10f60c:	e8 8f 09 00 00       	callq  10ffa0 <_ZN17compiler_builtins3mem5impls13compare_bytes28_$u7b$$u7b$closure$u7d$$u7d$17h74a39236bf141c97E>
  10f611:	48 83 c4 28          	add    $0x28,%rsp
  10f615:	c3                   	retq   
  10f616:	cc                   	int3   
  10f617:	cc                   	int3   
  10f618:	cc                   	int3   
  10f619:	cc                   	int3   
  10f61a:	cc                   	int3   
  10f61b:	cc                   	int3   
  10f61c:	cc                   	int3   
  10f61d:	cc                   	int3   
  10f61e:	cc                   	int3   
  10f61f:	cc                   	int3   

000000000010f620 <_ZN4core3cmp5impls54_$LT$impl$u20$core..cmp..PartialEq$u20$for$u20$u16$GT$2ne17h24a0e5eeb8920853E>:
  10f620:	48 83 ec 10          	sub    $0x10,%rsp
  10f624:	48 89 3c 24          	mov    %rdi,(%rsp)
  10f628:	48 89 74 24 08       	mov    %rsi,0x8(%rsp)
  10f62d:	66 8b 07             	mov    (%rdi),%ax
  10f630:	66 3b 06             	cmp    (%rsi),%ax
  10f633:	0f 95 c0             	setne  %al
  10f636:	24 01                	and    $0x1,%al
  10f638:	0f b6 c0             	movzbl %al,%eax
  10f63b:	48 83 c4 10          	add    $0x10,%rsp
  10f63f:	c3                   	retq   

000000000010f640 <_ZN4core3cmp5impls54_$LT$impl$u20$core..cmp..PartialEq$u20$for$u20$u32$GT$2ne17hfdd2cbb58cb81344E>:
  10f640:	48 83 ec 10          	sub    $0x10,%rsp
  10f644:	48 89 3c 24          	mov    %rdi,(%rsp)
  10f648:	48 89 74 24 08       	mov    %rsi,0x8(%rsp)
  10f64d:	8b 07                	mov    (%rdi),%eax
  10f64f:	3b 06                	cmp    (%rsi),%eax
  10f651:	0f 95 c0             	setne  %al
  10f654:	24 01                	and    $0x1,%al
  10f656:	0f b6 c0             	movzbl %al,%eax
  10f659:	48 83 c4 10          	add    $0x10,%rsp
  10f65d:	c3                   	retq   
  10f65e:	cc                   	int3   
  10f65f:	cc                   	int3   

000000000010f660 <_ZN4core3cmp5impls54_$LT$impl$u20$core..cmp..PartialEq$u20$for$u20$u64$GT$2ne17h74ccb9667f3016c3E>:
  10f660:	48 83 ec 10          	sub    $0x10,%rsp
  10f664:	48 89 3c 24          	mov    %rdi,(%rsp)
  10f668:	48 89 74 24 08       	mov    %rsi,0x8(%rsp)
  10f66d:	48 8b 07             	mov    (%rdi),%rax
  10f670:	48 3b 06             	cmp    (%rsi),%rax
  10f673:	0f 95 c0             	setne  %al
  10f676:	24 01                	and    $0x1,%al
  10f678:	0f b6 c0             	movzbl %al,%eax
  10f67b:	48 83 c4 10          	add    $0x10,%rsp
  10f67f:	c3                   	retq   

000000000010f680 <_ZN4core3cmp5impls55_$LT$impl$u20$core..cmp..PartialEq$u20$for$u20$u128$GT$2ne17hb9f18bfa0441c4a9E>:
  10f680:	48 83 ec 10          	sub    $0x10,%rsp
  10f684:	48 89 3c 24          	mov    %rdi,(%rsp)
  10f688:	48 89 74 24 08       	mov    %rsi,0x8(%rsp)
  10f68d:	48 8b 07             	mov    (%rdi),%rax
  10f690:	48 8b 4f 08          	mov    0x8(%rdi),%rcx
  10f694:	48 8b 16             	mov    (%rsi),%rdx
  10f697:	48 8b 76 08          	mov    0x8(%rsi),%rsi
  10f69b:	48 31 f1             	xor    %rsi,%rcx
  10f69e:	48 31 d0             	xor    %rdx,%rax
  10f6a1:	48 09 c8             	or     %rcx,%rax
  10f6a4:	0f 95 c0             	setne  %al
  10f6a7:	24 01                	and    $0x1,%al
  10f6a9:	0f b6 c0             	movzbl %al,%eax
  10f6ac:	48 83 c4 10          	add    $0x10,%rsp
  10f6b0:	c3                   	retq   
  10f6b1:	cc                   	int3   
  10f6b2:	cc                   	int3   
  10f6b3:	cc                   	int3   
  10f6b4:	cc                   	int3   
  10f6b5:	cc                   	int3   
  10f6b6:	cc                   	int3   
  10f6b7:	cc                   	int3   
  10f6b8:	cc                   	int3   
  10f6b9:	cc                   	int3   
  10f6ba:	cc                   	int3   
  10f6bb:	cc                   	int3   
  10f6bc:	cc                   	int3   
  10f6bd:	cc                   	int3   
  10f6be:	cc                   	int3   
  10f6bf:	cc                   	int3   

000000000010f6c0 <_ZN4core3ptr14read_unaligned17h205a069ca8b8073cE>:
  10f6c0:	48 81 ec 98 00 00 00 	sub    $0x98,%rsp
  10f6c7:	48 89 3c 24          	mov    %rdi,(%rsp)
  10f6cb:	48 89 7c 24 28       	mov    %rdi,0x28(%rsp)
  10f6d0:	8b 84 24 90 00 00 00 	mov    0x90(%rsp),%eax
  10f6d7:	89 44 24 24          	mov    %eax,0x24(%rsp)
  10f6db:	48 8d 44 24 24       	lea    0x24(%rsp),%rax
  10f6e0:	48 89 84 24 80 00 00 	mov    %rax,0x80(%rsp)
  10f6e7:	00 
  10f6e8:	48 89 7c 24 48       	mov    %rdi,0x48(%rsp)
  10f6ed:	48 8d 44 24 24       	lea    0x24(%rsp),%rax
  10f6f2:	48 89 44 24 50       	mov    %rax,0x50(%rsp)
  10f6f7:	48 c7 44 24 58 04 00 	movq   $0x4,0x58(%rsp)
  10f6fe:	00 00 
  10f700:	48 89 7c 24 30       	mov    %rdi,0x30(%rsp)
  10f705:	48 8d 44 24 24       	lea    0x24(%rsp),%rax
  10f70a:	48 89 44 24 38       	mov    %rax,0x38(%rsp)
  10f70f:	48 c7 44 24 40 04 00 	movq   $0x4,0x40(%rsp)
  10f716:	00 00 
  10f718:	48 8b 7c 24 30       	mov    0x30(%rsp),%rdi
  10f71d:	48 89 7c 24 08       	mov    %rdi,0x8(%rsp)
  10f722:	48 8b 4c 24 38       	mov    0x38(%rsp),%rcx
  10f727:	48 89 4c 24 10       	mov    %rcx,0x10(%rsp)
  10f72c:	48 8b 44 24 40       	mov    0x40(%rsp),%rax
  10f731:	48 89 44 24 18       	mov    %rax,0x18(%rsp)
  10f736:	48 89 7c 24 68       	mov    %rdi,0x68(%rsp)
  10f73b:	48 89 4c 24 70       	mov    %rcx,0x70(%rsp)
  10f740:	48 89 44 24 78       	mov    %rax,0x78(%rsp)
  10f745:	e8 06 49 ff ff       	callq  104050 <_ZN4core10intrinsics23is_aligned_and_not_null17h9128a242cea00777E>
  10f74a:	a8 01                	test   $0x1,%al
  10f74c:	75 07                	jne    10f755 <_ZN4core3ptr14read_unaligned17h205a069ca8b8073cE+0x95>
  10f74e:	c6 44 24 67 00       	movb   $0x0,0x67(%rsp)
  10f753:	eb 10                	jmp    10f765 <_ZN4core3ptr14read_unaligned17h205a069ca8b8073cE+0xa5>
  10f755:	48 8b 7c 24 10       	mov    0x10(%rsp),%rdi
  10f75a:	e8 f1 48 ff ff       	callq  104050 <_ZN4core10intrinsics23is_aligned_and_not_null17h9128a242cea00777E>
  10f75f:	24 01                	and    $0x1,%al
  10f761:	88 44 24 67          	mov    %al,0x67(%rsp)
  10f765:	f6 44 24 67 01       	testb  $0x1,0x67(%rsp)
  10f76a:	75 07                	jne    10f773 <_ZN4core3ptr14read_unaligned17h205a069ca8b8073cE+0xb3>
  10f76c:	c6 44 24 66 00       	movb   $0x0,0x66(%rsp)
  10f771:	eb 1a                	jmp    10f78d <_ZN4core3ptr14read_unaligned17h205a069ca8b8073cE+0xcd>
  10f773:	48 8b 54 24 18       	mov    0x18(%rsp),%rdx
  10f778:	48 8b 74 24 10       	mov    0x10(%rsp),%rsi
  10f77d:	48 8b 7c 24 08       	mov    0x8(%rsp),%rdi
  10f782:	e8 09 4a ff ff       	callq  104190 <_ZN4core10intrinsics17is_nonoverlapping17h6163b0011d9cc9c4E>
  10f787:	24 01                	and    $0x1,%al
  10f789:	88 44 24 66          	mov    %al,0x66(%rsp)
  10f78d:	8a 44 24 66          	mov    0x66(%rsp),%al
  10f791:	34 ff                	xor    $0xff,%al
  10f793:	a8 01                	test   $0x1,%al
  10f795:	75 02                	jne    10f799 <_ZN4core3ptr14read_unaligned17h205a069ca8b8073cE+0xd9>
  10f797:	eb 13                	jmp    10f7ac <_ZN4core3ptr14read_unaligned17h205a069ca8b8073cE+0xec>
  10f799:	48 8d 3d 18 25 ff ff 	lea    -0xdae8(%rip),%rdi        # 101cb8 <str.4+0x128>
  10f7a0:	be a6 00 00 00       	mov    $0xa6,%esi
  10f7a5:	e8 d6 5c ff ff       	callq  105480 <_ZN4core9panicking14panic_nounwind17hbf97f84b8fd59176E>
  10f7aa:	0f 0b                	ud2    
  10f7ac:	48 8b 04 24          	mov    (%rsp),%rax
  10f7b0:	8b 00                	mov    (%rax),%eax
  10f7b2:	89 44 24 24          	mov    %eax,0x24(%rsp)
  10f7b6:	8b 44 24 24          	mov    0x24(%rsp),%eax
  10f7ba:	89 84 24 8c 00 00 00 	mov    %eax,0x8c(%rsp)
  10f7c1:	89 84 24 94 00 00 00 	mov    %eax,0x94(%rsp)
  10f7c8:	48 81 c4 98 00 00 00 	add    $0x98,%rsp
  10f7cf:	c3                   	retq   

000000000010f7d0 <_ZN4core3ptr14read_unaligned17h26f3130ce2c2fc90E>:
  10f7d0:	48 81 ec a8 00 00 00 	sub    $0xa8,%rsp
  10f7d7:	48 89 7c 24 08       	mov    %rdi,0x8(%rsp)
  10f7dc:	48 89 7c 24 30       	mov    %rdi,0x30(%rsp)
  10f7e1:	48 8b 84 24 98 00 00 	mov    0x98(%rsp),%rax
  10f7e8:	00 
  10f7e9:	48 89 44 24 28       	mov    %rax,0x28(%rsp)
  10f7ee:	48 8d 44 24 28       	lea    0x28(%rsp),%rax
  10f7f3:	48 89 84 24 88 00 00 	mov    %rax,0x88(%rsp)
  10f7fa:	00 
  10f7fb:	48 89 7c 24 50       	mov    %rdi,0x50(%rsp)
  10f800:	48 8d 44 24 28       	lea    0x28(%rsp),%rax
  10f805:	48 89 44 24 58       	mov    %rax,0x58(%rsp)
  10f80a:	48 c7 44 24 60 08 00 	movq   $0x8,0x60(%rsp)
  10f811:	00 00 
  10f813:	48 89 7c 24 38       	mov    %rdi,0x38(%rsp)
  10f818:	48 8d 44 24 28       	lea    0x28(%rsp),%rax
  10f81d:	48 89 44 24 40       	mov    %rax,0x40(%rsp)
  10f822:	48 c7 44 24 48 08 00 	movq   $0x8,0x48(%rsp)
  10f829:	00 00 
  10f82b:	48 8b 7c 24 38       	mov    0x38(%rsp),%rdi
  10f830:	48 89 7c 24 10       	mov    %rdi,0x10(%rsp)
  10f835:	48 8b 4c 24 40       	mov    0x40(%rsp),%rcx
  10f83a:	48 89 4c 24 18       	mov    %rcx,0x18(%rsp)
  10f83f:	48 8b 44 24 48       	mov    0x48(%rsp),%rax
  10f844:	48 89 44 24 20       	mov    %rax,0x20(%rsp)
  10f849:	48 89 7c 24 70       	mov    %rdi,0x70(%rsp)
  10f84e:	48 89 4c 24 78       	mov    %rcx,0x78(%rsp)
  10f853:	48 89 84 24 80 00 00 	mov    %rax,0x80(%rsp)
  10f85a:	00 
  10f85b:	e8 f0 47 ff ff       	callq  104050 <_ZN4core10intrinsics23is_aligned_and_not_null17h9128a242cea00777E>
  10f860:	a8 01                	test   $0x1,%al
  10f862:	75 07                	jne    10f86b <_ZN4core3ptr14read_unaligned17h26f3130ce2c2fc90E+0x9b>
  10f864:	c6 44 24 6f 00       	movb   $0x0,0x6f(%rsp)
  10f869:	eb 10                	jmp    10f87b <_ZN4core3ptr14read_unaligned17h26f3130ce2c2fc90E+0xab>
  10f86b:	48 8b 7c 24 18       	mov    0x18(%rsp),%rdi
  10f870:	e8 db 47 ff ff       	callq  104050 <_ZN4core10intrinsics23is_aligned_and_not_null17h9128a242cea00777E>
  10f875:	24 01                	and    $0x1,%al
  10f877:	88 44 24 6f          	mov    %al,0x6f(%rsp)
  10f87b:	f6 44 24 6f 01       	testb  $0x1,0x6f(%rsp)
  10f880:	75 07                	jne    10f889 <_ZN4core3ptr14read_unaligned17h26f3130ce2c2fc90E+0xb9>
  10f882:	c6 44 24 6e 00       	movb   $0x0,0x6e(%rsp)
  10f887:	eb 1a                	jmp    10f8a3 <_ZN4core3ptr14read_unaligned17h26f3130ce2c2fc90E+0xd3>
  10f889:	48 8b 54 24 20       	mov    0x20(%rsp),%rdx
  10f88e:	48 8b 74 24 18       	mov    0x18(%rsp),%rsi
  10f893:	48 8b 7c 24 10       	mov    0x10(%rsp),%rdi
  10f898:	e8 f3 48 ff ff       	callq  104190 <_ZN4core10intrinsics17is_nonoverlapping17h6163b0011d9cc9c4E>
  10f89d:	24 01                	and    $0x1,%al
  10f89f:	88 44 24 6e          	mov    %al,0x6e(%rsp)
  10f8a3:	8a 44 24 6e          	mov    0x6e(%rsp),%al
  10f8a7:	34 ff                	xor    $0xff,%al
  10f8a9:	a8 01                	test   $0x1,%al
  10f8ab:	75 02                	jne    10f8af <_ZN4core3ptr14read_unaligned17h26f3130ce2c2fc90E+0xdf>
  10f8ad:	eb 13                	jmp    10f8c2 <_ZN4core3ptr14read_unaligned17h26f3130ce2c2fc90E+0xf2>
  10f8af:	48 8d 3d 02 24 ff ff 	lea    -0xdbfe(%rip),%rdi        # 101cb8 <str.4+0x128>
  10f8b6:	be a6 00 00 00       	mov    $0xa6,%esi
  10f8bb:	e8 c0 5b ff ff       	callq  105480 <_ZN4core9panicking14panic_nounwind17hbf97f84b8fd59176E>
  10f8c0:	0f 0b                	ud2    
  10f8c2:	48 8b 44 24 08       	mov    0x8(%rsp),%rax
  10f8c7:	48 8b 00             	mov    (%rax),%rax
  10f8ca:	48 89 44 24 28       	mov    %rax,0x28(%rsp)
  10f8cf:	48 8b 44 24 28       	mov    0x28(%rsp),%rax
  10f8d4:	48 89 84 24 90 00 00 	mov    %rax,0x90(%rsp)
  10f8db:	00 
  10f8dc:	48 89 84 24 a0 00 00 	mov    %rax,0xa0(%rsp)
  10f8e3:	00 
  10f8e4:	48 81 c4 a8 00 00 00 	add    $0xa8,%rsp
  10f8eb:	c3                   	retq   
  10f8ec:	cc                   	int3   
  10f8ed:	cc                   	int3   
  10f8ee:	cc                   	int3   
  10f8ef:	cc                   	int3   

000000000010f8f0 <_ZN4core3ptr14read_unaligned17h2bb03c3577b2f164E>:
  10f8f0:	48 81 ec c8 00 00 00 	sub    $0xc8,%rsp
  10f8f7:	48 89 7c 24 08       	mov    %rdi,0x8(%rsp)
  10f8fc:	48 89 7c 24 38       	mov    %rdi,0x38(%rsp)
  10f901:	48 8b 84 24 a8 00 00 	mov    0xa8(%rsp),%rax
  10f908:	00 
  10f909:	48 8b 8c 24 b0 00 00 	mov    0xb0(%rsp),%rcx
  10f910:	00 
  10f911:	48 89 4c 24 30       	mov    %rcx,0x30(%rsp)
  10f916:	48 89 44 24 28       	mov    %rax,0x28(%rsp)
  10f91b:	48 8d 44 24 28       	lea    0x28(%rsp),%rax
  10f920:	48 89 84 24 90 00 00 	mov    %rax,0x90(%rsp)
  10f927:	00 
  10f928:	48 89 7c 24 58       	mov    %rdi,0x58(%rsp)
  10f92d:	48 8d 44 24 28       	lea    0x28(%rsp),%rax
  10f932:	48 89 44 24 60       	mov    %rax,0x60(%rsp)
  10f937:	48 c7 44 24 68 10 00 	movq   $0x10,0x68(%rsp)
  10f93e:	00 00 
  10f940:	48 89 7c 24 40       	mov    %rdi,0x40(%rsp)
  10f945:	48 8d 44 24 28       	lea    0x28(%rsp),%rax
  10f94a:	48 89 44 24 48       	mov    %rax,0x48(%rsp)
  10f94f:	48 c7 44 24 50 10 00 	movq   $0x10,0x50(%rsp)
  10f956:	00 00 
  10f958:	48 8b 7c 24 40       	mov    0x40(%rsp),%rdi
  10f95d:	48 89 7c 24 10       	mov    %rdi,0x10(%rsp)
  10f962:	48 8b 4c 24 48       	mov    0x48(%rsp),%rcx
  10f967:	48 89 4c 24 18       	mov    %rcx,0x18(%rsp)
  10f96c:	48 8b 44 24 50       	mov    0x50(%rsp),%rax
  10f971:	48 89 44 24 20       	mov    %rax,0x20(%rsp)
  10f976:	48 89 7c 24 78       	mov    %rdi,0x78(%rsp)
  10f97b:	48 89 8c 24 80 00 00 	mov    %rcx,0x80(%rsp)
  10f982:	00 
  10f983:	48 89 84 24 88 00 00 	mov    %rax,0x88(%rsp)
  10f98a:	00 
  10f98b:	e8 c0 46 ff ff       	callq  104050 <_ZN4core10intrinsics23is_aligned_and_not_null17h9128a242cea00777E>
  10f990:	a8 01                	test   $0x1,%al
  10f992:	75 07                	jne    10f99b <_ZN4core3ptr14read_unaligned17h2bb03c3577b2f164E+0xab>
  10f994:	c6 44 24 77 00       	movb   $0x0,0x77(%rsp)
  10f999:	eb 10                	jmp    10f9ab <_ZN4core3ptr14read_unaligned17h2bb03c3577b2f164E+0xbb>
  10f99b:	48 8b 7c 24 18       	mov    0x18(%rsp),%rdi
  10f9a0:	e8 ab 46 ff ff       	callq  104050 <_ZN4core10intrinsics23is_aligned_and_not_null17h9128a242cea00777E>
  10f9a5:	24 01                	and    $0x1,%al
  10f9a7:	88 44 24 77          	mov    %al,0x77(%rsp)
  10f9ab:	f6 44 24 77 01       	testb  $0x1,0x77(%rsp)
  10f9b0:	75 07                	jne    10f9b9 <_ZN4core3ptr14read_unaligned17h2bb03c3577b2f164E+0xc9>
  10f9b2:	c6 44 24 76 00       	movb   $0x0,0x76(%rsp)
  10f9b7:	eb 1a                	jmp    10f9d3 <_ZN4core3ptr14read_unaligned17h2bb03c3577b2f164E+0xe3>
  10f9b9:	48 8b 54 24 20       	mov    0x20(%rsp),%rdx
  10f9be:	48 8b 74 24 18       	mov    0x18(%rsp),%rsi
  10f9c3:	48 8b 7c 24 10       	mov    0x10(%rsp),%rdi
  10f9c8:	e8 c3 47 ff ff       	callq  104190 <_ZN4core10intrinsics17is_nonoverlapping17h6163b0011d9cc9c4E>
  10f9cd:	24 01                	and    $0x1,%al
  10f9cf:	88 44 24 76          	mov    %al,0x76(%rsp)
  10f9d3:	8a 44 24 76          	mov    0x76(%rsp),%al
  10f9d7:	34 ff                	xor    $0xff,%al
  10f9d9:	a8 01                	test   $0x1,%al
  10f9db:	75 02                	jne    10f9df <_ZN4core3ptr14read_unaligned17h2bb03c3577b2f164E+0xef>
  10f9dd:	eb 13                	jmp    10f9f2 <_ZN4core3ptr14read_unaligned17h2bb03c3577b2f164E+0x102>
  10f9df:	48 8d 3d d2 22 ff ff 	lea    -0xdd2e(%rip),%rdi        # 101cb8 <str.4+0x128>
  10f9e6:	be a6 00 00 00       	mov    $0xa6,%esi
  10f9eb:	e8 90 5a ff ff       	callq  105480 <_ZN4core9panicking14panic_nounwind17hbf97f84b8fd59176E>
  10f9f0:	0f 0b                	ud2    
  10f9f2:	48 8b 4c 24 08       	mov    0x8(%rsp),%rcx
  10f9f7:	48 8b 01             	mov    (%rcx),%rax
  10f9fa:	48 8b 49 08          	mov    0x8(%rcx),%rcx
  10f9fe:	48 89 4c 24 30       	mov    %rcx,0x30(%rsp)
  10fa03:	48 89 44 24 28       	mov    %rax,0x28(%rsp)
  10fa08:	48 8b 44 24 28       	mov    0x28(%rsp),%rax
  10fa0d:	48 8b 54 24 30       	mov    0x30(%rsp),%rdx
  10fa12:	48 89 94 24 a0 00 00 	mov    %rdx,0xa0(%rsp)
  10fa19:	00 
  10fa1a:	48 89 84 24 98 00 00 	mov    %rax,0x98(%rsp)
  10fa21:	00 
  10fa22:	48 89 94 24 c0 00 00 	mov    %rdx,0xc0(%rsp)
  10fa29:	00 
  10fa2a:	48 89 84 24 b8 00 00 	mov    %rax,0xb8(%rsp)
  10fa31:	00 
  10fa32:	48 81 c4 c8 00 00 00 	add    $0xc8,%rsp
  10fa39:	c3                   	retq   
  10fa3a:	cc                   	int3   
  10fa3b:	cc                   	int3   
  10fa3c:	cc                   	int3   
  10fa3d:	cc                   	int3   
  10fa3e:	cc                   	int3   
  10fa3f:	cc                   	int3   

000000000010fa40 <_ZN4core3ptr14read_unaligned17h4917b5537658b65cE>:
  10fa40:	48 81 ec 98 00 00 00 	sub    $0x98,%rsp
  10fa47:	48 89 7c 24 08       	mov    %rdi,0x8(%rsp)
  10fa4c:	48 89 7c 24 30       	mov    %rdi,0x30(%rsp)
  10fa51:	66 8b 84 24 94 00 00 	mov    0x94(%rsp),%ax
  10fa58:	00 
  10fa59:	66 89 44 24 2e       	mov    %ax,0x2e(%rsp)
  10fa5e:	48 8d 44 24 2e       	lea    0x2e(%rsp),%rax
  10fa63:	48 89 84 24 88 00 00 	mov    %rax,0x88(%rsp)
  10fa6a:	00 
  10fa6b:	48 89 7c 24 50       	mov    %rdi,0x50(%rsp)
  10fa70:	48 8d 44 24 2e       	lea    0x2e(%rsp),%rax
  10fa75:	48 89 44 24 58       	mov    %rax,0x58(%rsp)
  10fa7a:	48 c7 44 24 60 02 00 	movq   $0x2,0x60(%rsp)
  10fa81:	00 00 
  10fa83:	48 89 7c 24 38       	mov    %rdi,0x38(%rsp)
  10fa88:	48 8d 44 24 2e       	lea    0x2e(%rsp),%rax
  10fa8d:	48 89 44 24 40       	mov    %rax,0x40(%rsp)
  10fa92:	48 c7 44 24 48 02 00 	movq   $0x2,0x48(%rsp)
  10fa99:	00 00 
  10fa9b:	48 8b 7c 24 38       	mov    0x38(%rsp),%rdi
  10faa0:	48 89 7c 24 10       	mov    %rdi,0x10(%rsp)
  10faa5:	48 8b 4c 24 40       	mov    0x40(%rsp),%rcx
  10faaa:	48 89 4c 24 18       	mov    %rcx,0x18(%rsp)
  10faaf:	48 8b 44 24 48       	mov    0x48(%rsp),%rax
  10fab4:	48 89 44 24 20       	mov    %rax,0x20(%rsp)
  10fab9:	48 89 7c 24 70       	mov    %rdi,0x70(%rsp)
  10fabe:	48 89 4c 24 78       	mov    %rcx,0x78(%rsp)
  10fac3:	48 89 84 24 80 00 00 	mov    %rax,0x80(%rsp)
  10faca:	00 
  10facb:	e8 80 45 ff ff       	callq  104050 <_ZN4core10intrinsics23is_aligned_and_not_null17h9128a242cea00777E>
  10fad0:	a8 01                	test   $0x1,%al
  10fad2:	75 07                	jne    10fadb <_ZN4core3ptr14read_unaligned17h4917b5537658b65cE+0x9b>
  10fad4:	c6 44 24 6f 00       	movb   $0x0,0x6f(%rsp)
  10fad9:	eb 10                	jmp    10faeb <_ZN4core3ptr14read_unaligned17h4917b5537658b65cE+0xab>
  10fadb:	48 8b 7c 24 18       	mov    0x18(%rsp),%rdi
  10fae0:	e8 6b 45 ff ff       	callq  104050 <_ZN4core10intrinsics23is_aligned_and_not_null17h9128a242cea00777E>
  10fae5:	24 01                	and    $0x1,%al
  10fae7:	88 44 24 6f          	mov    %al,0x6f(%rsp)
  10faeb:	f6 44 24 6f 01       	testb  $0x1,0x6f(%rsp)
  10faf0:	75 07                	jne    10faf9 <_ZN4core3ptr14read_unaligned17h4917b5537658b65cE+0xb9>
  10faf2:	c6 44 24 6e 00       	movb   $0x0,0x6e(%rsp)
  10faf7:	eb 1a                	jmp    10fb13 <_ZN4core3ptr14read_unaligned17h4917b5537658b65cE+0xd3>
  10faf9:	48 8b 54 24 20       	mov    0x20(%rsp),%rdx
  10fafe:	48 8b 74 24 18       	mov    0x18(%rsp),%rsi
  10fb03:	48 8b 7c 24 10       	mov    0x10(%rsp),%rdi
  10fb08:	e8 83 46 ff ff       	callq  104190 <_ZN4core10intrinsics17is_nonoverlapping17h6163b0011d9cc9c4E>
  10fb0d:	24 01                	and    $0x1,%al
  10fb0f:	88 44 24 6e          	mov    %al,0x6e(%rsp)
  10fb13:	8a 44 24 6e          	mov    0x6e(%rsp),%al
  10fb17:	34 ff                	xor    $0xff,%al
  10fb19:	a8 01                	test   $0x1,%al
  10fb1b:	75 02                	jne    10fb1f <_ZN4core3ptr14read_unaligned17h4917b5537658b65cE+0xdf>
  10fb1d:	eb 13                	jmp    10fb32 <_ZN4core3ptr14read_unaligned17h4917b5537658b65cE+0xf2>
  10fb1f:	48 8d 3d 92 21 ff ff 	lea    -0xde6e(%rip),%rdi        # 101cb8 <str.4+0x128>
  10fb26:	be a6 00 00 00       	mov    $0xa6,%esi
  10fb2b:	e8 50 59 ff ff       	callq  105480 <_ZN4core9panicking14panic_nounwind17hbf97f84b8fd59176E>
  10fb30:	0f 0b                	ud2    
  10fb32:	48 8b 44 24 08       	mov    0x8(%rsp),%rax
  10fb37:	66 8b 00             	mov    (%rax),%ax
  10fb3a:	66 89 44 24 2e       	mov    %ax,0x2e(%rsp)
  10fb3f:	66 8b 44 24 2e       	mov    0x2e(%rsp),%ax
  10fb44:	66 89 84 24 92 00 00 	mov    %ax,0x92(%rsp)
  10fb4b:	00 
  10fb4c:	66 89 84 24 96 00 00 	mov    %ax,0x96(%rsp)
  10fb53:	00 
  10fb54:	48 81 c4 98 00 00 00 	add    $0x98,%rsp
  10fb5b:	c3                   	retq   
  10fb5c:	cc                   	int3   
  10fb5d:	cc                   	int3   
  10fb5e:	cc                   	int3   
  10fb5f:	cc                   	int3   

000000000010fb60 <_ZN4core3ptr4read17h3eca6537c24110e7E>:
  10fb60:	48 83 ec 28          	sub    $0x28,%rsp
  10fb64:	48 89 7c 24 08       	mov    %rdi,0x8(%rsp)
  10fb69:	48 89 7c 24 18       	mov    %rdi,0x18(%rsp)
  10fb6e:	b0 01                	mov    $0x1,%al
  10fb70:	a8 01                	test   $0x1,%al
  10fb72:	75 0c                	jne    10fb80 <_ZN4core3ptr4read17h3eca6537c24110e7E+0x20>
  10fb74:	48 8b 44 24 08       	mov    0x8(%rsp),%rax
  10fb79:	8a 00                	mov    (%rax),%al
  10fb7b:	48 83 c4 28          	add    $0x28,%rsp
  10fb7f:	c3                   	retq   
  10fb80:	48 8b 44 24 08       	mov    0x8(%rsp),%rax
  10fb85:	48 89 44 24 10       	mov    %rax,0x10(%rsp)
  10fb8a:	48 8b 7c 24 10       	mov    0x10(%rsp),%rdi
  10fb8f:	48 89 7c 24 20       	mov    %rdi,0x20(%rsp)
  10fb94:	e8 b7 44 ff ff       	callq  104050 <_ZN4core10intrinsics23is_aligned_and_not_null17h9128a242cea00777E>
  10fb99:	34 ff                	xor    $0xff,%al
  10fb9b:	a8 01                	test   $0x1,%al
  10fb9d:	75 02                	jne    10fba1 <_ZN4core3ptr4read17h3eca6537c24110e7E+0x41>
  10fb9f:	eb 13                	jmp    10fbb4 <_ZN4core3ptr4read17h3eca6537c24110e7E+0x54>
  10fba1:	48 8d 3d b6 21 ff ff 	lea    -0xde4a(%rip),%rdi        # 101d5e <str.4+0x1ce>
  10fba8:	be 65 00 00 00       	mov    $0x65,%esi
  10fbad:	e8 ce 58 ff ff       	callq  105480 <_ZN4core9panicking14panic_nounwind17hbf97f84b8fd59176E>
  10fbb2:	0f 0b                	ud2    
  10fbb4:	eb be                	jmp    10fb74 <_ZN4core3ptr4read17h3eca6537c24110e7E+0x14>
  10fbb6:	cc                   	int3   
  10fbb7:	cc                   	int3   
  10fbb8:	cc                   	int3   
  10fbb9:	cc                   	int3   
  10fbba:	cc                   	int3   
  10fbbb:	cc                   	int3   
  10fbbc:	cc                   	int3   
  10fbbd:	cc                   	int3   
  10fbbe:	cc                   	int3   
  10fbbf:	cc                   	int3   

000000000010fbc0 <_ZN17compiler_builtins3mem6memcpy17hbb54bbea7323f214E>:
  10fbc0:	48 83 ec 78          	sub    $0x78,%rsp
  10fbc4:	48 89 3c 24          	mov    %rdi,(%rsp)
  10fbc8:	48 89 7c 24 18       	mov    %rdi,0x18(%rsp)
  10fbcd:	48 89 74 24 20       	mov    %rsi,0x20(%rsp)
  10fbd2:	48 89 54 24 28       	mov    %rdx,0x28(%rsp)
  10fbd7:	48 89 7c 24 30       	mov    %rdi,0x30(%rsp)
  10fbdc:	48 89 74 24 38       	mov    %rsi,0x38(%rsp)
  10fbe1:	48 89 54 24 58       	mov    %rdx,0x58(%rsp)
  10fbe6:	48 8b 74 24 30       	mov    0x30(%rsp),%rsi
  10fbeb:	48 8d 7c 24 40       	lea    0x40(%rsp),%rdi
  10fbf0:	e8 6b 0a 00 00       	callq  110660 <_ZN17compiler_builtins3mem5impls9rep_param17h3d67324722d1119aE>
  10fbf5:	48 8b 04 24          	mov    (%rsp),%rax
  10fbf9:	48 8b 4c 24 40       	mov    0x40(%rsp),%rcx
  10fbfe:	48 89 4c 24 60       	mov    %rcx,0x60(%rsp)
  10fc03:	48 8b 54 24 48       	mov    0x48(%rsp),%rdx
  10fc08:	48 89 54 24 08       	mov    %rdx,0x8(%rsp)
  10fc0d:	48 89 54 24 68       	mov    %rdx,0x68(%rsp)
  10fc12:	48 8b 54 24 50       	mov    0x50(%rsp),%rdx
  10fc17:	48 89 54 24 10       	mov    %rdx,0x10(%rsp)
  10fc1c:	48 89 54 24 70       	mov    %rdx,0x70(%rsp)
  10fc21:	48 8b 7c 24 30       	mov    0x30(%rsp),%rdi
  10fc26:	48 8b 74 24 38       	mov    0x38(%rsp),%rsi
  10fc2b:	f3 a4                	rep movsb %ds:(%rsi),%es:(%rdi)
  10fc2d:	48 89 ca             	mov    %rcx,%rdx
  10fc30:	48 8b 4c 24 08       	mov    0x8(%rsp),%rcx
  10fc35:	48 89 7c 24 30       	mov    %rdi,0x30(%rsp)
  10fc3a:	48 89 74 24 38       	mov    %rsi,0x38(%rsp)
  10fc3f:	48 8b 7c 24 30       	mov    0x30(%rsp),%rdi
  10fc44:	48 8b 74 24 38       	mov    0x38(%rsp),%rsi
  10fc49:	f3 48 a5             	rep movsq %ds:(%rsi),%es:(%rdi)
  10fc4c:	48 89 ca             	mov    %rcx,%rdx
  10fc4f:	48 8b 4c 24 10       	mov    0x10(%rsp),%rcx
  10fc54:	48 89 7c 24 30       	mov    %rdi,0x30(%rsp)
  10fc59:	48 89 74 24 38       	mov    %rsi,0x38(%rsp)
  10fc5e:	48 8b 7c 24 30       	mov    0x30(%rsp),%rdi
  10fc63:	48 8b 74 24 38       	mov    0x38(%rsp),%rsi
  10fc68:	f3 a4                	rep movsb %ds:(%rsi),%es:(%rdi)
  10fc6a:	48 83 c4 78          	add    $0x78,%rsp
  10fc6e:	c3                   	retq   
  10fc6f:	cc                   	int3   

000000000010fc70 <memcpy>:
  10fc70:	48 83 ec 18          	sub    $0x18,%rsp
  10fc74:	48 89 3c 24          	mov    %rdi,(%rsp)
  10fc78:	48 89 74 24 08       	mov    %rsi,0x8(%rsp)
  10fc7d:	48 89 54 24 10       	mov    %rdx,0x10(%rsp)
  10fc82:	e8 39 ff ff ff       	callq  10fbc0 <_ZN17compiler_builtins3mem6memcpy17hbb54bbea7323f214E>
  10fc87:	48 83 c4 18          	add    $0x18,%rsp
  10fc8b:	c3                   	retq   
  10fc8c:	cc                   	int3   
  10fc8d:	cc                   	int3   
  10fc8e:	cc                   	int3   
  10fc8f:	cc                   	int3   

000000000010fc90 <_ZN17compiler_builtins3mem6memset17haea2aeba3704f3d6E>:
  10fc90:	48 81 ec 98 00 00 00 	sub    $0x98,%rsp
  10fc97:	48 89 54 24 18       	mov    %rdx,0x18(%rsp)
  10fc9c:	48 89 7c 24 20       	mov    %rdi,0x20(%rsp)
  10fca1:	48 89 7c 24 30       	mov    %rdi,0x30(%rsp)
  10fca6:	89 74 24 3c          	mov    %esi,0x3c(%rsp)
  10fcaa:	48 89 54 24 40       	mov    %rdx,0x40(%rsp)
  10fcaf:	40 88 f0             	mov    %sil,%al
  10fcb2:	48 89 7c 24 48       	mov    %rdi,0x48(%rsp)
  10fcb7:	88 44 24 6f          	mov    %al,0x6f(%rsp)
  10fcbb:	48 89 54 24 70       	mov    %rdx,0x70(%rsp)
  10fcc0:	0f b6 c0             	movzbl %al,%eax
  10fcc3:	48 b9 01 01 01 01 01 	movabs $0x101010101010101,%rcx
  10fcca:	01 01 01 
  10fccd:	48 f7 e1             	mul    %rcx
  10fcd0:	48 89 44 24 28       	mov    %rax,0x28(%rsp)
  10fcd5:	0f 90 c0             	seto   %al
  10fcd8:	a8 01                	test   $0x1,%al
  10fcda:	75 02                	jne    10fcde <_ZN17compiler_builtins3mem6memset17haea2aeba3704f3d6E+0x4e>
  10fcdc:	eb 1a                	jmp    10fcf8 <_ZN17compiler_builtins3mem6memset17haea2aeba3704f3d6E+0x68>
  10fcde:	48 8d 3d 5b 21 ff ff 	lea    -0xdea5(%rip),%rdi        # 101e40 <str.5>
  10fce5:	48 8d 15 4c 28 00 00 	lea    0x284c(%rip),%rdx        # 112538 <_ZN4core3fmt2rt12USIZE_MARKER17h1b31419084dfd5e3E+0xb40>
  10fcec:	be 21 00 00 00       	mov    $0x21,%esi
  10fcf1:	e8 3a 57 ff ff       	callq  105430 <_ZN4core9panicking5panic17h4e18ef80ec7677b0E>
  10fcf6:	0f 0b                	ud2    
  10fcf8:	48 8b 44 24 28       	mov    0x28(%rsp),%rax
  10fcfd:	48 8b 54 24 18       	mov    0x18(%rsp),%rdx
  10fd02:	48 89 44 24 78       	mov    %rax,0x78(%rsp)
  10fd07:	48 8b 74 24 48       	mov    0x48(%rsp),%rsi
  10fd0c:	48 8d 7c 24 50       	lea    0x50(%rsp),%rdi
  10fd11:	e8 4a 09 00 00       	callq  110660 <_ZN17compiler_builtins3mem5impls9rep_param17h3d67324722d1119aE>
  10fd16:	48 8b 44 24 28       	mov    0x28(%rsp),%rax
  10fd1b:	48 8b 4c 24 50       	mov    0x50(%rsp),%rcx
  10fd20:	48 89 8c 24 80 00 00 	mov    %rcx,0x80(%rsp)
  10fd27:	00 
  10fd28:	48 8b 54 24 58       	mov    0x58(%rsp),%rdx
  10fd2d:	48 89 54 24 08       	mov    %rdx,0x8(%rsp)
  10fd32:	48 89 94 24 88 00 00 	mov    %rdx,0x88(%rsp)
  10fd39:	00 
  10fd3a:	48 8b 54 24 60       	mov    0x60(%rsp),%rdx
  10fd3f:	48 89 54 24 10       	mov    %rdx,0x10(%rsp)
  10fd44:	48 89 94 24 90 00 00 	mov    %rdx,0x90(%rsp)
  10fd4b:	00 
  10fd4c:	48 8b 7c 24 48       	mov    0x48(%rsp),%rdi
  10fd51:	f3 aa                	rep stos %al,%es:(%rdi)
  10fd53:	48 8b 44 24 28       	mov    0x28(%rsp),%rax
  10fd58:	48 89 ca             	mov    %rcx,%rdx
  10fd5b:	48 8b 4c 24 08       	mov    0x8(%rsp),%rcx
  10fd60:	48 89 7c 24 48       	mov    %rdi,0x48(%rsp)
  10fd65:	48 8b 7c 24 48       	mov    0x48(%rsp),%rdi
  10fd6a:	f3 48 ab             	rep stos %rax,%es:(%rdi)
  10fd6d:	48 8b 44 24 28       	mov    0x28(%rsp),%rax
  10fd72:	48 89 ca             	mov    %rcx,%rdx
  10fd75:	48 8b 4c 24 10       	mov    0x10(%rsp),%rcx
  10fd7a:	48 89 7c 24 48       	mov    %rdi,0x48(%rsp)
  10fd7f:	48 8b 7c 24 48       	mov    0x48(%rsp),%rdi
  10fd84:	f3 aa                	rep stos %al,%es:(%rdi)
  10fd86:	48 8b 44 24 20       	mov    0x20(%rsp),%rax
  10fd8b:	48 81 c4 98 00 00 00 	add    $0x98,%rsp
  10fd92:	c3                   	retq   
  10fd93:	cc                   	int3   
  10fd94:	cc                   	int3   
  10fd95:	cc                   	int3   
  10fd96:	cc                   	int3   
  10fd97:	cc                   	int3   
  10fd98:	cc                   	int3   
  10fd99:	cc                   	int3   
  10fd9a:	cc                   	int3   
  10fd9b:	cc                   	int3   
  10fd9c:	cc                   	int3   
  10fd9d:	cc                   	int3   
  10fd9e:	cc                   	int3   
  10fd9f:	cc                   	int3   

000000000010fda0 <memset>:
  10fda0:	48 83 ec 18          	sub    $0x18,%rsp
  10fda4:	48 89 3c 24          	mov    %rdi,(%rsp)
  10fda8:	89 74 24 0c          	mov    %esi,0xc(%rsp)
  10fdac:	48 89 54 24 10       	mov    %rdx,0x10(%rsp)
  10fdb1:	e8 da fe ff ff       	callq  10fc90 <_ZN17compiler_builtins3mem6memset17haea2aeba3704f3d6E>
  10fdb6:	48 83 c4 18          	add    $0x18,%rsp
  10fdba:	c3                   	retq   
  10fdbb:	cc                   	int3   
  10fdbc:	cc                   	int3   
  10fdbd:	cc                   	int3   
  10fdbe:	cc                   	int3   
  10fdbf:	cc                   	int3   

000000000010fdc0 <_ZN17compiler_builtins3mem6memcmp17hd70c362f6d8f2f08E>:
  10fdc0:	48 81 ec 88 00 00 00 	sub    $0x88,%rsp
  10fdc7:	48 89 7c 24 08       	mov    %rdi,0x8(%rsp)
  10fdcc:	48 89 74 24 10       	mov    %rsi,0x10(%rsp)
  10fdd1:	48 89 54 24 18       	mov    %rdx,0x18(%rsp)
  10fdd6:	48 89 7c 24 60       	mov    %rdi,0x60(%rsp)
  10fddb:	48 89 74 24 68       	mov    %rsi,0x68(%rsp)
  10fde0:	48 89 54 24 70       	mov    %rdx,0x70(%rsp)
  10fde5:	48 8d 44 24 20       	lea    0x20(%rsp),%rax
  10fdea:	48 89 44 24 28       	mov    %rax,0x28(%rsp)
  10fdef:	48 8d 44 24 28       	lea    0x28(%rsp),%rax
  10fdf4:	48 89 44 24 30       	mov    %rax,0x30(%rsp)
  10fdf9:	48 8d 44 24 30       	lea    0x30(%rsp),%rax
  10fdfe:	48 89 44 24 38       	mov    %rax,0x38(%rsp)
  10fe03:	48 8d 44 24 38       	lea    0x38(%rsp),%rax
  10fe08:	48 89 44 24 40       	mov    %rax,0x40(%rsp)
  10fe0d:	48 89 bc 24 80 00 00 	mov    %rdi,0x80(%rsp)
  10fe14:	00 
  10fe15:	48 89 74 24 78       	mov    %rsi,0x78(%rsp)
  10fe1a:	48 89 7c 24 48       	mov    %rdi,0x48(%rsp)
  10fe1f:	48 89 74 24 50       	mov    %rsi,0x50(%rsp)
  10fe24:	48 89 54 24 58       	mov    %rdx,0x58(%rsp)
  10fe29:	48 8b 74 24 48       	mov    0x48(%rsp),%rsi
  10fe2e:	48 8b 54 24 50       	mov    0x50(%rsp),%rdx
  10fe33:	48 8b 4c 24 58       	mov    0x58(%rsp),%rcx
  10fe38:	48 8d 7c 24 40       	lea    0x40(%rsp),%rdi
  10fe3d:	e8 4e 06 00 00       	callq  110490 <_ZN17compiler_builtins3mem5impls13compare_bytes28_$u7b$$u7b$closure$u7d$$u7d$17h72e6b6b0a7b3b408E>
  10fe42:	48 81 c4 88 00 00 00 	add    $0x88,%rsp
  10fe49:	c3                   	retq   
  10fe4a:	cc                   	int3   
  10fe4b:	cc                   	int3   
  10fe4c:	cc                   	int3   
  10fe4d:	cc                   	int3   
  10fe4e:	cc                   	int3   
  10fe4f:	cc                   	int3   

000000000010fe50 <_ZN17compiler_builtins3mem5impls13compare_bytes28_$u7b$$u7b$closure$u7d$$u7d$17he99e7e55ac5720fcE>:
  10fe50:	48 81 ec 98 00 00 00 	sub    $0x98,%rsp
  10fe57:	48 89 74 24 18       	mov    %rsi,0x18(%rsp)
  10fe5c:	48 89 54 24 20       	mov    %rdx,0x20(%rsp)
  10fe61:	48 89 7c 24 60       	mov    %rdi,0x60(%rsp)
  10fe66:	48 89 4c 24 68       	mov    %rcx,0x68(%rsp)
  10fe6b:	48 c7 44 24 30 00 00 	movq   $0x0,0x30(%rsp)
  10fe72:	00 00 
  10fe74:	48 89 4c 24 38       	mov    %rcx,0x38(%rsp)
  10fe79:	48 8b 7c 24 30       	mov    0x30(%rsp),%rdi
  10fe7e:	48 8b 74 24 38       	mov    0x38(%rsp),%rsi
  10fe83:	e8 88 cf ff ff       	callq  10ce10 <_ZN63_$LT$I$u20$as$u20$core..iter..traits..collect..IntoIterator$GT$9into_iter17h3e6eed25d9a5d22cE>
  10fe88:	48 89 44 24 40       	mov    %rax,0x40(%rsp)
  10fe8d:	48 89 54 24 48       	mov    %rdx,0x48(%rsp)
  10fe92:	48 8d 7c 24 40       	lea    0x40(%rsp),%rdi
  10fe97:	e8 64 cf ff ff       	callq  10ce00 <_ZN4core4iter5range101_$LT$impl$u20$core..iter..traits..iterator..Iterator$u20$for$u20$core..ops..range..Range$LT$A$GT$$GT$4next17h1e143a2b9ee3d11bE>
  10fe9c:	48 89 54 24 58       	mov    %rdx,0x58(%rsp)
  10fea1:	48 89 44 24 50       	mov    %rax,0x50(%rsp)
  10fea6:	48 83 7c 24 50 00    	cmpq   $0x0,0x50(%rsp)
  10feac:	75 0a                	jne    10feb8 <_ZN17compiler_builtins3mem5impls13compare_bytes28_$u7b$$u7b$closure$u7d$$u7d$17he99e7e55ac5720fcE+0x68>
  10feae:	c7 44 24 2c 00 00 00 	movl   $0x0,0x2c(%rsp)
  10feb5:	00 
  10feb6:	eb 24                	jmp    10fedc <_ZN17compiler_builtins3mem5impls13compare_bytes28_$u7b$$u7b$closure$u7d$$u7d$17he99e7e55ac5720fcE+0x8c>
  10feb8:	48 8b 7c 24 18       	mov    0x18(%rsp),%rdi
  10febd:	e8 4e f6 ff ff       	callq  10f510 <_ZN4core3ptr9const_ptr33_$LT$impl$u20$$BP$const$u20$T$GT$4read17h7974361b1eeccb5eE>
  10fec2:	88 44 24 17          	mov    %al,0x17(%rsp)
  10fec6:	48 8b 7c 24 20       	mov    0x20(%rsp),%rdi
  10fecb:	e8 40 f6 ff ff       	callq  10f510 <_ZN4core3ptr9const_ptr33_$LT$impl$u20$$BP$const$u20$T$GT$4read17h7974361b1eeccb5eE>
  10fed0:	88 c1                	mov    %al,%cl
  10fed2:	8a 44 24 17          	mov    0x17(%rsp),%al
  10fed6:	38 c8                	cmp    %cl,%al
  10fed8:	75 51                	jne    10ff2b <_ZN17compiler_builtins3mem5impls13compare_bytes28_$u7b$$u7b$closure$u7d$$u7d$17he99e7e55ac5720fcE+0xdb>
  10feda:	eb 0c                	jmp    10fee8 <_ZN17compiler_builtins3mem5impls13compare_bytes28_$u7b$$u7b$closure$u7d$$u7d$17he99e7e55ac5720fcE+0x98>
  10fedc:	8b 44 24 2c          	mov    0x2c(%rsp),%eax
  10fee0:	48 81 c4 98 00 00 00 	add    $0x98,%rsp
  10fee7:	c3                   	retq   
  10fee8:	48 8b 44 24 18       	mov    0x18(%rsp),%rax
  10feed:	48 89 84 24 80 00 00 	mov    %rax,0x80(%rsp)
  10fef4:	00 
  10fef5:	48 c7 84 24 88 00 00 	movq   $0x1,0x88(%rsp)
  10fefc:	00 01 00 00 00 
  10ff01:	48 83 c0 01          	add    $0x1,%rax
  10ff05:	48 89 44 24 18       	mov    %rax,0x18(%rsp)
  10ff0a:	48 8b 44 24 20       	mov    0x20(%rsp),%rax
  10ff0f:	48 89 44 24 70       	mov    %rax,0x70(%rsp)
  10ff14:	48 c7 44 24 78 01 00 	movq   $0x1,0x78(%rsp)
  10ff1b:	00 00 
  10ff1d:	48 83 c0 01          	add    $0x1,%rax
  10ff21:	48 89 44 24 20       	mov    %rax,0x20(%rsp)
  10ff26:	e9 67 ff ff ff       	jmpq   10fe92 <_ZN17compiler_builtins3mem5impls13compare_bytes28_$u7b$$u7b$closure$u7d$$u7d$17he99e7e55ac5720fcE+0x42>
  10ff2b:	48 8b 7c 24 18       	mov    0x18(%rsp),%rdi
  10ff30:	e8 db f5 ff ff       	callq  10f510 <_ZN4core3ptr9const_ptr33_$LT$impl$u20$$BP$const$u20$T$GT$4read17h7974361b1eeccb5eE>
  10ff35:	88 84 24 97 00 00 00 	mov    %al,0x97(%rsp)
  10ff3c:	0f b6 c0             	movzbl %al,%eax
  10ff3f:	89 44 24 0c          	mov    %eax,0xc(%rsp)
  10ff43:	48 8b 7c 24 20       	mov    0x20(%rsp),%rdi
  10ff48:	e8 c3 f5 ff ff       	callq  10f510 <_ZN4core3ptr9const_ptr33_$LT$impl$u20$$BP$const$u20$T$GT$4read17h7974361b1eeccb5eE>
  10ff4d:	88 c1                	mov    %al,%cl
  10ff4f:	8b 44 24 0c          	mov    0xc(%rsp),%eax
  10ff53:	88 8c 24 96 00 00 00 	mov    %cl,0x96(%rsp)
  10ff5a:	0f b6 c9             	movzbl %cl,%ecx
  10ff5d:	29 c8                	sub    %ecx,%eax
  10ff5f:	89 44 24 10          	mov    %eax,0x10(%rsp)
  10ff63:	0f 90 c0             	seto   %al
  10ff66:	a8 01                	test   $0x1,%al
  10ff68:	75 0d                	jne    10ff77 <_ZN17compiler_builtins3mem5impls13compare_bytes28_$u7b$$u7b$closure$u7d$$u7d$17he99e7e55ac5720fcE+0x127>
  10ff6a:	8b 44 24 10          	mov    0x10(%rsp),%eax
  10ff6e:	89 44 24 2c          	mov    %eax,0x2c(%rsp)
  10ff72:	e9 65 ff ff ff       	jmpq   10fedc <_ZN17compiler_builtins3mem5impls13compare_bytes28_$u7b$$u7b$closure$u7d$$u7d$17he99e7e55ac5720fcE+0x8c>
  10ff77:	48 8d 3d f2 1e ff ff 	lea    -0xe10e(%rip),%rdi        # 101e70 <str.1>
  10ff7e:	48 8d 15 cb 25 00 00 	lea    0x25cb(%rip),%rdx        # 112550 <_ZN4core3fmt2rt12USIZE_MARKER17h1b31419084dfd5e3E+0xb58>
  10ff85:	be 21 00 00 00       	mov    $0x21,%esi
  10ff8a:	e8 a1 54 ff ff       	callq  105430 <_ZN4core9panicking5panic17h4e18ef80ec7677b0E>
  10ff8f:	0f 0b                	ud2    
  10ff91:	cc                   	int3   
  10ff92:	cc                   	int3   
  10ff93:	cc                   	int3   
  10ff94:	cc                   	int3   
  10ff95:	cc                   	int3   
  10ff96:	cc                   	int3   
  10ff97:	cc                   	int3   
  10ff98:	cc                   	int3   
  10ff99:	cc                   	int3   
  10ff9a:	cc                   	int3   
  10ff9b:	cc                   	int3   
  10ff9c:	cc                   	int3   
  10ff9d:	cc                   	int3   
  10ff9e:	cc                   	int3   
  10ff9f:	cc                   	int3   

000000000010ffa0 <_ZN17compiler_builtins3mem5impls13compare_bytes28_$u7b$$u7b$closure$u7d$$u7d$17h74a39236bf141c97E>:
  10ffa0:	48 81 ec e8 00 00 00 	sub    $0xe8,%rsp
  10ffa7:	48 89 4c 24 08       	mov    %rcx,0x8(%rsp)
  10ffac:	48 89 7c 24 20       	mov    %rdi,0x20(%rsp)
  10ffb1:	48 89 74 24 28       	mov    %rsi,0x28(%rsp)
  10ffb6:	48 89 54 24 30       	mov    %rdx,0x30(%rsp)
  10ffbb:	48 89 4c 24 38       	mov    %rcx,0x38(%rsp)
  10ffc0:	48 89 74 24 40       	mov    %rsi,0x40(%rsp)
  10ffc5:	48 89 54 24 48       	mov    %rdx,0x48(%rsp)
  10ffca:	48 89 8c 24 88 00 00 	mov    %rcx,0x88(%rsp)
  10ffd1:	00 
  10ffd2:	48 8b 44 24 40       	mov    0x40(%rsp),%rax
  10ffd7:	48 c1 e9 01          	shr    $0x1,%rcx
  10ffdb:	48 89 84 24 b8 00 00 	mov    %rax,0xb8(%rsp)
  10ffe2:	00 
  10ffe3:	48 89 8c 24 c0 00 00 	mov    %rcx,0xc0(%rsp)
  10ffea:	00 
  10ffeb:	48 c1 e1 01          	shl    $0x1,%rcx
  10ffef:	48 01 c8             	add    %rcx,%rax
  10fff2:	48 89 44 24 10       	mov    %rax,0x10(%rsp)
  10fff7:	48 89 84 24 90 00 00 	mov    %rax,0x90(%rsp)
  10fffe:	00 
  10ffff:	48 8b 44 24 10       	mov    0x10(%rsp),%rax
  110004:	48 39 44 24 40       	cmp    %rax,0x40(%rsp)
  110009:	75 55                	jne    110060 <_ZN17compiler_builtins3mem5impls13compare_bytes28_$u7b$$u7b$closure$u7d$$u7d$17h74a39236bf141c97E+0xc0>
  11000b:	48 8b 44 24 08       	mov    0x8(%rsp),%rax
  110010:	48 8b 54 24 40       	mov    0x40(%rsp),%rdx
  110015:	48 89 94 24 e0 00 00 	mov    %rdx,0xe0(%rsp)
  11001c:	00 
  11001d:	48 8b 4c 24 48       	mov    0x48(%rsp),%rcx
  110022:	48 89 8c 24 d8 00 00 	mov    %rcx,0xd8(%rsp)
  110029:	00 
  11002a:	48 83 e0 01          	and    $0x1,%rax
  11002e:	48 89 54 24 70       	mov    %rdx,0x70(%rsp)
  110033:	48 89 4c 24 78       	mov    %rcx,0x78(%rsp)
  110038:	48 89 84 24 80 00 00 	mov    %rax,0x80(%rsp)
  11003f:	00 
  110040:	48 8b 7c 24 70       	mov    0x70(%rsp),%rdi
  110045:	48 8b 74 24 78       	mov    0x78(%rsp),%rsi
  11004a:	48 8b 94 24 80 00 00 	mov    0x80(%rsp),%rdx
  110051:	00 
  110052:	e8 49 f5 ff ff       	callq  10f5a0 <_ZN4core3ops8function6FnOnce9call_once17hea419e5c6413f39eE>
  110057:	89 44 24 50          	mov    %eax,0x50(%rsp)
  11005b:	e9 bf 00 00 00       	jmpq   11011f <_ZN17compiler_builtins3mem5impls13compare_bytes28_$u7b$$u7b$closure$u7d$$u7d$17h74a39236bf141c97E+0x17f>
  110060:	48 8b 7c 24 40       	mov    0x40(%rsp),%rdi
  110065:	e8 76 f4 ff ff       	callq  10f4e0 <_ZN4core3ptr9const_ptr33_$LT$impl$u20$$BP$const$u20$T$GT$14read_unaligned17h1d532f80611f18a7E>
  11006a:	66 89 44 24 54       	mov    %ax,0x54(%rsp)
  11006f:	48 8b 7c 24 48       	mov    0x48(%rsp),%rdi
  110074:	e8 67 f4 ff ff       	callq  10f4e0 <_ZN4core3ptr9const_ptr33_$LT$impl$u20$$BP$const$u20$T$GT$14read_unaligned17h1d532f80611f18a7E>
  110079:	66 89 44 24 56       	mov    %ax,0x56(%rsp)
  11007e:	48 8d 7c 24 54       	lea    0x54(%rsp),%rdi
  110083:	48 8d 74 24 56       	lea    0x56(%rsp),%rsi
  110088:	e8 93 f5 ff ff       	callq  10f620 <_ZN4core3cmp5impls54_$LT$impl$u20$core..cmp..PartialEq$u20$for$u20$u16$GT$2ne17h24a0e5eeb8920853E>
  11008d:	a8 01                	test   $0x1,%al
  11008f:	75 49                	jne    1100da <_ZN17compiler_builtins3mem5impls13compare_bytes28_$u7b$$u7b$closure$u7d$$u7d$17h74a39236bf141c97E+0x13a>
  110091:	48 8b 44 24 40       	mov    0x40(%rsp),%rax
  110096:	48 89 84 24 a8 00 00 	mov    %rax,0xa8(%rsp)
  11009d:	00 
  11009e:	48 c7 84 24 b0 00 00 	movq   $0x1,0xb0(%rsp)
  1100a5:	00 01 00 00 00 
  1100aa:	48 83 c0 02          	add    $0x2,%rax
  1100ae:	48 89 44 24 40       	mov    %rax,0x40(%rsp)
  1100b3:	48 8b 44 24 48       	mov    0x48(%rsp),%rax
  1100b8:	48 89 84 24 98 00 00 	mov    %rax,0x98(%rsp)
  1100bf:	00 
  1100c0:	48 c7 84 24 a0 00 00 	movq   $0x1,0xa0(%rsp)
  1100c7:	00 01 00 00 00 
  1100cc:	48 83 c0 02          	add    $0x2,%rax
  1100d0:	48 89 44 24 48       	mov    %rax,0x48(%rsp)
  1100d5:	e9 25 ff ff ff       	jmpq   10ffff <_ZN17compiler_builtins3mem5impls13compare_bytes28_$u7b$$u7b$closure$u7d$$u7d$17h74a39236bf141c97E+0x5f>
  1100da:	48 8b 4c 24 40       	mov    0x40(%rsp),%rcx
  1100df:	48 89 8c 24 d0 00 00 	mov    %rcx,0xd0(%rsp)
  1100e6:	00 
  1100e7:	48 8b 44 24 48       	mov    0x48(%rsp),%rax
  1100ec:	48 89 84 24 c8 00 00 	mov    %rax,0xc8(%rsp)
  1100f3:	00 
  1100f4:	48 89 4c 24 58       	mov    %rcx,0x58(%rsp)
  1100f9:	48 89 44 24 60       	mov    %rax,0x60(%rsp)
  1100fe:	48 c7 44 24 68 02 00 	movq   $0x2,0x68(%rsp)
  110105:	00 00 
  110107:	48 8b 7c 24 58       	mov    0x58(%rsp),%rdi
  11010c:	48 8b 74 24 60       	mov    0x60(%rsp),%rsi
  110111:	48 8b 54 24 68       	mov    0x68(%rsp),%rdx
  110116:	e8 85 f4 ff ff       	callq  10f5a0 <_ZN4core3ops8function6FnOnce9call_once17hea419e5c6413f39eE>
  11011b:	89 44 24 50          	mov    %eax,0x50(%rsp)
  11011f:	8b 44 24 50          	mov    0x50(%rsp),%eax
  110123:	48 81 c4 e8 00 00 00 	add    $0xe8,%rsp
  11012a:	c3                   	retq   
  11012b:	cc                   	int3   
  11012c:	cc                   	int3   
  11012d:	cc                   	int3   
  11012e:	cc                   	int3   
  11012f:	cc                   	int3   

0000000000110130 <_ZN17compiler_builtins3mem5impls13compare_bytes28_$u7b$$u7b$closure$u7d$$u7d$17hff30f79813d4ddd3E>:
  110130:	48 81 ec f8 00 00 00 	sub    $0xf8,%rsp
  110137:	48 89 4c 24 08       	mov    %rcx,0x8(%rsp)
  11013c:	48 89 7c 24 20       	mov    %rdi,0x20(%rsp)
  110141:	48 89 74 24 28       	mov    %rsi,0x28(%rsp)
  110146:	48 89 54 24 30       	mov    %rdx,0x30(%rsp)
  11014b:	48 89 4c 24 38       	mov    %rcx,0x38(%rsp)
  110150:	48 8b 07             	mov    (%rdi),%rax
  110153:	48 8b 00             	mov    (%rax),%rax
  110156:	48 89 44 24 10       	mov    %rax,0x10(%rsp)
  11015b:	48 89 74 24 40       	mov    %rsi,0x40(%rsp)
  110160:	48 89 54 24 48       	mov    %rdx,0x48(%rsp)
  110165:	48 89 8c 24 90 00 00 	mov    %rcx,0x90(%rsp)
  11016c:	00 
  11016d:	48 89 84 24 98 00 00 	mov    %rax,0x98(%rsp)
  110174:	00 
  110175:	48 8b 44 24 40       	mov    0x40(%rsp),%rax
  11017a:	48 c1 e9 02          	shr    $0x2,%rcx
  11017e:	48 89 84 24 c8 00 00 	mov    %rax,0xc8(%rsp)
  110185:	00 
  110186:	48 89 8c 24 d0 00 00 	mov    %rcx,0xd0(%rsp)
  11018d:	00 
  11018e:	48 c1 e1 02          	shl    $0x2,%rcx
  110192:	48 01 c8             	add    %rcx,%rax
  110195:	48 89 44 24 18       	mov    %rax,0x18(%rsp)
  11019a:	48 89 84 24 a0 00 00 	mov    %rax,0xa0(%rsp)
  1101a1:	00 
  1101a2:	48 8b 44 24 18       	mov    0x18(%rsp),%rax
  1101a7:	48 39 44 24 40       	cmp    %rax,0x40(%rsp)
  1101ac:	75 60                	jne    11020e <_ZN17compiler_builtins3mem5impls13compare_bytes28_$u7b$$u7b$closure$u7d$$u7d$17hff30f79813d4ddd3E+0xde>
  1101ae:	48 8b 7c 24 10       	mov    0x10(%rsp),%rdi
  1101b3:	48 8b 44 24 08       	mov    0x8(%rsp),%rax
  1101b8:	48 8b 54 24 40       	mov    0x40(%rsp),%rdx
  1101bd:	48 89 94 24 f0 00 00 	mov    %rdx,0xf0(%rsp)
  1101c4:	00 
  1101c5:	48 8b 4c 24 48       	mov    0x48(%rsp),%rcx
  1101ca:	48 89 8c 24 e8 00 00 	mov    %rcx,0xe8(%rsp)
  1101d1:	00 
  1101d2:	48 83 e0 03          	and    $0x3,%rax
  1101d6:	48 89 54 24 78       	mov    %rdx,0x78(%rsp)
  1101db:	48 89 8c 24 80 00 00 	mov    %rcx,0x80(%rsp)
  1101e2:	00 
  1101e3:	48 89 84 24 88 00 00 	mov    %rax,0x88(%rsp)
  1101ea:	00 
  1101eb:	48 8b 74 24 78       	mov    0x78(%rsp),%rsi
  1101f0:	48 8b 94 24 80 00 00 	mov    0x80(%rsp),%rdx
  1101f7:	00 
  1101f8:	48 8b 8c 24 88 00 00 	mov    0x88(%rsp),%rcx
  1101ff:	00 
  110200:	e8 db f3 ff ff       	callq  10f5e0 <_ZN4core3ops8function6FnOnce9call_once17hf7131ef1f5991c09E>
  110205:	89 44 24 54          	mov    %eax,0x54(%rsp)
  110209:	e9 c2 00 00 00       	jmpq   1102d0 <_ZN17compiler_builtins3mem5impls13compare_bytes28_$u7b$$u7b$closure$u7d$$u7d$17hff30f79813d4ddd3E+0x1a0>
  11020e:	48 8b 7c 24 40       	mov    0x40(%rsp),%rdi
  110213:	e8 b8 f2 ff ff       	callq  10f4d0 <_ZN4core3ptr9const_ptr33_$LT$impl$u20$$BP$const$u20$T$GT$14read_unaligned17h0c62c5ae179b6d1bE>
  110218:	89 44 24 58          	mov    %eax,0x58(%rsp)
  11021c:	48 8b 7c 24 48       	mov    0x48(%rsp),%rdi
  110221:	e8 aa f2 ff ff       	callq  10f4d0 <_ZN4core3ptr9const_ptr33_$LT$impl$u20$$BP$const$u20$T$GT$14read_unaligned17h0c62c5ae179b6d1bE>
  110226:	89 44 24 5c          	mov    %eax,0x5c(%rsp)
  11022a:	48 8d 7c 24 58       	lea    0x58(%rsp),%rdi
  11022f:	48 8d 74 24 5c       	lea    0x5c(%rsp),%rsi
  110234:	e8 07 f4 ff ff       	callq  10f640 <_ZN4core3cmp5impls54_$LT$impl$u20$core..cmp..PartialEq$u20$for$u20$u32$GT$2ne17hfdd2cbb58cb81344E>
  110239:	a8 01                	test   $0x1,%al
  11023b:	75 49                	jne    110286 <_ZN17compiler_builtins3mem5impls13compare_bytes28_$u7b$$u7b$closure$u7d$$u7d$17hff30f79813d4ddd3E+0x156>
  11023d:	48 8b 44 24 40       	mov    0x40(%rsp),%rax
  110242:	48 89 84 24 b8 00 00 	mov    %rax,0xb8(%rsp)
  110249:	00 
  11024a:	48 c7 84 24 c0 00 00 	movq   $0x1,0xc0(%rsp)
  110251:	00 01 00 00 00 
  110256:	48 83 c0 04          	add    $0x4,%rax
  11025a:	48 89 44 24 40       	mov    %rax,0x40(%rsp)
  11025f:	48 8b 44 24 48       	mov    0x48(%rsp),%rax
  110264:	48 89 84 24 a8 00 00 	mov    %rax,0xa8(%rsp)
  11026b:	00 
  11026c:	48 c7 84 24 b0 00 00 	movq   $0x1,0xb0(%rsp)
  110273:	00 01 00 00 00 
  110278:	48 83 c0 04          	add    $0x4,%rax
  11027c:	48 89 44 24 48       	mov    %rax,0x48(%rsp)
  110281:	e9 1c ff ff ff       	jmpq   1101a2 <_ZN17compiler_builtins3mem5impls13compare_bytes28_$u7b$$u7b$closure$u7d$$u7d$17hff30f79813d4ddd3E+0x72>
  110286:	48 8b 7c 24 10       	mov    0x10(%rsp),%rdi
  11028b:	48 8b 4c 24 40       	mov    0x40(%rsp),%rcx
  110290:	48 89 8c 24 e0 00 00 	mov    %rcx,0xe0(%rsp)
  110297:	00 
  110298:	48 8b 44 24 48       	mov    0x48(%rsp),%rax
  11029d:	48 89 84 24 d8 00 00 	mov    %rax,0xd8(%rsp)
  1102a4:	00 
  1102a5:	48 89 4c 24 60       	mov    %rcx,0x60(%rsp)
  1102aa:	48 89 44 24 68       	mov    %rax,0x68(%rsp)
  1102af:	48 c7 44 24 70 04 00 	movq   $0x4,0x70(%rsp)
  1102b6:	00 00 
  1102b8:	48 8b 74 24 60       	mov    0x60(%rsp),%rsi
  1102bd:	48 8b 54 24 68       	mov    0x68(%rsp),%rdx
  1102c2:	48 8b 4c 24 70       	mov    0x70(%rsp),%rcx
  1102c7:	e8 14 f3 ff ff       	callq  10f5e0 <_ZN4core3ops8function6FnOnce9call_once17hf7131ef1f5991c09E>
  1102cc:	89 44 24 54          	mov    %eax,0x54(%rsp)
  1102d0:	8b 44 24 54          	mov    0x54(%rsp),%eax
  1102d4:	48 81 c4 f8 00 00 00 	add    $0xf8,%rsp
  1102db:	c3                   	retq   
  1102dc:	cc                   	int3   
  1102dd:	cc                   	int3   
  1102de:	cc                   	int3   
  1102df:	cc                   	int3   

00000000001102e0 <_ZN17compiler_builtins3mem5impls13compare_bytes28_$u7b$$u7b$closure$u7d$$u7d$17h37d3e999feef8174E>:
  1102e0:	48 81 ec f8 00 00 00 	sub    $0xf8,%rsp
  1102e7:	48 89 0c 24          	mov    %rcx,(%rsp)
  1102eb:	48 89 7c 24 18       	mov    %rdi,0x18(%rsp)
  1102f0:	48 89 74 24 20       	mov    %rsi,0x20(%rsp)
  1102f5:	48 89 54 24 28       	mov    %rdx,0x28(%rsp)
  1102fa:	48 89 4c 24 30       	mov    %rcx,0x30(%rsp)
  1102ff:	48 8b 07             	mov    (%rdi),%rax
  110302:	48 8b 00             	mov    (%rax),%rax
  110305:	48 89 44 24 08       	mov    %rax,0x8(%rsp)
  11030a:	48 89 74 24 38       	mov    %rsi,0x38(%rsp)
  11030f:	48 89 54 24 40       	mov    %rdx,0x40(%rsp)
  110314:	48 89 8c 24 90 00 00 	mov    %rcx,0x90(%rsp)
  11031b:	00 
  11031c:	48 89 84 24 98 00 00 	mov    %rax,0x98(%rsp)
  110323:	00 
  110324:	48 8b 44 24 38       	mov    0x38(%rsp),%rax
  110329:	48 c1 e9 03          	shr    $0x3,%rcx
  11032d:	48 89 84 24 c8 00 00 	mov    %rax,0xc8(%rsp)
  110334:	00 
  110335:	48 89 8c 24 d0 00 00 	mov    %rcx,0xd0(%rsp)
  11033c:	00 
  11033d:	48 c1 e1 03          	shl    $0x3,%rcx
  110341:	48 01 c8             	add    %rcx,%rax
  110344:	48 89 44 24 10       	mov    %rax,0x10(%rsp)
  110349:	48 89 84 24 a0 00 00 	mov    %rax,0xa0(%rsp)
  110350:	00 
  110351:	48 8b 44 24 10       	mov    0x10(%rsp),%rax
  110356:	48 39 44 24 38       	cmp    %rax,0x38(%rsp)
  11035b:	75 5f                	jne    1103bc <_ZN17compiler_builtins3mem5impls13compare_bytes28_$u7b$$u7b$closure$u7d$$u7d$17h37d3e999feef8174E+0xdc>
  11035d:	48 8b 7c 24 08       	mov    0x8(%rsp),%rdi
  110362:	48 8b 04 24          	mov    (%rsp),%rax
  110366:	48 8b 54 24 38       	mov    0x38(%rsp),%rdx
  11036b:	48 89 94 24 f0 00 00 	mov    %rdx,0xf0(%rsp)
  110372:	00 
  110373:	48 8b 4c 24 40       	mov    0x40(%rsp),%rcx
  110378:	48 89 8c 24 e8 00 00 	mov    %rcx,0xe8(%rsp)
  11037f:	00 
  110380:	48 83 e0 07          	and    $0x7,%rax
  110384:	48 89 54 24 78       	mov    %rdx,0x78(%rsp)
  110389:	48 89 8c 24 80 00 00 	mov    %rcx,0x80(%rsp)
  110390:	00 
  110391:	48 89 84 24 88 00 00 	mov    %rax,0x88(%rsp)
  110398:	00 
  110399:	48 8b 74 24 78       	mov    0x78(%rsp),%rsi
  11039e:	48 8b 94 24 80 00 00 	mov    0x80(%rsp),%rdx
  1103a5:	00 
  1103a6:	48 8b 8c 24 88 00 00 	mov    0x88(%rsp),%rcx
  1103ad:	00 
  1103ae:	e8 6d f1 ff ff       	callq  10f520 <_ZN4core3ops8function6FnOnce9call_once17h3493d5f247011bf2E>
  1103b3:	89 44 24 4c          	mov    %eax,0x4c(%rsp)
  1103b7:	e9 c4 00 00 00       	jmpq   110480 <_ZN17compiler_builtins3mem5impls13compare_bytes28_$u7b$$u7b$closure$u7d$$u7d$17h37d3e999feef8174E+0x1a0>
  1103bc:	48 8b 7c 24 38       	mov    0x38(%rsp),%rdi
  1103c1:	e8 2a f1 ff ff       	callq  10f4f0 <_ZN4core3ptr9const_ptr33_$LT$impl$u20$$BP$const$u20$T$GT$14read_unaligned17h3c0def5d63ef8187E>
  1103c6:	48 89 44 24 50       	mov    %rax,0x50(%rsp)
  1103cb:	48 8b 7c 24 40       	mov    0x40(%rsp),%rdi
  1103d0:	e8 1b f1 ff ff       	callq  10f4f0 <_ZN4core3ptr9const_ptr33_$LT$impl$u20$$BP$const$u20$T$GT$14read_unaligned17h3c0def5d63ef8187E>
  1103d5:	48 89 44 24 58       	mov    %rax,0x58(%rsp)
  1103da:	48 8d 7c 24 50       	lea    0x50(%rsp),%rdi
  1103df:	48 8d 74 24 58       	lea    0x58(%rsp),%rsi
  1103e4:	e8 77 f2 ff ff       	callq  10f660 <_ZN4core3cmp5impls54_$LT$impl$u20$core..cmp..PartialEq$u20$for$u20$u64$GT$2ne17h74ccb9667f3016c3E>
  1103e9:	a8 01                	test   $0x1,%al
  1103eb:	75 49                	jne    110436 <_ZN17compiler_builtins3mem5impls13compare_bytes28_$u7b$$u7b$closure$u7d$$u7d$17h37d3e999feef8174E+0x156>
  1103ed:	48 8b 44 24 38       	mov    0x38(%rsp),%rax
  1103f2:	48 89 84 24 b8 00 00 	mov    %rax,0xb8(%rsp)
  1103f9:	00 
  1103fa:	48 c7 84 24 c0 00 00 	movq   $0x1,0xc0(%rsp)
  110401:	00 01 00 00 00 
  110406:	48 83 c0 08          	add    $0x8,%rax
  11040a:	48 89 44 24 38       	mov    %rax,0x38(%rsp)
  11040f:	48 8b 44 24 40       	mov    0x40(%rsp),%rax
  110414:	48 89 84 24 a8 00 00 	mov    %rax,0xa8(%rsp)
  11041b:	00 
  11041c:	48 c7 84 24 b0 00 00 	movq   $0x1,0xb0(%rsp)
  110423:	00 01 00 00 00 
  110428:	48 83 c0 08          	add    $0x8,%rax
  11042c:	48 89 44 24 40       	mov    %rax,0x40(%rsp)
  110431:	e9 1b ff ff ff       	jmpq   110351 <_ZN17compiler_builtins3mem5impls13compare_bytes28_$u7b$$u7b$closure$u7d$$u7d$17h37d3e999feef8174E+0x71>
  110436:	48 8b 7c 24 08       	mov    0x8(%rsp),%rdi
  11043b:	48 8b 4c 24 38       	mov    0x38(%rsp),%rcx
  110440:	48 89 8c 24 e0 00 00 	mov    %rcx,0xe0(%rsp)
  110447:	00 
  110448:	48 8b 44 24 40       	mov    0x40(%rsp),%rax
  11044d:	48 89 84 24 d8 00 00 	mov    %rax,0xd8(%rsp)
  110454:	00 
  110455:	48 89 4c 24 60       	mov    %rcx,0x60(%rsp)
  11045a:	48 89 44 24 68       	mov    %rax,0x68(%rsp)
  11045f:	48 c7 44 24 70 08 00 	movq   $0x8,0x70(%rsp)
  110466:	00 00 
  110468:	48 8b 74 24 60       	mov    0x60(%rsp),%rsi
  11046d:	48 8b 54 24 68       	mov    0x68(%rsp),%rdx
  110472:	48 8b 4c 24 70       	mov    0x70(%rsp),%rcx
  110477:	e8 a4 f0 ff ff       	callq  10f520 <_ZN4core3ops8function6FnOnce9call_once17h3493d5f247011bf2E>
  11047c:	89 44 24 4c          	mov    %eax,0x4c(%rsp)
  110480:	8b 44 24 4c          	mov    0x4c(%rsp),%eax
  110484:	48 81 c4 f8 00 00 00 	add    $0xf8,%rsp
  11048b:	c3                   	retq   
  11048c:	cc                   	int3   
  11048d:	cc                   	int3   
  11048e:	cc                   	int3   
  11048f:	cc                   	int3   

0000000000110490 <_ZN17compiler_builtins3mem5impls13compare_bytes28_$u7b$$u7b$closure$u7d$$u7d$17h72e6b6b0a7b3b408E>:
  110490:	48 81 ec 08 01 00 00 	sub    $0x108,%rsp
  110497:	48 89 0c 24          	mov    %rcx,(%rsp)
  11049b:	48 89 7c 24 18       	mov    %rdi,0x18(%rsp)
  1104a0:	48 89 74 24 20       	mov    %rsi,0x20(%rsp)
  1104a5:	48 89 54 24 28       	mov    %rdx,0x28(%rsp)
  1104aa:	48 89 4c 24 30       	mov    %rcx,0x30(%rsp)
  1104af:	48 8b 07             	mov    (%rdi),%rax
  1104b2:	48 8b 00             	mov    (%rax),%rax
  1104b5:	48 89 44 24 08       	mov    %rax,0x8(%rsp)
  1104ba:	48 89 74 24 38       	mov    %rsi,0x38(%rsp)
  1104bf:	48 89 54 24 40       	mov    %rdx,0x40(%rsp)
  1104c4:	48 89 8c 24 a0 00 00 	mov    %rcx,0xa0(%rsp)
  1104cb:	00 
  1104cc:	48 89 84 24 a8 00 00 	mov    %rax,0xa8(%rsp)
  1104d3:	00 
  1104d4:	48 8b 44 24 38       	mov    0x38(%rsp),%rax
  1104d9:	48 c1 e9 04          	shr    $0x4,%rcx
  1104dd:	48 89 84 24 d8 00 00 	mov    %rax,0xd8(%rsp)
  1104e4:	00 
  1104e5:	48 89 8c 24 e0 00 00 	mov    %rcx,0xe0(%rsp)
  1104ec:	00 
  1104ed:	48 c1 e1 04          	shl    $0x4,%rcx
  1104f1:	48 01 c8             	add    %rcx,%rax
  1104f4:	48 89 44 24 10       	mov    %rax,0x10(%rsp)
  1104f9:	48 89 84 24 b0 00 00 	mov    %rax,0xb0(%rsp)
  110500:	00 
  110501:	48 8b 44 24 10       	mov    0x10(%rsp),%rax
  110506:	48 39 44 24 38       	cmp    %rax,0x38(%rsp)
  11050b:	75 65                	jne    110572 <_ZN17compiler_builtins3mem5impls13compare_bytes28_$u7b$$u7b$closure$u7d$$u7d$17h72e6b6b0a7b3b408E+0xe2>
  11050d:	48 8b 7c 24 08       	mov    0x8(%rsp),%rdi
  110512:	48 8b 04 24          	mov    (%rsp),%rax
  110516:	48 8b 54 24 38       	mov    0x38(%rsp),%rdx
  11051b:	48 89 94 24 00 01 00 	mov    %rdx,0x100(%rsp)
  110522:	00 
  110523:	48 8b 4c 24 40       	mov    0x40(%rsp),%rcx
  110528:	48 89 8c 24 f8 00 00 	mov    %rcx,0xf8(%rsp)
  11052f:	00 
  110530:	48 83 e0 0f          	and    $0xf,%rax
  110534:	48 89 94 24 88 00 00 	mov    %rdx,0x88(%rsp)
  11053b:	00 
  11053c:	48 89 8c 24 90 00 00 	mov    %rcx,0x90(%rsp)
  110543:	00 
  110544:	48 89 84 24 98 00 00 	mov    %rax,0x98(%rsp)
  11054b:	00 
  11054c:	48 8b b4 24 88 00 00 	mov    0x88(%rsp),%rsi
  110553:	00 
  110554:	48 8b 94 24 90 00 00 	mov    0x90(%rsp),%rdx
  11055b:	00 
  11055c:	48 8b 8c 24 98 00 00 	mov    0x98(%rsp),%rcx
  110563:	00 
  110564:	e8 f7 ef ff ff       	callq  10f560 <_ZN4core3ops8function6FnOnce9call_once17hd1a9f61902321898E>
  110569:	89 44 24 4c          	mov    %eax,0x4c(%rsp)
  11056d:	e9 d4 00 00 00       	jmpq   110646 <_ZN17compiler_builtins3mem5impls13compare_bytes28_$u7b$$u7b$closure$u7d$$u7d$17h72e6b6b0a7b3b408E+0x1b6>
  110572:	48 8b 7c 24 38       	mov    0x38(%rsp),%rdi
  110577:	e8 84 ef ff ff       	callq  10f500 <_ZN4core3ptr9const_ptr33_$LT$impl$u20$$BP$const$u20$T$GT$14read_unaligned17hc2aa437faee55521E>
  11057c:	48 89 54 24 58       	mov    %rdx,0x58(%rsp)
  110581:	48 89 44 24 50       	mov    %rax,0x50(%rsp)
  110586:	48 8b 7c 24 40       	mov    0x40(%rsp),%rdi
  11058b:	e8 70 ef ff ff       	callq  10f500 <_ZN4core3ptr9const_ptr33_$LT$impl$u20$$BP$const$u20$T$GT$14read_unaligned17hc2aa437faee55521E>
  110590:	48 89 54 24 68       	mov    %rdx,0x68(%rsp)
  110595:	48 89 44 24 60       	mov    %rax,0x60(%rsp)
  11059a:	48 8d 7c 24 50       	lea    0x50(%rsp),%rdi
  11059f:	48 8d 74 24 60       	lea    0x60(%rsp),%rsi
  1105a4:	e8 d7 f0 ff ff       	callq  10f680 <_ZN4core3cmp5impls55_$LT$impl$u20$core..cmp..PartialEq$u20$for$u20$u128$GT$2ne17hb9f18bfa0441c4a9E>
  1105a9:	a8 01                	test   $0x1,%al
  1105ab:	75 49                	jne    1105f6 <_ZN17compiler_builtins3mem5impls13compare_bytes28_$u7b$$u7b$closure$u7d$$u7d$17h72e6b6b0a7b3b408E+0x166>
  1105ad:	48 8b 44 24 38       	mov    0x38(%rsp),%rax
  1105b2:	48 89 84 24 c8 00 00 	mov    %rax,0xc8(%rsp)
  1105b9:	00 
  1105ba:	48 c7 84 24 d0 00 00 	movq   $0x1,0xd0(%rsp)
  1105c1:	00 01 00 00 00 
  1105c6:	48 83 c0 10          	add    $0x10,%rax
  1105ca:	48 89 44 24 38       	mov    %rax,0x38(%rsp)
  1105cf:	48 8b 44 24 40       	mov    0x40(%rsp),%rax
  1105d4:	48 89 84 24 b8 00 00 	mov    %rax,0xb8(%rsp)
  1105db:	00 
  1105dc:	48 c7 84 24 c0 00 00 	movq   $0x1,0xc0(%rsp)
  1105e3:	00 01 00 00 00 
  1105e8:	48 83 c0 10          	add    $0x10,%rax
  1105ec:	48 89 44 24 40       	mov    %rax,0x40(%rsp)
  1105f1:	e9 0b ff ff ff       	jmpq   110501 <_ZN17compiler_builtins3mem5impls13compare_bytes28_$u7b$$u7b$closure$u7d$$u7d$17h72e6b6b0a7b3b408E+0x71>
  1105f6:	48 8b 7c 24 08       	mov    0x8(%rsp),%rdi
  1105fb:	48 8b 4c 24 38       	mov    0x38(%rsp),%rcx
  110600:	48 89 8c 24 f0 00 00 	mov    %rcx,0xf0(%rsp)
  110607:	00 
  110608:	48 8b 44 24 40       	mov    0x40(%rsp),%rax
  11060d:	48 89 84 24 e8 00 00 	mov    %rax,0xe8(%rsp)
  110614:	00 
  110615:	48 89 4c 24 70       	mov    %rcx,0x70(%rsp)
  11061a:	48 89 44 24 78       	mov    %rax,0x78(%rsp)
  11061f:	48 c7 84 24 80 00 00 	movq   $0x10,0x80(%rsp)
  110626:	00 10 00 00 00 
  11062b:	48 8b 74 24 70       	mov    0x70(%rsp),%rsi
  110630:	48 8b 54 24 78       	mov    0x78(%rsp),%rdx
  110635:	48 8b 8c 24 80 00 00 	mov    0x80(%rsp),%rcx
  11063c:	00 
  11063d:	e8 1e ef ff ff       	callq  10f560 <_ZN4core3ops8function6FnOnce9call_once17hd1a9f61902321898E>
  110642:	89 44 24 4c          	mov    %eax,0x4c(%rsp)
  110646:	8b 44 24 4c          	mov    0x4c(%rsp),%eax
  11064a:	48 81 c4 08 01 00 00 	add    $0x108,%rsp
  110651:	c3                   	retq   
  110652:	cc                   	int3   
  110653:	cc                   	int3   
  110654:	cc                   	int3   
  110655:	cc                   	int3   
  110656:	cc                   	int3   
  110657:	cc                   	int3   
  110658:	cc                   	int3   
  110659:	cc                   	int3   
  11065a:	cc                   	int3   
  11065b:	cc                   	int3   
  11065c:	cc                   	int3   
  11065d:	cc                   	int3   
  11065e:	cc                   	int3   
  11065f:	cc                   	int3   

0000000000110660 <_ZN17compiler_builtins3mem5impls9rep_param17h3d67324722d1119aE>:
  110660:	48 83 ec 58          	sub    $0x58,%rsp
  110664:	48 89 7c 24 18       	mov    %rdi,0x18(%rsp)
  110669:	48 89 7c 24 20       	mov    %rdi,0x20(%rsp)
  11066e:	48 89 54 24 30       	mov    %rdx,0x30(%rsp)
  110673:	48 89 74 24 38       	mov    %rsi,0x38(%rsp)
  110678:	48 83 e6 07          	and    $0x7,%rsi
  11067c:	b8 08 00 00 00       	mov    $0x8,%eax
  110681:	48 29 f0             	sub    %rsi,%rax
  110684:	48 89 44 24 28       	mov    %rax,0x28(%rsp)
  110689:	b8 08 00 00 00       	mov    $0x8,%eax
  11068e:	48 39 f0             	cmp    %rsi,%rax
  110691:	0f 92 c0             	setb   %al
  110694:	a8 01                	test   $0x1,%al
  110696:	75 3c                	jne    1106d4 <_ZN17compiler_builtins3mem5impls9rep_param17h3d67324722d1119aE+0x74>
  110698:	48 8b 7c 24 28       	mov    0x28(%rsp),%rdi
  11069d:	48 83 e7 07          	and    $0x7,%rdi
  1106a1:	48 8b 74 24 30       	mov    0x30(%rsp),%rsi
  1106a6:	e8 45 60 ff ff       	callq  1066f0 <_ZN4core3cmp3Ord3min17h09aa8430fb160f29E>
  1106ab:	48 89 c1             	mov    %rax,%rcx
  1106ae:	48 89 4c 24 08       	mov    %rcx,0x8(%rsp)
  1106b3:	48 89 4c 24 40       	mov    %rcx,0x40(%rsp)
  1106b8:	48 8b 44 24 30       	mov    0x30(%rsp),%rax
  1106bd:	48 89 c2             	mov    %rax,%rdx
  1106c0:	48 29 ca             	sub    %rcx,%rdx
  1106c3:	48 89 54 24 10       	mov    %rdx,0x10(%rsp)
  1106c8:	48 39 c8             	cmp    %rcx,%rax
  1106cb:	0f 92 c0             	setb   %al
  1106ce:	a8 01                	test   $0x1,%al
  1106d0:	75 61                	jne    110733 <_ZN17compiler_builtins3mem5impls9rep_param17h3d67324722d1119aE+0xd3>
  1106d2:	eb 1a                	jmp    1106ee <_ZN17compiler_builtins3mem5impls9rep_param17h3d67324722d1119aE+0x8e>
  1106d4:	48 8d 3d 95 17 ff ff 	lea    -0xe86b(%rip),%rdi        # 101e70 <str.1>
  1106db:	48 8d 15 86 1e 00 00 	lea    0x1e86(%rip),%rdx        # 112568 <_ZN4core3fmt2rt12USIZE_MARKER17h1b31419084dfd5e3E+0xb70>
  1106e2:	be 21 00 00 00       	mov    $0x21,%esi
  1106e7:	e8 44 4d ff ff       	callq  105430 <_ZN4core9panicking5panic17h4e18ef80ec7677b0E>
  1106ec:	0f 0b                	ud2    
  1106ee:	48 8b 44 24 20       	mov    0x20(%rsp),%rax
  1106f3:	48 8b 4c 24 18       	mov    0x18(%rsp),%rcx
  1106f8:	48 8b 7c 24 08       	mov    0x8(%rsp),%rdi
  1106fd:	48 8b 54 24 10       	mov    0x10(%rsp),%rdx
  110702:	48 89 54 24 30       	mov    %rdx,0x30(%rsp)
  110707:	48 8b 74 24 30       	mov    0x30(%rsp),%rsi
  11070c:	48 c1 ee 03          	shr    $0x3,%rsi
  110710:	48 89 74 24 48       	mov    %rsi,0x48(%rsp)
  110715:	48 8b 54 24 30       	mov    0x30(%rsp),%rdx
  11071a:	48 83 e2 07          	and    $0x7,%rdx
  11071e:	48 89 54 24 50       	mov    %rdx,0x50(%rsp)
  110723:	48 89 39             	mov    %rdi,(%rcx)
  110726:	48 89 71 08          	mov    %rsi,0x8(%rcx)
  11072a:	48 89 51 10          	mov    %rdx,0x10(%rcx)
  11072e:	48 83 c4 58          	add    $0x58,%rsp
  110732:	c3                   	retq   
  110733:	48 8d 3d 36 17 ff ff 	lea    -0xe8ca(%rip),%rdi        # 101e70 <str.1>
  11073a:	48 8d 15 3f 1e 00 00 	lea    0x1e3f(%rip),%rdx        # 112580 <_ZN4core3fmt2rt12USIZE_MARKER17h1b31419084dfd5e3E+0xb88>
  110741:	be 21 00 00 00       	mov    $0x21,%esi
  110746:	e8 e5 4c ff ff       	callq  105430 <_ZN4core9panicking5panic17h4e18ef80ec7677b0E>
  11074b:	0f 0b                	ud2    
  11074d:	cc                   	int3   
  11074e:	cc                   	int3   
  11074f:	cc                   	int3   

0000000000110750 <memcmp>:
  110750:	48 83 ec 18          	sub    $0x18,%rsp
  110754:	48 89 3c 24          	mov    %rdi,(%rsp)
  110758:	48 89 74 24 08       	mov    %rsi,0x8(%rsp)
  11075d:	48 89 54 24 10       	mov    %rdx,0x10(%rsp)
  110762:	e8 59 f6 ff ff       	callq  10fdc0 <_ZN17compiler_builtins3mem6memcmp17hd70c362f6d8f2f08E>
  110767:	48 83 c4 18          	add    $0x18,%rsp
  11076b:	c3                   	retq   
